---
triple:          'arm64-apple-darwin'
binary-path:     '6'
relocations:
  - { offsetInCU: 0x39, offset: 0x39, size: 0x8, addend: 0x0, symName: __ZN8Customer6nextIDE, symObjAddr: 0x227E4, symBinAddr: 0x10002C000, symSize: 0x0 }
  - { offsetInCU: 0x78E6, offset: 0x78E6, size: 0x8, addend: 0x0, symName: __ZNSt3__110__function10__not_nullB8ue170006IZN11ToppingListC1EvEUlvE_EEbRKT_, symObjAddr: 0x4B70, symBinAddr: 0x100007A50, symSize: 0x18 }
  - { offsetInCU: 0x7917, offset: 0x7917, size: 0x8, addend: 0x0, symName: __ZNSt3__110__function10__not_nullB8ue170006IZN11ToppingListC1EvEUlvE0_EEbRKT_, symObjAddr: 0x6B24, symBinAddr: 0x100009A04, symSize: 0x18 }
  - { offsetInCU: 0x7948, offset: 0x7948, size: 0x8, addend: 0x0, symName: __ZNSt3__110__function10__not_nullB8ue170006IZN11ToppingListC1EvEUlvE1_EEbRKT_, symObjAddr: 0x9B64, symBinAddr: 0x10000CA44, symSize: 0x18 }
  - { offsetInCU: 0x7979, offset: 0x7979, size: 0x8, addend: 0x0, symName: __ZNSt3__110__function10__not_nullB8ue170006IZN11ToppingListC1EvEUlvE2_EEbRKT_, symObjAddr: 0xB8EC, symBinAddr: 0x10000E7CC, symSize: 0x18 }
  - { offsetInCU: 0x79AA, offset: 0x79AA, size: 0x8, addend: 0x0, symName: __ZNSt3__110__function10__not_nullB8ue170006IZN11ToppingListC1EvEUlvE3_EEbRKT_, symObjAddr: 0xD224, symBinAddr: 0x100010104, symSize: 0x18 }
  - { offsetInCU: 0x79DB, offset: 0x79DB, size: 0x8, addend: 0x0, symName: __ZNSt3__110__function10__not_nullB8ue170006IZNK11ToppingList16getRandomToppingEvEUlvE_EEbRKT_, symObjAddr: 0x18318, symBinAddr: 0x10001B1F8, symSize: 0x18 }
  - { offsetInCU: 0x7A0C, offset: 0x7A0C, size: 0x8, addend: 0x0, symName: __ZNSt3__110__function10__not_nullB8ue170006IZNK11ToppingList16getRandomToppingEvEUlvE0_EEbRKT_, symObjAddr: 0x1A8D0, symBinAddr: 0x10001D7B0, symSize: 0x18 }
  - { offsetInCU: 0xA589, offset: 0xA589, size: 0x8, addend: 0x0, symName: __ZNSt3__119piecewise_constructE, symObjAddr: 0x23358, symBinAddr: 0x100026373, symSize: 0x0 }
  - { offsetInCU: 0x1830C, offset: 0x1830C, size: 0x8, addend: 0x0, symName: __ZNSt3__124__put_character_sequenceB8ue170006IcNS_11char_traitsIcEEEERNS_13basic_ostreamIT_T0_EES7_PKS4_m, symObjAddr: 0x10484, symBinAddr: 0x100013364, symSize: 0x1EC }
  - { offsetInCU: 0x1AE6A, offset: 0x1AE6A, size: 0x8, addend: 0x0, symName: __ZNSt3__17advanceB8ue170006IPNS_12basic_stringIcNS_11char_traitsIcEENS_9allocatorIcEEEEllvEEvRT_T0_, symObjAddr: 0x15AC4, symBinAddr: 0x1000189A4, symSize: 0x38 }
  - { offsetInCU: 0x247CA, offset: 0x247CA, size: 0x8, addend: 0x0, symName: __ZNSt3__1lsB8ue170006INS_11char_traitsIcEEEERNS_13basic_ostreamIcT_EES6_PKc, symObjAddr: 0x2FC, symBinAddr: 0x1000031DC, symSize: 0x48 }
  - { offsetInCU: 0x24810, offset: 0x24810, size: 0x8, addend: 0x0, symName: __ZNSt3__17getlineB8ue170006IcNS_11char_traitsIcEENS_9allocatorIcEEEERNS_13basic_istreamIT_T0_EES9_RNS_12basic_stringIS6_S7_T1_EE, symObjAddr: 0x370, symBinAddr: 0x100003250, symSize: 0x5C }
  - { offsetInCU: 0x24868, offset: 0x24868, size: 0x8, addend: 0x0, symName: __ZNSt3__1eqB8ue170006IcNS_11char_traitsIcEENS_9allocatorIcEEEEbRKNS_12basic_stringIT_T0_T1_EEPKS6_, symObjAddr: 0x3CC, symBinAddr: 0x1000032AC, symSize: 0xAC }
  - { offsetInCU: 0x248CF, offset: 0x248CF, size: 0x8, addend: 0x0, symName: __ZNSt3__122__make_exception_guardB8ue170006INS_6vectorINS_12basic_stringIcNS_11char_traitsIcEENS_9allocatorIcEEEENS5_IS7_EEE16__destroy_vectorEEENS_28__exception_guard_exceptionsIT_EESC_, symObjAddr: 0x11E0, symBinAddr: 0x1000040C0, symSize: 0x40 }
  - { offsetInCU: 0x24904, offset: 0x24904, size: 0x8, addend: 0x0, symName: __ZNSt3__119__allocate_at_leastB8ue170006INS_9allocatorINS_12basic_stringIcNS_11char_traitsIcEENS1_IcEEEEEEEENS_19__allocation_resultINS_16allocator_traitsIT_E7pointerEEERSA_m, symObjAddr: 0x15F0, symBinAddr: 0x1000044D0, symSize: 0x40 }
  - { offsetInCU: 0x24947, offset: 0x24947, size: 0x8, addend: 0x0, symName: __ZNSt3__13minB8ue170006ImEERKT_S3_S3_, symObjAddr: 0x1748, symBinAddr: 0x100004628, symSize: 0x2C }
  - { offsetInCU: 0x24B74, offset: 0x24B74, size: 0x8, addend: 0x0, symName: __ZNSt3__13minB8ue170006ImNS_6__lessIvvEEEERKT_S5_S5_T0_, symObjAddr: 0x17E0, symBinAddr: 0x1000046C0, symSize: 0x54 }
  - { offsetInCU: 0x24C13, offset: 0x24C13, size: 0x8, addend: 0x0, symName: __ZNSt3__120__throw_length_errorB8ue170006EPKc, symObjAddr: 0x18C0, symBinAddr: 0x1000047A0, symSize: 0x64 }
  - { offsetInCU: 0x24C3D, offset: 0x24C3D, size: 0x8, addend: 0x0, symName: __ZNSt3__117__libcpp_allocateB8ue170006Emm, symObjAddr: 0x1A34, symBinAddr: 0x100004914, symSize: 0x60 }
  - { offsetInCU: 0x24C97, offset: 0x24C97, size: 0x8, addend: 0x0, symName: __ZNSt3__124__is_overaligned_for_newB8ue170006Em, symObjAddr: 0x1A94, symBinAddr: 0x100004974, symSize: 0x20 }
  - { offsetInCU: 0x24CC5, offset: 0x24CC5, size: 0x8, addend: 0x0, symName: __ZNSt3__121__libcpp_operator_newB8ue170006IJmSt11align_val_tEEEPvDpT_, symObjAddr: 0x1AB4, symBinAddr: 0x100004994, symSize: 0x2C }
  - { offsetInCU: 0x24D12, offset: 0x24D12, size: 0x8, addend: 0x0, symName: __ZNSt3__121__libcpp_operator_newB8ue170006IJmEEEPvDpT_, symObjAddr: 0x1AE0, symBinAddr: 0x1000049C0, symSize: 0x24 }
  - { offsetInCU: 0x24D4B, offset: 0x24D4B, size: 0x8, addend: 0x0, symName: __ZNSt3__112__to_addressB8ue170006INS_12basic_stringIcNS_11char_traitsIcEENS_9allocatorIcEEEEEEPT_S8_, symObjAddr: 0x1BFC, symBinAddr: 0x100004ADC, symSize: 0x14 }
  - { offsetInCU: 0x24D80, offset: 0x24D80, size: 0x8, addend: 0x0, symName: __ZNSt3__130__uninitialized_allocator_copyB8ue170006INS_9allocatorINS_12basic_stringIcNS_11char_traitsIcEENS1_IcEEEEEEPKS6_S9_PS6_EET2_RT_T0_T1_SB_, symObjAddr: 0x1CAC, symBinAddr: 0x100004B8C, symSize: 0x80 }
  - { offsetInCU: 0x24E1D, offset: 0x24E1D, size: 0x8, addend: 0x0, symName: __ZNSt3__114__unwrap_rangeB8ue170006IPKNS_12basic_stringIcNS_11char_traitsIcEENS_9allocatorIcEEEES8_EENS_4pairIT0_SA_EET_SC_, symObjAddr: 0x1DA4, symBinAddr: 0x100004C84, symSize: 0x60 }
  - { offsetInCU: 0x24E69, offset: 0x24E69, size: 0x8, addend: 0x0, symName: __ZNSt3__135__uninitialized_allocator_copy_implB8ue170006INS_9allocatorINS_12basic_stringIcNS_11char_traitsIcEENS1_IcEEEEEEPKS6_S9_PS6_EET2_RT_T0_T1_SB_, symObjAddr: 0x1E04, symBinAddr: 0x100004CE4, symSize: 0xF4 }
  - { offsetInCU: 0x24F07, offset: 0x24F07, size: 0x8, addend: 0x0, symName: __ZNSt3__113__unwrap_iterB8ue170006IPNS_12basic_stringIcNS_11char_traitsIcEENS_9allocatorIcEEEENS_18__unwrap_iter_implIS7_Lb1EEELi0EEEDTclsrT0_8__unwrapclsr3stdE7declvalIT_EEEESB_, symObjAddr: 0x1EF8, symBinAddr: 0x100004DD8, symSize: 0x24 }
  - { offsetInCU: 0x24F4B, offset: 0x24F4B, size: 0x8, addend: 0x0, symName: __ZNSt3__113__rewrap_iterB8ue170006IPNS_12basic_stringIcNS_11char_traitsIcEENS_9allocatorIcEEEES7_NS_18__unwrap_iter_implIS7_Lb1EEEEET_SA_T0_, symObjAddr: 0x1F1C, symBinAddr: 0x100004DFC, symSize: 0x3C }
  - { offsetInCU: 0x24FA0, offset: 0x24FA0, size: 0x8, addend: 0x0, symName: __ZNSt3__19make_pairB8ue170006IPKNS_12basic_stringIcNS_11char_traitsIcEENS_9allocatorIcEEEES8_EENS_4pairINS_18__unwrap_ref_decayIT_E4typeENSA_IT0_E4typeEEEOSB_OSE_, symObjAddr: 0x1F58, symBinAddr: 0x100004E38, symSize: 0x38 }
  - { offsetInCU: 0x24FEF, offset: 0x24FEF, size: 0x8, addend: 0x0, symName: __ZNSt3__113__unwrap_iterB8ue170006IPKNS_12basic_stringIcNS_11char_traitsIcEENS_9allocatorIcEEEENS_18__unwrap_iter_implIS8_Lb1EEELi0EEEDTclsrT0_8__unwrapclsr3stdE7declvalIT_EEEESC_, symObjAddr: 0x1F90, symBinAddr: 0x100004E70, symSize: 0x24 }
  - { offsetInCU: 0x2515A, offset: 0x2515A, size: 0x8, addend: 0x0, symName: __ZNSt3__112__to_addressB8ue170006IKNS_12basic_stringIcNS_11char_traitsIcEENS_9allocatorIcEEEEEEPT_S9_, symObjAddr: 0x2048, symBinAddr: 0x100004F28, symSize: 0x14 }
  - { offsetInCU: 0x2518F, offset: 0x2518F, size: 0x8, addend: 0x0, symName: __ZNSt3__122__make_exception_guardB8ue170006INS_29_AllocatorDestroyRangeReverseINS_9allocatorINS_12basic_stringIcNS_11char_traitsIcEENS2_IcEEEEEEPS7_EEEENS_28__exception_guard_exceptionsIT_EESC_, symObjAddr: 0x205C, symBinAddr: 0x100004F3C, symSize: 0x4C }
  - { offsetInCU: 0x251C5, offset: 0x251C5, size: 0x8, addend: 0x0, symName: __ZNSt3__119__allocator_destroyB8ue170006INS_9allocatorINS_12basic_stringIcNS_11char_traitsIcEENS1_IcEEEEEENS_16reverse_iteratorIPS6_EESA_EEvRT_T0_T1_, symObjAddr: 0x22EC, symBinAddr: 0x1000051CC, symSize: 0x70 }
  - { offsetInCU: 0x25228, offset: 0x25228, size: 0x8, addend: 0x0, symName: __ZNSt3__1neB8ue170006IPNS_12basic_stringIcNS_11char_traitsIcEENS_9allocatorIcEEEES7_EEbRKNS_16reverse_iteratorIT_EERKNS8_IT0_EE, symObjAddr: 0x2390, symBinAddr: 0x100005270, symSize: 0x48 }
  - { offsetInCU: 0x25274, offset: 0x25274, size: 0x8, addend: 0x0, symName: __ZNSt3__112__to_addressB8ue170006INS_16reverse_iteratorIPNS_12basic_stringIcNS_11char_traitsIcEENS_9allocatorIcEEEEEEvEEu7__decayIDTclsr19__to_address_helperIT_EE6__callclsr3stdE7declvalIRKSA_EEEEESC_, symObjAddr: 0x2404, symBinAddr: 0x1000052E4, symSize: 0x24 }
  - { offsetInCU: 0x25326, offset: 0x25326, size: 0x8, addend: 0x0, symName: __ZNSt3__119__libcpp_deallocateB8ue170006EPvmm, symObjAddr: 0x28D8, symBinAddr: 0x1000057B8, symSize: 0x60 }
  - { offsetInCU: 0x2538B, offset: 0x2538B, size: 0x8, addend: 0x0, symName: __ZNSt3__127__do_deallocate_handle_sizeB8ue170006IJSt11align_val_tEEEvPvmDpT_, symObjAddr: 0x2938, symBinAddr: 0x100005818, symSize: 0x30 }
  - { offsetInCU: 0x253DE, offset: 0x253DE, size: 0x8, addend: 0x0, symName: __ZNSt3__127__do_deallocate_handle_sizeB8ue170006IJEEEvPvmDpT_, symObjAddr: 0x2968, symBinAddr: 0x100005848, symSize: 0x28 }
  - { offsetInCU: 0x2541C, offset: 0x2541C, size: 0x8, addend: 0x0, symName: __ZNSt3__124__libcpp_operator_deleteB8ue170006IJPvSt11align_val_tEEEvDpT_, symObjAddr: 0x2990, symBinAddr: 0x100005870, symSize: 0x2C }
  - { offsetInCU: 0x25465, offset: 0x25465, size: 0x8, addend: 0x0, symName: __ZNSt3__124__libcpp_operator_deleteB8ue170006IJPvEEEvDpT_, symObjAddr: 0x29BC, symBinAddr: 0x10000589C, symSize: 0x24 }
  - { offsetInCU: 0x2549A, offset: 0x2549A, size: 0x8, addend: 0x0, symName: __ZNSt3__112__to_addressB8ue170006INS_8functionIFNS_10unique_ptrI12FruitToppingNS_14default_deleteIS3_EEEEvEEEEEPT_SA_, symObjAddr: 0x33B0, symBinAddr: 0x100006290, symSize: 0x14 }
  - { offsetInCU: 0x254CF, offset: 0x254CF, size: 0x8, addend: 0x0, symName: __ZNSt3__13maxB8ue170006ImEERKT_S3_S3_, symObjAddr: 0x3954, symBinAddr: 0x100006834, symSize: 0x2C }
  - { offsetInCU: 0x25512, offset: 0x25512, size: 0x8, addend: 0x0, symName: __ZNSt3__13maxB8ue170006ImNS_6__lessIvvEEEERKT_S5_S5_T0_, symObjAddr: 0x3A78, symBinAddr: 0x100006958, symSize: 0x54 }
  - { offsetInCU: 0x2556C, offset: 0x2556C, size: 0x8, addend: 0x0, symName: __ZNSt3__119__allocate_at_leastB8ue170006INS_9allocatorINS_8functionIFNS_10unique_ptrI12FruitToppingNS_14default_deleteIS4_EEEEvEEEEEEENS_19__allocation_resultINS_16allocator_traitsIT_E7pointerEEERSD_m, symObjAddr: 0x3BDC, symBinAddr: 0x100006ABC, symSize: 0x40 }
  - { offsetInCU: 0x255AF, offset: 0x255AF, size: 0x8, addend: 0x0, symName: __ZNSt3__142__uninitialized_allocator_move_if_noexceptB8ue170006INS_9allocatorINS_8functionIFNS_10unique_ptrI12FruitToppingNS_14default_deleteIS4_EEEEvEEEEENS_16reverse_iteratorIPS9_EESD_SD_EET2_RT_T0_T1_SE_, symObjAddr: 0x3E48, symBinAddr: 0x100006D28, symSize: 0x12C }
  - { offsetInCU: 0x2564F, offset: 0x2564F, size: 0x8, addend: 0x0, symName: __ZNSt3__14swapB8ue170006IPNS_8functionIFNS_10unique_ptrI12FruitToppingNS_14default_deleteIS3_EEEEvEEEEENS_9enable_ifIXaasr21is_move_constructibleIT_EE5valuesr18is_move_assignableISB_EE5valueEvE4typeERSB_SE_, symObjAddr: 0x3FC0, symBinAddr: 0x100006EA0, symSize: 0x3C }
  - { offsetInCU: 0x256A0, offset: 0x256A0, size: 0x8, addend: 0x0, symName: __ZNSt3__122__make_exception_guardB8ue170006INS_29_AllocatorDestroyRangeReverseINS_9allocatorINS_8functionIFNS_10unique_ptrI12FruitToppingNS_14default_deleteIS5_EEEEvEEEEENS_16reverse_iteratorIPSA_EEEEEENS_28__exception_guard_exceptionsIT_EESH_, symObjAddr: 0x40F0, symBinAddr: 0x100006FD0, symSize: 0x4C }
  - { offsetInCU: 0x256D6, offset: 0x256D6, size: 0x8, addend: 0x0, symName: __ZNSt3__1neB8ue170006IPNS_8functionIFNS_10unique_ptrI12FruitToppingNS_14default_deleteIS3_EEEEvEEES9_EEbRKNS_16reverse_iteratorIT_EERKNSA_IT0_EE, symObjAddr: 0x4180, symBinAddr: 0x100007060, symSize: 0x48 }
  - { offsetInCU: 0x25722, offset: 0x25722, size: 0x8, addend: 0x0, symName: __ZNSt3__112__to_addressB8ue170006INS_16reverse_iteratorIPNS_8functionIFNS_10unique_ptrI12FruitToppingNS_14default_deleteIS4_EEEEvEEEEEvEEu7__decayIDTclsr19__to_address_helperIT_EE6__callclsr3stdE7declvalIRKSC_EEEEESE_, symObjAddr: 0x41C8, symBinAddr: 0x1000070A8, symSize: 0x24 }
  - { offsetInCU: 0x25781, offset: 0x25781, size: 0x8, addend: 0x0, symName: __ZNSt3__119__allocator_destroyB8ue170006INS_9allocatorINS_8functionIFNS_10unique_ptrI12FruitToppingNS_14default_deleteIS4_EEEEvEEEEENS_16reverse_iteratorINSB_IPS9_EEEESE_EEvRT_T0_T1_, symObjAddr: 0x4478, symBinAddr: 0x100007358, symSize: 0x70 }
  - { offsetInCU: 0x257E6, offset: 0x257E6, size: 0x8, addend: 0x0, symName: __ZNSt3__1neB8ue170006INS_16reverse_iteratorIPNS_8functionIFNS_10unique_ptrI12FruitToppingNS_14default_deleteIS4_EEEEvEEEEESB_EEbRKNS1_IT_EERKNS1_IT0_EE, symObjAddr: 0x4524, symBinAddr: 0x100007404, symSize: 0x60 }
  - { offsetInCU: 0x25832, offset: 0x25832, size: 0x8, addend: 0x0, symName: __ZNSt3__112__to_addressB8ue170006INS_16reverse_iteratorINS1_IPNS_8functionIFNS_10unique_ptrI12FruitToppingNS_14default_deleteIS4_EEEEvEEEEEEEvEEu7__decayIDTclsr19__to_address_helperIT_EE6__callclsr3stdE7declvalIRKSD_EEEEESF_, symObjAddr: 0x45B0, symBinAddr: 0x100007490, symSize: 0x24 }
  - { offsetInCU: 0x259F4, offset: 0x259F4, size: 0x8, addend: 0x0, symName: __ZNSt3__116forward_as_tupleB8ue170006IJZN11ToppingListC1EvEUlvE_EEENS_5tupleIJDpOT_EEES6_, symObjAddr: 0x50F0, symBinAddr: 0x100007FD0, symSize: 0x2C }
  - { offsetInCU: 0x25A2D, offset: 0x25A2D, size: 0x8, addend: 0x0, symName: __ZNSt3__116forward_as_tupleB8ue170006IJNS_9allocatorIZN11ToppingListC1EvEUlvE_EEEEENS_5tupleIJDpOT_EEES8_, symObjAddr: 0x511C, symBinAddr: 0x100007FFC, symSize: 0x2C }
  - { offsetInCU: 0x25AAA, offset: 0x25AAA, size: 0x8, addend: 0x0, symName: __ZNSt3__13getB8ue170006ILm0EJOZN11ToppingListC1EvEUlvE_EEERNS_13tuple_elementIXT_ENS_5tupleIJDpT0_EEEE4typeERS8_, symObjAddr: 0x5428, symBinAddr: 0x100008308, symSize: 0x24 }
  - { offsetInCU: 0x25AEC, offset: 0x25AEC, size: 0x8, addend: 0x0, symName: __ZNSt3__13getB8ue170006ILm0EJONS_9allocatorIZN11ToppingListC1EvEUlvE_EEEEERNS_13tuple_elementIXT_ENS_5tupleIJDpT0_EEEE4typeERSA_, symObjAddr: 0x5464, symBinAddr: 0x100008344, symSize: 0x24 }
  - { offsetInCU: 0x26012, offset: 0x26012, size: 0x8, addend: 0x0, symName: __ZNSt3__116forward_as_tupleB8ue170006IJRKZN11ToppingListC1EvEUlvE_EEENS_5tupleIJDpOT_EEES8_, symObjAddr: 0x59F8, symBinAddr: 0x1000088D8, symSize: 0x2C }
  - { offsetInCU: 0x26060, offset: 0x26060, size: 0x8, addend: 0x0, symName: __ZNSt3__13getB8ue170006ILm0EJRKZN11ToppingListC1EvEUlvE_EEERNS_13tuple_elementIXT_ENS_5tupleIJDpT0_EEEE4typeERS9_, symObjAddr: 0x5BDC, symBinAddr: 0x100008ABC, symSize: 0x24 }
  - { offsetInCU: 0x260A2, offset: 0x260A2, size: 0x8, addend: 0x0, symName: __ZNSt3__116forward_as_tupleB8ue170006IJRKNS_9allocatorIZN11ToppingListC1EvEUlvE_EEEEENS_5tupleIJDpOT_EEESA_, symObjAddr: 0x5F38, symBinAddr: 0x100008E18, symSize: 0x2C }
  - { offsetInCU: 0x260F0, offset: 0x260F0, size: 0x8, addend: 0x0, symName: __ZNSt3__13getB8ue170006ILm0EJRKNS_9allocatorIZN11ToppingListC1EvEUlvE_EEEEERNS_13tuple_elementIXT_ENS_5tupleIJDpT0_EEEE4typeERSB_, symObjAddr: 0x611C, symBinAddr: 0x100008FFC, symSize: 0x24 }
  - { offsetInCU: 0x2618E, offset: 0x2618E, size: 0x8, addend: 0x0, symName: __ZNSt3__18__invokeB8ue170006IRZN11ToppingListC1EvEUlvE_JEEEDTclclsr3stdE7declvalIT_EEspclsr3stdE7declvalIT0_EEEEOS4_DpOS5_, symObjAddr: 0x61EC, symBinAddr: 0x1000090CC, symSize: 0x2C }
  - { offsetInCU: 0x261EA, offset: 0x261EA, size: 0x8, addend: 0x0, symName: __ZNSt3__111make_uniqueB8ue170006I12FruitToppingJRA7_KciEEENS_11__unique_ifIT_E15__unique_singleEDpOT0_, symObjAddr: 0x6254, symBinAddr: 0x100009134, symSize: 0xDC }
  - { offsetInCU: 0x263A3, offset: 0x263A3, size: 0x8, addend: 0x0, symName: __ZNSt3__116forward_as_tupleB8ue170006IJZN11ToppingListC1EvEUlvE0_EEENS_5tupleIJDpOT_EEES6_, symObjAddr: 0x704C, symBinAddr: 0x100009F2C, symSize: 0x2C }
  - { offsetInCU: 0x263DC, offset: 0x263DC, size: 0x8, addend: 0x0, symName: __ZNSt3__116forward_as_tupleB8ue170006IJNS_9allocatorIZN11ToppingListC1EvEUlvE0_EEEEENS_5tupleIJDpOT_EEES8_, symObjAddr: 0x7078, symBinAddr: 0x100009F58, symSize: 0x2C }
  - { offsetInCU: 0x2643F, offset: 0x2643F, size: 0x8, addend: 0x0, symName: __ZNSt3__13getB8ue170006ILm0EJOZN11ToppingListC1EvEUlvE0_EEERNS_13tuple_elementIXT_ENS_5tupleIJDpT0_EEEE4typeERS8_, symObjAddr: 0x7384, symBinAddr: 0x10000A264, symSize: 0x24 }
  - { offsetInCU: 0x26481, offset: 0x26481, size: 0x8, addend: 0x0, symName: __ZNSt3__13getB8ue170006ILm0EJONS_9allocatorIZN11ToppingListC1EvEUlvE0_EEEEERNS_13tuple_elementIXT_ENS_5tupleIJDpT0_EEEE4typeERSA_, symObjAddr: 0x73C0, symBinAddr: 0x10000A2A0, symSize: 0x24 }
  - { offsetInCU: 0x269A7, offset: 0x269A7, size: 0x8, addend: 0x0, symName: __ZNSt3__116forward_as_tupleB8ue170006IJRKZN11ToppingListC1EvEUlvE0_EEENS_5tupleIJDpOT_EEES8_, symObjAddr: 0x7954, symBinAddr: 0x10000A834, symSize: 0x2C }
  - { offsetInCU: 0x269F5, offset: 0x269F5, size: 0x8, addend: 0x0, symName: __ZNSt3__13getB8ue170006ILm0EJRKZN11ToppingListC1EvEUlvE0_EEERNS_13tuple_elementIXT_ENS_5tupleIJDpT0_EEEE4typeERS9_, symObjAddr: 0x7B38, symBinAddr: 0x10000AA18, symSize: 0x24 }
  - { offsetInCU: 0x26A37, offset: 0x26A37, size: 0x8, addend: 0x0, symName: __ZNSt3__116forward_as_tupleB8ue170006IJRKNS_9allocatorIZN11ToppingListC1EvEUlvE0_EEEEENS_5tupleIJDpOT_EEESA_, symObjAddr: 0x7E94, symBinAddr: 0x10000AD74, symSize: 0x2C }
  - { offsetInCU: 0x26A85, offset: 0x26A85, size: 0x8, addend: 0x0, symName: __ZNSt3__13getB8ue170006ILm0EJRKNS_9allocatorIZN11ToppingListC1EvEUlvE0_EEEEERNS_13tuple_elementIXT_ENS_5tupleIJDpT0_EEEE4typeERSB_, symObjAddr: 0x8078, symBinAddr: 0x10000AF58, symSize: 0x24 }
  - { offsetInCU: 0x26AC7, offset: 0x26AC7, size: 0x8, addend: 0x0, symName: __ZNSt3__18__invokeB8ue170006IRZN11ToppingListC1EvEUlvE0_JEEEDTclclsr3stdE7declvalIT_EEspclsr3stdE7declvalIT0_EEEEOS4_DpOS5_, symObjAddr: 0x8148, symBinAddr: 0x10000B028, symSize: 0x2C }
  - { offsetInCU: 0x26B03, offset: 0x26B03, size: 0x8, addend: 0x0, symName: __ZNSt3__112__to_addressB8ue170006INS_8functionIFNS_10unique_ptrI12SweetToppingNS_14default_deleteIS3_EEEEvEEEEEPT_SA_, symObjAddr: 0x8424, symBinAddr: 0x10000B304, symSize: 0x14 }
  - { offsetInCU: 0x26B38, offset: 0x26B38, size: 0x8, addend: 0x0, symName: __ZNSt3__119__allocate_at_leastB8ue170006INS_9allocatorINS_8functionIFNS_10unique_ptrI12SweetToppingNS_14default_deleteIS4_EEEEvEEEEEEENS_19__allocation_resultINS_16allocator_traitsIT_E7pointerEEERSD_m, symObjAddr: 0x8BD0, symBinAddr: 0x10000BAB0, symSize: 0x40 }
  - { offsetInCU: 0x26B7B, offset: 0x26B7B, size: 0x8, addend: 0x0, symName: __ZNSt3__142__uninitialized_allocator_move_if_noexceptB8ue170006INS_9allocatorINS_8functionIFNS_10unique_ptrI12SweetToppingNS_14default_deleteIS4_EEEEvEEEEENS_16reverse_iteratorIPS9_EESD_SD_EET2_RT_T0_T1_SE_, symObjAddr: 0x8E3C, symBinAddr: 0x10000BD1C, symSize: 0x12C }
  - { offsetInCU: 0x26C1B, offset: 0x26C1B, size: 0x8, addend: 0x0, symName: __ZNSt3__14swapB8ue170006IPNS_8functionIFNS_10unique_ptrI12SweetToppingNS_14default_deleteIS3_EEEEvEEEEENS_9enable_ifIXaasr21is_move_constructibleIT_EE5valuesr18is_move_assignableISB_EE5valueEvE4typeERSB_SE_, symObjAddr: 0x8FB4, symBinAddr: 0x10000BE94, symSize: 0x3C }
  - { offsetInCU: 0x26C6C, offset: 0x26C6C, size: 0x8, addend: 0x0, symName: __ZNSt3__122__make_exception_guardB8ue170006INS_29_AllocatorDestroyRangeReverseINS_9allocatorINS_8functionIFNS_10unique_ptrI12SweetToppingNS_14default_deleteIS5_EEEEvEEEEENS_16reverse_iteratorIPSA_EEEEEENS_28__exception_guard_exceptionsIT_EESH_, symObjAddr: 0x90E4, symBinAddr: 0x10000BFC4, symSize: 0x4C }
  - { offsetInCU: 0x26CA2, offset: 0x26CA2, size: 0x8, addend: 0x0, symName: __ZNSt3__1neB8ue170006IPNS_8functionIFNS_10unique_ptrI12SweetToppingNS_14default_deleteIS3_EEEEvEEES9_EEbRKNS_16reverse_iteratorIT_EERKNSA_IT0_EE, symObjAddr: 0x9174, symBinAddr: 0x10000C054, symSize: 0x48 }
  - { offsetInCU: 0x26CEE, offset: 0x26CEE, size: 0x8, addend: 0x0, symName: __ZNSt3__112__to_addressB8ue170006INS_16reverse_iteratorIPNS_8functionIFNS_10unique_ptrI12SweetToppingNS_14default_deleteIS4_EEEEvEEEEEvEEu7__decayIDTclsr19__to_address_helperIT_EE6__callclsr3stdE7declvalIRKSC_EEEEESE_, symObjAddr: 0x91BC, symBinAddr: 0x10000C09C, symSize: 0x24 }
  - { offsetInCU: 0x26D4D, offset: 0x26D4D, size: 0x8, addend: 0x0, symName: __ZNSt3__119__allocator_destroyB8ue170006INS_9allocatorINS_8functionIFNS_10unique_ptrI12SweetToppingNS_14default_deleteIS4_EEEEvEEEEENS_16reverse_iteratorINSB_IPS9_EEEESE_EEvRT_T0_T1_, symObjAddr: 0x946C, symBinAddr: 0x10000C34C, symSize: 0x70 }
  - { offsetInCU: 0x26DB2, offset: 0x26DB2, size: 0x8, addend: 0x0, symName: __ZNSt3__1neB8ue170006INS_16reverse_iteratorIPNS_8functionIFNS_10unique_ptrI12SweetToppingNS_14default_deleteIS4_EEEEvEEEEESB_EEbRKNS1_IT_EERKNS1_IT0_EE, symObjAddr: 0x9518, symBinAddr: 0x10000C3F8, symSize: 0x60 }
  - { offsetInCU: 0x26DFE, offset: 0x26DFE, size: 0x8, addend: 0x0, symName: __ZNSt3__112__to_addressB8ue170006INS_16reverse_iteratorINS1_IPNS_8functionIFNS_10unique_ptrI12SweetToppingNS_14default_deleteIS4_EEEEvEEEEEEEvEEu7__decayIDTclsr19__to_address_helperIT_EE6__callclsr3stdE7declvalIRKSD_EEEEESF_, symObjAddr: 0x95A4, symBinAddr: 0x10000C484, symSize: 0x24 }
  - { offsetInCU: 0x26FC0, offset: 0x26FC0, size: 0x8, addend: 0x0, symName: __ZNSt3__116forward_as_tupleB8ue170006IJZN11ToppingListC1EvEUlvE1_EEENS_5tupleIJDpOT_EEES6_, symObjAddr: 0xA0E4, symBinAddr: 0x10000CFC4, symSize: 0x2C }
  - { offsetInCU: 0x26FF9, offset: 0x26FF9, size: 0x8, addend: 0x0, symName: __ZNSt3__116forward_as_tupleB8ue170006IJNS_9allocatorIZN11ToppingListC1EvEUlvE1_EEEEENS_5tupleIJDpOT_EEES8_, symObjAddr: 0xA110, symBinAddr: 0x10000CFF0, symSize: 0x2C }
  - { offsetInCU: 0x2705C, offset: 0x2705C, size: 0x8, addend: 0x0, symName: __ZNSt3__13getB8ue170006ILm0EJOZN11ToppingListC1EvEUlvE1_EEERNS_13tuple_elementIXT_ENS_5tupleIJDpT0_EEEE4typeERS8_, symObjAddr: 0xA41C, symBinAddr: 0x10000D2FC, symSize: 0x24 }
  - { offsetInCU: 0x2709E, offset: 0x2709E, size: 0x8, addend: 0x0, symName: __ZNSt3__13getB8ue170006ILm0EJONS_9allocatorIZN11ToppingListC1EvEUlvE1_EEEEERNS_13tuple_elementIXT_ENS_5tupleIJDpT0_EEEE4typeERSA_, symObjAddr: 0xA458, symBinAddr: 0x10000D338, symSize: 0x24 }
  - { offsetInCU: 0x275C4, offset: 0x275C4, size: 0x8, addend: 0x0, symName: __ZNSt3__116forward_as_tupleB8ue170006IJRKZN11ToppingListC1EvEUlvE1_EEENS_5tupleIJDpOT_EEES8_, symObjAddr: 0xA9EC, symBinAddr: 0x10000D8CC, symSize: 0x2C }
  - { offsetInCU: 0x27612, offset: 0x27612, size: 0x8, addend: 0x0, symName: __ZNSt3__13getB8ue170006ILm0EJRKZN11ToppingListC1EvEUlvE1_EEERNS_13tuple_elementIXT_ENS_5tupleIJDpT0_EEEE4typeERS9_, symObjAddr: 0xABD0, symBinAddr: 0x10000DAB0, symSize: 0x24 }
  - { offsetInCU: 0x27654, offset: 0x27654, size: 0x8, addend: 0x0, symName: __ZNSt3__116forward_as_tupleB8ue170006IJRKNS_9allocatorIZN11ToppingListC1EvEUlvE1_EEEEENS_5tupleIJDpOT_EEESA_, symObjAddr: 0xAF2C, symBinAddr: 0x10000DE0C, symSize: 0x2C }
  - { offsetInCU: 0x276A2, offset: 0x276A2, size: 0x8, addend: 0x0, symName: __ZNSt3__13getB8ue170006ILm0EJRKNS_9allocatorIZN11ToppingListC1EvEUlvE1_EEEEERNS_13tuple_elementIXT_ENS_5tupleIJDpT0_EEEE4typeERSB_, symObjAddr: 0xB110, symBinAddr: 0x10000DFF0, symSize: 0x24 }
  - { offsetInCU: 0x27761, offset: 0x27761, size: 0x8, addend: 0x0, symName: __ZNSt3__18__invokeB8ue170006IRZN11ToppingListC1EvEUlvE1_JEEEDTclclsr3stdE7declvalIT_EEspclsr3stdE7declvalIT0_EEEEOS4_DpOS5_, symObjAddr: 0xB1E0, symBinAddr: 0x10000E0C0, symSize: 0x2C }
  - { offsetInCU: 0x277BD, offset: 0x277BD, size: 0x8, addend: 0x0, symName: __ZNSt3__111make_uniqueB8ue170006I12SweetToppingJRA12_KciEEENS_11__unique_ifIT_E15__unique_singleEDpOT0_, symObjAddr: 0xB248, symBinAddr: 0x10000E128, symSize: 0xDC }
  - { offsetInCU: 0x27976, offset: 0x27976, size: 0x8, addend: 0x0, symName: __ZNSt3__116forward_as_tupleB8ue170006IJZN11ToppingListC1EvEUlvE2_EEENS_5tupleIJDpOT_EEES6_, symObjAddr: 0xBE14, symBinAddr: 0x10000ECF4, symSize: 0x2C }
  - { offsetInCU: 0x279AF, offset: 0x279AF, size: 0x8, addend: 0x0, symName: __ZNSt3__116forward_as_tupleB8ue170006IJNS_9allocatorIZN11ToppingListC1EvEUlvE2_EEEEENS_5tupleIJDpOT_EEES8_, symObjAddr: 0xBE40, symBinAddr: 0x10000ED20, symSize: 0x2C }
  - { offsetInCU: 0x27A12, offset: 0x27A12, size: 0x8, addend: 0x0, symName: __ZNSt3__13getB8ue170006ILm0EJOZN11ToppingListC1EvEUlvE2_EEERNS_13tuple_elementIXT_ENS_5tupleIJDpT0_EEEE4typeERS8_, symObjAddr: 0xC14C, symBinAddr: 0x10000F02C, symSize: 0x24 }
  - { offsetInCU: 0x27A54, offset: 0x27A54, size: 0x8, addend: 0x0, symName: __ZNSt3__13getB8ue170006ILm0EJONS_9allocatorIZN11ToppingListC1EvEUlvE2_EEEEERNS_13tuple_elementIXT_ENS_5tupleIJDpT0_EEEE4typeERSA_, symObjAddr: 0xC188, symBinAddr: 0x10000F068, symSize: 0x24 }
  - { offsetInCU: 0x27F7A, offset: 0x27F7A, size: 0x8, addend: 0x0, symName: __ZNSt3__116forward_as_tupleB8ue170006IJRKZN11ToppingListC1EvEUlvE2_EEENS_5tupleIJDpOT_EEES8_, symObjAddr: 0xC71C, symBinAddr: 0x10000F5FC, symSize: 0x2C }
  - { offsetInCU: 0x27FC8, offset: 0x27FC8, size: 0x8, addend: 0x0, symName: __ZNSt3__13getB8ue170006ILm0EJRKZN11ToppingListC1EvEUlvE2_EEERNS_13tuple_elementIXT_ENS_5tupleIJDpT0_EEEE4typeERS9_, symObjAddr: 0xC900, symBinAddr: 0x10000F7E0, symSize: 0x24 }
  - { offsetInCU: 0x2800A, offset: 0x2800A, size: 0x8, addend: 0x0, symName: __ZNSt3__116forward_as_tupleB8ue170006IJRKNS_9allocatorIZN11ToppingListC1EvEUlvE2_EEEEENS_5tupleIJDpOT_EEESA_, symObjAddr: 0xCC5C, symBinAddr: 0x10000FB3C, symSize: 0x2C }
  - { offsetInCU: 0x28058, offset: 0x28058, size: 0x8, addend: 0x0, symName: __ZNSt3__13getB8ue170006ILm0EJRKNS_9allocatorIZN11ToppingListC1EvEUlvE2_EEEEERNS_13tuple_elementIXT_ENS_5tupleIJDpT0_EEEE4typeERSB_, symObjAddr: 0xCE40, symBinAddr: 0x10000FD20, symSize: 0x24 }
  - { offsetInCU: 0x2809A, offset: 0x2809A, size: 0x8, addend: 0x0, symName: __ZNSt3__18__invokeB8ue170006IRZN11ToppingListC1EvEUlvE2_JEEEDTclclsr3stdE7declvalIT_EEspclsr3stdE7declvalIT0_EEEEOS4_DpOS5_, symObjAddr: 0xCF10, symBinAddr: 0x10000FDF0, symSize: 0x2C }
  - { offsetInCU: 0x280D6, offset: 0x280D6, size: 0x8, addend: 0x0, symName: __ZNSt3__111make_uniqueB8ue170006I12SweetToppingJRA10_KciEEENS_11__unique_ifIT_E15__unique_singleEDpOT0_, symObjAddr: 0xCF78, symBinAddr: 0x10000FE58, symSize: 0xDC }
  - { offsetInCU: 0x2828F, offset: 0x2828F, size: 0x8, addend: 0x0, symName: __ZNSt3__116forward_as_tupleB8ue170006IJZN11ToppingListC1EvEUlvE3_EEENS_5tupleIJDpOT_EEES6_, symObjAddr: 0xD74C, symBinAddr: 0x10001062C, symSize: 0x2C }
  - { offsetInCU: 0x282C8, offset: 0x282C8, size: 0x8, addend: 0x0, symName: __ZNSt3__116forward_as_tupleB8ue170006IJNS_9allocatorIZN11ToppingListC1EvEUlvE3_EEEEENS_5tupleIJDpOT_EEES8_, symObjAddr: 0xD778, symBinAddr: 0x100010658, symSize: 0x2C }
  - { offsetInCU: 0x2832B, offset: 0x2832B, size: 0x8, addend: 0x0, symName: __ZNSt3__13getB8ue170006ILm0EJOZN11ToppingListC1EvEUlvE3_EEERNS_13tuple_elementIXT_ENS_5tupleIJDpT0_EEEE4typeERS8_, symObjAddr: 0xDA84, symBinAddr: 0x100010964, symSize: 0x24 }
  - { offsetInCU: 0x2836D, offset: 0x2836D, size: 0x8, addend: 0x0, symName: __ZNSt3__13getB8ue170006ILm0EJONS_9allocatorIZN11ToppingListC1EvEUlvE3_EEEEERNS_13tuple_elementIXT_ENS_5tupleIJDpT0_EEEE4typeERSA_, symObjAddr: 0xDAC0, symBinAddr: 0x1000109A0, symSize: 0x24 }
  - { offsetInCU: 0x28893, offset: 0x28893, size: 0x8, addend: 0x0, symName: __ZNSt3__116forward_as_tupleB8ue170006IJRKZN11ToppingListC1EvEUlvE3_EEENS_5tupleIJDpOT_EEES8_, symObjAddr: 0xE054, symBinAddr: 0x100010F34, symSize: 0x2C }
  - { offsetInCU: 0x288E1, offset: 0x288E1, size: 0x8, addend: 0x0, symName: __ZNSt3__13getB8ue170006ILm0EJRKZN11ToppingListC1EvEUlvE3_EEERNS_13tuple_elementIXT_ENS_5tupleIJDpT0_EEEE4typeERS9_, symObjAddr: 0xE238, symBinAddr: 0x100011118, symSize: 0x24 }
  - { offsetInCU: 0x28923, offset: 0x28923, size: 0x8, addend: 0x0, symName: __ZNSt3__116forward_as_tupleB8ue170006IJRKNS_9allocatorIZN11ToppingListC1EvEUlvE3_EEEEENS_5tupleIJDpOT_EEESA_, symObjAddr: 0xE594, symBinAddr: 0x100011474, symSize: 0x2C }
  - { offsetInCU: 0x28971, offset: 0x28971, size: 0x8, addend: 0x0, symName: __ZNSt3__13getB8ue170006ILm0EJRKNS_9allocatorIZN11ToppingListC1EvEUlvE3_EEEEERNS_13tuple_elementIXT_ENS_5tupleIJDpT0_EEEE4typeERSB_, symObjAddr: 0xE778, symBinAddr: 0x100011658, symSize: 0x24 }
  - { offsetInCU: 0x289B3, offset: 0x289B3, size: 0x8, addend: 0x0, symName: __ZNSt3__18__invokeB8ue170006IRZN11ToppingListC1EvEUlvE3_JEEEDTclclsr3stdE7declvalIT_EEspclsr3stdE7declvalIT0_EEEEOS4_DpOS5_, symObjAddr: 0xE848, symBinAddr: 0x100011728, symSize: 0x2C }
  - { offsetInCU: 0x289EF, offset: 0x289EF, size: 0x8, addend: 0x0, symName: __ZNSt3__111make_uniqueB8ue170006I12SweetToppingJRA6_KciEEENS_11__unique_ifIT_E15__unique_singleEDpOT0_, symObjAddr: 0xE8B0, symBinAddr: 0x100011790, symSize: 0xDC }
  - { offsetInCU: 0x29837, offset: 0x29837, size: 0x8, addend: 0x0, symName: __ZNSt3__1lsB8ue170006IcNS_11char_traitsIcEENS_9allocatorIcEEEERNS_13basic_ostreamIT_T0_EES9_RKNS_12basic_stringIS6_S7_T1_EE, symObjAddr: 0xF020, symBinAddr: 0x100011F00, symSize: 0x4C }
  - { offsetInCU: 0x2989A, offset: 0x2989A, size: 0x8, addend: 0x0, symName: __ZNSt3__112__to_addressB8ue170006IKcEEPT_S3_, symObjAddr: 0xF278, symBinAddr: 0x100012158, symSize: 0x14 }
  - { offsetInCU: 0x29902, offset: 0x29902, size: 0x8, addend: 0x0, symName: __ZNSt3__142__uninitialized_allocator_move_if_noexceptB8ue170006INS_9allocatorINS_12basic_stringIcNS_11char_traitsIcEENS1_IcEEEEEENS_16reverse_iteratorIPS6_EESA_SA_EET2_RT_T0_T1_SB_, symObjAddr: 0xFADC, symBinAddr: 0x1000129BC, symSize: 0x11C }
  - { offsetInCU: 0x299A2, offset: 0x299A2, size: 0x8, addend: 0x0, symName: __ZNSt3__14swapB8ue170006IPNS_12basic_stringIcNS_11char_traitsIcEENS_9allocatorIcEEEEEENS_9enable_ifIXaasr21is_move_constructibleIT_EE5valuesr18is_move_assignableIS9_EE5valueEvE4typeERS9_SC_, symObjAddr: 0xFBF8, symBinAddr: 0x100012AD8, symSize: 0x3C }
  - { offsetInCU: 0x299F3, offset: 0x299F3, size: 0x8, addend: 0x0, symName: __ZNSt3__122__make_exception_guardB8ue170006INS_29_AllocatorDestroyRangeReverseINS_9allocatorINS_12basic_stringIcNS_11char_traitsIcEENS2_IcEEEEEENS_16reverse_iteratorIPS7_EEEEEENS_28__exception_guard_exceptionsIT_EESE_, symObjAddr: 0xFC34, symBinAddr: 0x100012B14, symSize: 0x4C }
  - { offsetInCU: 0x29A29, offset: 0x29A29, size: 0x8, addend: 0x0, symName: __ZNSt3__119__allocator_destroyB8ue170006INS_9allocatorINS_12basic_stringIcNS_11char_traitsIcEENS1_IcEEEEEENS_16reverse_iteratorINS8_IPS6_EEEESB_EEvRT_T0_T1_, symObjAddr: 0x1000C, symBinAddr: 0x100012EEC, symSize: 0x70 }
  - { offsetInCU: 0x29A8E, offset: 0x29A8E, size: 0x8, addend: 0x0, symName: __ZNSt3__1neB8ue170006INS_16reverse_iteratorIPNS_12basic_stringIcNS_11char_traitsIcEENS_9allocatorIcEEEEEES9_EEbRKNS1_IT_EERKNS1_IT0_EE, symObjAddr: 0x100B8, symBinAddr: 0x100012F98, symSize: 0x60 }
  - { offsetInCU: 0x29ADA, offset: 0x29ADA, size: 0x8, addend: 0x0, symName: __ZNSt3__112__to_addressB8ue170006INS_16reverse_iteratorINS1_IPNS_12basic_stringIcNS_11char_traitsIcEENS_9allocatorIcEEEEEEEEvEEu7__decayIDTclsr19__to_address_helperIT_EE6__callclsr3stdE7declvalIRKSB_EEEEESD_, symObjAddr: 0x10118, symBinAddr: 0x100012FF8, symSize: 0x24 }
  - { offsetInCU: 0x29B39, offset: 0x29B39, size: 0x8, addend: 0x0, symName: __ZNSt3__116__pad_and_outputB8ue170006IcNS_11char_traitsIcEEEENS_19ostreambuf_iteratorIT_T0_EES6_PKS4_S8_S8_RNS_8ios_baseES4_, symObjAddr: 0x106E0, symBinAddr: 0x1000135C0, symSize: 0x240 }
  - { offsetInCU: 0x29C08, offset: 0x29C08, size: 0x8, addend: 0x0, symName: __ZNSt3__112__to_addressB8ue170006IcEEPT_S2_, symObjAddr: 0x10C1C, symBinAddr: 0x100013AFC, symSize: 0x14 }
  - { offsetInCU: 0x29C70, offset: 0x29C70, size: 0x8, addend: 0x0, symName: __ZNSt3__19use_facetB8ue170006INS_5ctypeIcEEEERKT_RKNS_6localeE, symObjAddr: 0x10E24, symBinAddr: 0x100013D04, symSize: 0x2C }
  - { offsetInCU: 0x2A13D, offset: 0x2A13D, size: 0x8, addend: 0x0, symName: __ZNSt3__130__uninitialized_allocator_copyB8ue170006INS_9allocatorINS_12basic_stringIcNS_11char_traitsIcEENS1_IcEEEEEEPS6_S8_S8_EET2_RT_T0_T1_S9_, symObjAddr: 0x11B88, symBinAddr: 0x100014A68, symSize: 0x80 }
  - { offsetInCU: 0x2A1DA, offset: 0x2A1DA, size: 0x8, addend: 0x0, symName: __ZNSt3__114__unwrap_rangeB8ue170006IPNS_12basic_stringIcNS_11char_traitsIcEENS_9allocatorIcEEEES7_EENS_4pairIT0_S9_EET_SB_, symObjAddr: 0x11C08, symBinAddr: 0x100014AE8, symSize: 0x60 }
  - { offsetInCU: 0x2A226, offset: 0x2A226, size: 0x8, addend: 0x0, symName: __ZNSt3__135__uninitialized_allocator_copy_implB8ue170006INS_9allocatorINS_12basic_stringIcNS_11char_traitsIcEENS1_IcEEEEEEPS6_S8_S8_EET2_RT_T0_T1_S9_, symObjAddr: 0x11C68, symBinAddr: 0x100014B48, symSize: 0xF4 }
  - { offsetInCU: 0x2A2C4, offset: 0x2A2C4, size: 0x8, addend: 0x0, symName: __ZNSt3__19make_pairB8ue170006IPNS_12basic_stringIcNS_11char_traitsIcEENS_9allocatorIcEEEES7_EENS_4pairINS_18__unwrap_ref_decayIT_E4typeENS9_IT0_E4typeEEEOSA_OSD_, symObjAddr: 0x11D5C, symBinAddr: 0x100014C3C, symSize: 0x38 }
  - { offsetInCU: 0x2A3E7, offset: 0x2A3E7, size: 0x8, addend: 0x0, symName: __ZNSt3__112__to_addressB8ue170006I8CustomerEEPT_S3_, symObjAddr: 0x121E0, symBinAddr: 0x1000150C0, symSize: 0x14 }
  - { offsetInCU: 0x2A41C, offset: 0x2A41C, size: 0x8, addend: 0x0, symName: __ZNSt3__1plB8ue170006IcNS_11char_traitsIcEENS_9allocatorIcEEEENS_12basic_stringIT_T0_T1_EEPKS6_OS9_, symObjAddr: 0x12884, symBinAddr: 0x100015764, symSize: 0x44 }
  - { offsetInCU: 0x2A474, offset: 0x2A474, size: 0x8, addend: 0x0, symName: __ZNSt3__1neB8ue170006IP8CustomerEEbRKNS_11__wrap_iterIT_EES7_, symObjAddr: 0x12B30, symBinAddr: 0x100015A10, symSize: 0x34 }
  - { offsetInCU: 0x2A4B7, offset: 0x2A4B7, size: 0x8, addend: 0x0, symName: __ZNSt3__1eqB8ue170006INS_9allocatorIcEEEEbRKNS_12basic_stringIcNS_11char_traitsIcEET_EES9_, symObjAddr: 0x12E5C, symBinAddr: 0x100015D3C, symSize: 0x148 }
  - { offsetInCU: 0x2A52A, offset: 0x2A52A, size: 0x8, addend: 0x0, symName: __ZNSt3__119__allocate_at_leastB8ue170006INS_9allocatorI8CustomerEEEENS_19__allocation_resultINS_16allocator_traitsIT_E7pointerEEERS6_m, symObjAddr: 0x143C0, symBinAddr: 0x1000172A0, symSize: 0x40 }
  - { offsetInCU: 0x2A56D, offset: 0x2A56D, size: 0x8, addend: 0x0, symName: __ZNSt3__142__uninitialized_allocator_move_if_noexceptB8ue170006INS_9allocatorI8CustomerEENS_16reverse_iteratorIPS2_EES6_S6_EET2_RT_T0_T1_S7_, symObjAddr: 0x14578, symBinAddr: 0x100017458, symSize: 0x12C }
  - { offsetInCU: 0x2A60D, offset: 0x2A60D, size: 0x8, addend: 0x0, symName: __ZNSt3__14swapB8ue170006IP8CustomerEENS_9enable_ifIXaasr21is_move_constructibleIT_EE5valuesr18is_move_assignableIS4_EE5valueEvE4typeERS4_S7_, symObjAddr: 0x146F0, symBinAddr: 0x1000175D0, symSize: 0x3C }
  - { offsetInCU: 0x2A65E, offset: 0x2A65E, size: 0x8, addend: 0x0, symName: __ZNSt3__122__make_exception_guardB8ue170006INS_29_AllocatorDestroyRangeReverseINS_9allocatorI8CustomerEENS_16reverse_iteratorIPS3_EEEEEENS_28__exception_guard_exceptionsIT_EESA_, symObjAddr: 0x147F4, symBinAddr: 0x1000176D4, symSize: 0x4C }
  - { offsetInCU: 0x2A694, offset: 0x2A694, size: 0x8, addend: 0x0, symName: __ZNSt3__1neB8ue170006IP8CustomerS2_EEbRKNS_16reverse_iteratorIT_EERKNS3_IT0_EE, symObjAddr: 0x14884, symBinAddr: 0x100017764, symSize: 0x48 }
  - { offsetInCU: 0x2A6E0, offset: 0x2A6E0, size: 0x8, addend: 0x0, symName: __ZNSt3__112__to_addressB8ue170006INS_16reverse_iteratorIP8CustomerEEvEEu7__decayIDTclsr19__to_address_helperIT_EE6__callclsr3stdE7declvalIRKS5_EEEEES7_, symObjAddr: 0x148CC, symBinAddr: 0x1000177AC, symSize: 0x24 }
  - { offsetInCU: 0x2A73F, offset: 0x2A73F, size: 0x8, addend: 0x0, symName: __ZNSt3__119__allocator_destroyB8ue170006INS_9allocatorI8CustomerEENS_16reverse_iteratorINS4_IPS2_EEEES7_EEvRT_T0_T1_, symObjAddr: 0x14B7C, symBinAddr: 0x100017A5C, symSize: 0x70 }
  - { offsetInCU: 0x2A7A4, offset: 0x2A7A4, size: 0x8, addend: 0x0, symName: __ZNSt3__1neB8ue170006INS_16reverse_iteratorIP8CustomerEES4_EEbRKNS1_IT_EERKNS1_IT0_EE, symObjAddr: 0x14C28, symBinAddr: 0x100017B08, symSize: 0x60 }
  - { offsetInCU: 0x2A7F0, offset: 0x2A7F0, size: 0x8, addend: 0x0, symName: __ZNSt3__112__to_addressB8ue170006INS_16reverse_iteratorINS1_IP8CustomerEEEEvEEu7__decayIDTclsr19__to_address_helperIT_EE6__callclsr3stdE7declvalIRKS6_EEEEES8_, symObjAddr: 0x14C88, symBinAddr: 0x100017B68, symSize: 0x24 }
  - { offsetInCU: 0x2A84F, offset: 0x2A84F, size: 0x8, addend: 0x0, symName: __ZNSt3__18distanceB8ue170006IPNS_12basic_stringIcNS_11char_traitsIcEENS_9allocatorIcEEEEEENS_15iterator_traitsIT_E15difference_typeES9_S9_, symObjAddr: 0x15900, symBinAddr: 0x1000187E0, symSize: 0x2C }
  - { offsetInCU: 0x2A892, offset: 0x2A892, size: 0x8, addend: 0x0, symName: __ZNSt3__14nextB8ue170006IPNS_12basic_stringIcNS_11char_traitsIcEENS_9allocatorIcEEEEEENS_9enable_ifIXsr29__has_input_iterator_categoryIT_EE5valueES9_E4typeES9_NS_15iterator_traitsIS9_E15difference_typeE, symObjAddr: 0x1592C, symBinAddr: 0x10001880C, symSize: 0x34 }
  - { offsetInCU: 0x2A8D5, offset: 0x2A8D5, size: 0x8, addend: 0x0, symName: __ZNSt3__14copyB8ue170006IPNS_12basic_stringIcNS_11char_traitsIcEENS_9allocatorIcEEEES7_EET0_T_S9_S8_, symObjAddr: 0x15960, symBinAddr: 0x100018840, symSize: 0x40 }
  - { offsetInCU: 0x2A92F, offset: 0x2A92F, size: 0x8, addend: 0x0, symName: __ZNSt3__16__copyB8ue170006INS_17_ClassicAlgPolicyEPNS_12basic_stringIcNS_11char_traitsIcEENS_9allocatorIcEEEES8_S8_EENS_4pairIT0_T2_EESA_T1_SB_, symObjAddr: 0x159A0, symBinAddr: 0x100018880, symSize: 0x44 }
  - { offsetInCU: 0x2A99B, offset: 0x2A99B, size: 0x8, addend: 0x0, symName: __ZNSt3__121__convert_to_integralB8ue170006El, symObjAddr: 0x15AFC, symBinAddr: 0x1000189DC, symSize: 0x14 }
  - { offsetInCU: 0x2A9C7, offset: 0x2A9C7, size: 0x8, addend: 0x0, symName: __ZNSt3__19__advanceB8ue170006IPNS_12basic_stringIcNS_11char_traitsIcEENS_9allocatorIcEEEEEEvRT_NS_15iterator_traitsIS8_E15difference_typeENS_26random_access_iterator_tagE, symObjAddr: 0x15B10, symBinAddr: 0x1000189F0, symSize: 0x30 }
  - { offsetInCU: 0x2AA10, offset: 0x2AA10, size: 0x8, addend: 0x0, symName: __ZNSt3__123__dispatch_copy_or_moveB8ue170006INS_17_ClassicAlgPolicyENS_11__copy_loopIS1_EENS_14__copy_trivialEPNS_12basic_stringIcNS_11char_traitsIcEENS_9allocatorIcEEEESB_SB_EENS_4pairIT2_T4_EESD_T3_SE_, symObjAddr: 0x15B40, symBinAddr: 0x100018A20, symSize: 0x44 }
  - { offsetInCU: 0x2AA8E, offset: 0x2AA8E, size: 0x8, addend: 0x0, symName: __ZNSt3__121__unwrap_and_dispatchB8ue170006INS_10__overloadINS_11__copy_loopINS_17_ClassicAlgPolicyEEENS_14__copy_trivialEEEPNS_12basic_stringIcNS_11char_traitsIcEENS_9allocatorIcEEEESD_SD_Li0EEENS_4pairIT0_T2_EESF_T1_SG_, symObjAddr: 0x15B84, symBinAddr: 0x100018A64, symSize: 0xB4 }
  - { offsetInCU: 0x2AB77, offset: 0x2AB77, size: 0x8, addend: 0x0, symName: __ZNSt3__114__rewrap_rangeB8ue170006IPNS_12basic_stringIcNS_11char_traitsIcEENS_9allocatorIcEEEES7_EET_S8_T0_, symObjAddr: 0x15CC0, symBinAddr: 0x100018BA0, symSize: 0x2C }
  - { offsetInCU: 0x2ABC3, offset: 0x2ABC3, size: 0x8, addend: 0x0, symName: __ZNSt3__110__distanceB8ue170006IPNS_12basic_stringIcNS_11char_traitsIcEENS_9allocatorIcEEEEEENS_15iterator_traitsIT_E15difference_typeES9_S9_NS_26random_access_iterator_tagE, symObjAddr: 0x15CEC, symBinAddr: 0x100018BCC, symSize: 0x28 }
  - { offsetInCU: 0x2AC10, offset: 0x2AC10, size: 0x8, addend: 0x0, symName: __ZNSt3__111make_uniqueB8ue170006I5OrderJRNS_12basic_stringIcNS_11char_traitsIcEENS_9allocatorIcEEEENS_10unique_ptrI7ToppingNS_14default_deleteISA_EEEES8_EEENS_11__unique_ifIT_E15__unique_singleEDpOT0_, symObjAddr: 0x1600C, symBinAddr: 0x100018EEC, symSize: 0x130 }
  - { offsetInCU: 0x2AC7A, offset: 0x2AC7A, size: 0x8, addend: 0x0, symName: __ZNSt3__1neB8ue170006IPKNS_8functionIFNS_10unique_ptrI12FruitToppingNS_14default_deleteIS3_EEEEvEEEEEbRKNS_11__wrap_iterIT_EESF_, symObjAddr: 0x16244, symBinAddr: 0x100019124, symSize: 0x34 }
  - { offsetInCU: 0x2ACBD, offset: 0x2ACBD, size: 0x8, addend: 0x0, symName: __ZNSt3__1neB8ue170006IPKNS_8functionIFNS_10unique_ptrI12SweetToppingNS_14default_deleteIS3_EEEEvEEEEEbRKNS_11__wrap_iterIT_EESF_, symObjAddr: 0x1643C, symBinAddr: 0x10001931C, symSize: 0x34 }
  - { offsetInCU: 0x2AD00, offset: 0x2AD00, size: 0x8, addend: 0x0, symName: __ZNSt3__1eqB8ue170006IPKNS_8functionIFNS_10unique_ptrI12FruitToppingNS_14default_deleteIS3_EEEEvEEEEEbRKNS_11__wrap_iterIT_EESF_, symObjAddr: 0x167B4, symBinAddr: 0x100019694, symSize: 0x48 }
  - { offsetInCU: 0x2AD43, offset: 0x2AD43, size: 0x8, addend: 0x0, symName: __ZNSt3__112__to_addressB8ue170006INS_8functionIFNS_10unique_ptrI7ToppingNS_14default_deleteIS3_EEEEvEEEEEPT_SA_, symObjAddr: 0x16A74, symBinAddr: 0x100019954, symSize: 0x14 }
  - { offsetInCU: 0x2AD78, offset: 0x2AD78, size: 0x8, addend: 0x0, symName: __ZNSt3__119__allocate_at_leastB8ue170006INS_9allocatorINS_8functionIFNS_10unique_ptrI7ToppingNS_14default_deleteIS4_EEEEvEEEEEEENS_19__allocation_resultINS_16allocator_traitsIT_E7pointerEEERSD_m, symObjAddr: 0x171F8, symBinAddr: 0x10001A0D8, symSize: 0x40 }
  - { offsetInCU: 0x2ADBB, offset: 0x2ADBB, size: 0x8, addend: 0x0, symName: __ZNSt3__142__uninitialized_allocator_move_if_noexceptB8ue170006INS_9allocatorINS_8functionIFNS_10unique_ptrI7ToppingNS_14default_deleteIS4_EEEEvEEEEENS_16reverse_iteratorIPS9_EESD_SD_EET2_RT_T0_T1_SE_, symObjAddr: 0x17464, symBinAddr: 0x10001A344, symSize: 0x12C }
  - { offsetInCU: 0x2AE5B, offset: 0x2AE5B, size: 0x8, addend: 0x0, symName: __ZNSt3__14swapB8ue170006IPNS_8functionIFNS_10unique_ptrI7ToppingNS_14default_deleteIS3_EEEEvEEEEENS_9enable_ifIXaasr21is_move_constructibleIT_EE5valuesr18is_move_assignableISB_EE5valueEvE4typeERSB_SE_, symObjAddr: 0x175DC, symBinAddr: 0x10001A4BC, symSize: 0x3C }
  - { offsetInCU: 0x2AEAC, offset: 0x2AEAC, size: 0x8, addend: 0x0, symName: __ZNSt3__122__make_exception_guardB8ue170006INS_29_AllocatorDestroyRangeReverseINS_9allocatorINS_8functionIFNS_10unique_ptrI7ToppingNS_14default_deleteIS5_EEEEvEEEEENS_16reverse_iteratorIPSA_EEEEEENS_28__exception_guard_exceptionsIT_EESH_, symObjAddr: 0x1770C, symBinAddr: 0x10001A5EC, symSize: 0x4C }
  - { offsetInCU: 0x2AEE2, offset: 0x2AEE2, size: 0x8, addend: 0x0, symName: __ZNSt3__1neB8ue170006IPNS_8functionIFNS_10unique_ptrI7ToppingNS_14default_deleteIS3_EEEEvEEES9_EEbRKNS_16reverse_iteratorIT_EERKNSA_IT0_EE, symObjAddr: 0x1779C, symBinAddr: 0x10001A67C, symSize: 0x48 }
  - { offsetInCU: 0x2AF2E, offset: 0x2AF2E, size: 0x8, addend: 0x0, symName: __ZNSt3__112__to_addressB8ue170006INS_16reverse_iteratorIPNS_8functionIFNS_10unique_ptrI7ToppingNS_14default_deleteIS4_EEEEvEEEEEvEEu7__decayIDTclsr19__to_address_helperIT_EE6__callclsr3stdE7declvalIRKSC_EEEEESE_, symObjAddr: 0x177E4, symBinAddr: 0x10001A6C4, symSize: 0x24 }
  - { offsetInCU: 0x2AF8D, offset: 0x2AF8D, size: 0x8, addend: 0x0, symName: __ZNSt3__119__allocator_destroyB8ue170006INS_9allocatorINS_8functionIFNS_10unique_ptrI7ToppingNS_14default_deleteIS4_EEEEvEEEEENS_16reverse_iteratorINSB_IPS9_EEEESE_EEvRT_T0_T1_, symObjAddr: 0x17A94, symBinAddr: 0x10001A974, symSize: 0x70 }
  - { offsetInCU: 0x2AFF2, offset: 0x2AFF2, size: 0x8, addend: 0x0, symName: __ZNSt3__1neB8ue170006INS_16reverse_iteratorIPNS_8functionIFNS_10unique_ptrI7ToppingNS_14default_deleteIS4_EEEEvEEEEESB_EEbRKNS1_IT_EERKNS1_IT0_EE, symObjAddr: 0x17B40, symBinAddr: 0x10001AA20, symSize: 0x60 }
  - { offsetInCU: 0x2B03E, offset: 0x2B03E, size: 0x8, addend: 0x0, symName: __ZNSt3__112__to_addressB8ue170006INS_16reverse_iteratorINS1_IPNS_8functionIFNS_10unique_ptrI7ToppingNS_14default_deleteIS4_EEEEvEEEEEEEvEEu7__decayIDTclsr19__to_address_helperIT_EE6__callclsr3stdE7declvalIRKSD_EEEEESF_, symObjAddr: 0x17BCC, symBinAddr: 0x10001AAAC, symSize: 0x24 }
  - { offsetInCU: 0x2B6E4, offset: 0x2B6E4, size: 0x8, addend: 0x0, symName: __ZNSt3__116forward_as_tupleB8ue170006IJZNK11ToppingList16getRandomToppingEvEUlvE_EEENS_5tupleIJDpOT_EEES6_, symObjAddr: 0x18B54, symBinAddr: 0x10001BA34, symSize: 0x2C }
  - { offsetInCU: 0x2B71D, offset: 0x2B71D, size: 0x8, addend: 0x0, symName: __ZNSt3__116forward_as_tupleB8ue170006IJNS_9allocatorIZNK11ToppingList16getRandomToppingEvEUlvE_EEEEENS_5tupleIJDpOT_EEES8_, symObjAddr: 0x18B80, symBinAddr: 0x10001BA60, symSize: 0x2C }
  - { offsetInCU: 0x2B780, offset: 0x2B780, size: 0x8, addend: 0x0, symName: __ZNSt3__13getB8ue170006ILm0EJOZNK11ToppingList16getRandomToppingEvEUlvE_EEERNS_13tuple_elementIXT_ENS_5tupleIJDpT0_EEEE4typeERS8_, symObjAddr: 0x18EEC, symBinAddr: 0x10001BDCC, symSize: 0x24 }
  - { offsetInCU: 0x2B7C2, offset: 0x2B7C2, size: 0x8, addend: 0x0, symName: __ZNSt3__13getB8ue170006ILm0EJONS_9allocatorIZNK11ToppingList16getRandomToppingEvEUlvE_EEEEERNS_13tuple_elementIXT_ENS_5tupleIJDpT0_EEEE4typeERSA_, symObjAddr: 0x18F90, symBinAddr: 0x10001BE70, symSize: 0x24 }
  - { offsetInCU: 0x2B990, offset: 0x2B990, size: 0x8, addend: 0x0, symName: __ZNSt3__116forward_as_tupleB8ue170006IJRKZNK11ToppingList16getRandomToppingEvEUlvE_EEENS_5tupleIJDpOT_EEES8_, symObjAddr: 0x19458, symBinAddr: 0x10001C338, symSize: 0x2C }
  - { offsetInCU: 0x2B9DE, offset: 0x2B9DE, size: 0x8, addend: 0x0, symName: __ZNSt3__13getB8ue170006ILm0EJRKZNK11ToppingList16getRandomToppingEvEUlvE_EEERNS_13tuple_elementIXT_ENS_5tupleIJDpT0_EEEE4typeERS9_, symObjAddr: 0x19648, symBinAddr: 0x10001C528, symSize: 0x24 }
  - { offsetInCU: 0x2BA20, offset: 0x2BA20, size: 0x8, addend: 0x0, symName: __ZNSt3__116forward_as_tupleB8ue170006IJRKNS_9allocatorIZNK11ToppingList16getRandomToppingEvEUlvE_EEEEENS_5tupleIJDpOT_EEESA_, symObjAddr: 0x19A10, symBinAddr: 0x10001C8F0, symSize: 0x2C }
  - { offsetInCU: 0x2BA6E, offset: 0x2BA6E, size: 0x8, addend: 0x0, symName: __ZNSt3__13getB8ue170006ILm0EJRKNS_9allocatorIZNK11ToppingList16getRandomToppingEvEUlvE_EEEEERNS_13tuple_elementIXT_ENS_5tupleIJDpT0_EEEE4typeERSB_, symObjAddr: 0x19C1C, symBinAddr: 0x10001CAFC, symSize: 0x24 }
  - { offsetInCU: 0x2BB0C, offset: 0x2BB0C, size: 0x8, addend: 0x0, symName: __ZNSt3__18__invokeB8ue170006IRZNK11ToppingList16getRandomToppingEvEUlvE_JEEEDTclclsr3stdE7declvalIT_EEspclsr3stdE7declvalIT0_EEEEOS4_DpOS5_, symObjAddr: 0x19D1C, symBinAddr: 0x10001CBFC, symSize: 0x2C }
  - { offsetInCU: 0x2BB49, offset: 0x2BB49, size: 0x8, addend: 0x0, symName: __ZNSt3__125__throw_bad_function_callB8ue170006Ev, symObjAddr: 0x19E5C, symBinAddr: 0x10001CD3C, symSize: 0x38 }
  - { offsetInCU: 0x2BBB6, offset: 0x2BBB6, size: 0x8, addend: 0x0, symName: __ZNSt3__1eqB8ue170006IPKNS_8functionIFNS_10unique_ptrI12SweetToppingNS_14default_deleteIS3_EEEEvEEEEEbRKNS_11__wrap_iterIT_EESF_, symObjAddr: 0x1A528, symBinAddr: 0x10001D408, symSize: 0x48 }
  - { offsetInCU: 0x2C235, offset: 0x2C235, size: 0x8, addend: 0x0, symName: __ZNSt3__116forward_as_tupleB8ue170006IJZNK11ToppingList16getRandomToppingEvEUlvE0_EEENS_5tupleIJDpOT_EEES6_, symObjAddr: 0x1B0B4, symBinAddr: 0x10001DF94, symSize: 0x2C }
  - { offsetInCU: 0x2C26E, offset: 0x2C26E, size: 0x8, addend: 0x0, symName: __ZNSt3__116forward_as_tupleB8ue170006IJNS_9allocatorIZNK11ToppingList16getRandomToppingEvEUlvE0_EEEEENS_5tupleIJDpOT_EEES8_, symObjAddr: 0x1B0E0, symBinAddr: 0x10001DFC0, symSize: 0x2C }
  - { offsetInCU: 0x2C2D1, offset: 0x2C2D1, size: 0x8, addend: 0x0, symName: __ZNSt3__13getB8ue170006ILm0EJOZNK11ToppingList16getRandomToppingEvEUlvE0_EEERNS_13tuple_elementIXT_ENS_5tupleIJDpT0_EEEE4typeERS8_, symObjAddr: 0x1B44C, symBinAddr: 0x10001E32C, symSize: 0x24 }
  - { offsetInCU: 0x2C313, offset: 0x2C313, size: 0x8, addend: 0x0, symName: __ZNSt3__13getB8ue170006ILm0EJONS_9allocatorIZNK11ToppingList16getRandomToppingEvEUlvE0_EEEEERNS_13tuple_elementIXT_ENS_5tupleIJDpT0_EEEE4typeERSA_, symObjAddr: 0x1B4F0, symBinAddr: 0x10001E3D0, symSize: 0x24 }
  - { offsetInCU: 0x2C4E1, offset: 0x2C4E1, size: 0x8, addend: 0x0, symName: __ZNSt3__116forward_as_tupleB8ue170006IJRKZNK11ToppingList16getRandomToppingEvEUlvE0_EEENS_5tupleIJDpOT_EEES8_, symObjAddr: 0x1B9B8, symBinAddr: 0x10001E898, symSize: 0x2C }
  - { offsetInCU: 0x2C52F, offset: 0x2C52F, size: 0x8, addend: 0x0, symName: __ZNSt3__13getB8ue170006ILm0EJRKZNK11ToppingList16getRandomToppingEvEUlvE0_EEERNS_13tuple_elementIXT_ENS_5tupleIJDpT0_EEEE4typeERS9_, symObjAddr: 0x1BBA8, symBinAddr: 0x10001EA88, symSize: 0x24 }
  - { offsetInCU: 0x2C571, offset: 0x2C571, size: 0x8, addend: 0x0, symName: __ZNSt3__116forward_as_tupleB8ue170006IJRKNS_9allocatorIZNK11ToppingList16getRandomToppingEvEUlvE0_EEEEENS_5tupleIJDpOT_EEESA_, symObjAddr: 0x1BF70, symBinAddr: 0x10001EE50, symSize: 0x2C }
  - { offsetInCU: 0x2C5BF, offset: 0x2C5BF, size: 0x8, addend: 0x0, symName: __ZNSt3__13getB8ue170006ILm0EJRKNS_9allocatorIZNK11ToppingList16getRandomToppingEvEUlvE0_EEEEERNS_13tuple_elementIXT_ENS_5tupleIJDpT0_EEEE4typeERSB_, symObjAddr: 0x1C17C, symBinAddr: 0x10001F05C, symSize: 0x24 }
  - { offsetInCU: 0x2C601, offset: 0x2C601, size: 0x8, addend: 0x0, symName: __ZNSt3__18__invokeB8ue170006IRZNK11ToppingList16getRandomToppingEvEUlvE0_JEEEDTclclsr3stdE7declvalIT_EEspclsr3stdE7declvalIT0_EEEEOS4_DpOS5_, symObjAddr: 0x1C27C, symBinAddr: 0x10001F15C, symSize: 0x2C }
  - { offsetInCU: 0x2C63D, offset: 0x2C63D, size: 0x8, addend: 0x0, symName: __ZNSt3__1eqB8ue170006IP8CustomerEEbRKNS_11__wrap_iterIT_EES7_, symObjAddr: 0x1D174, symBinAddr: 0x100020054, symSize: 0x48 }
  - { offsetInCU: 0x2C680, offset: 0x2C680, size: 0x8, addend: 0x0, symName: __ZNSt3__1neB8ue170006IPNS_12basic_stringIcNS_11char_traitsIcEENS_9allocatorIcEEEEEEbRKNS_11__wrap_iterIT_EESC_, symObjAddr: 0x1D7AC, symBinAddr: 0x10002068C, symSize: 0x34 }
  - { offsetInCU: 0x2C6F6, offset: 0x2C6F6, size: 0x8, addend: 0x0, symName: __ZNSt3__1eqB8ue170006IPNS_12basic_stringIcNS_11char_traitsIcEENS_9allocatorIcEEEEEEbRKNS_11__wrap_iterIT_EESC_, symObjAddr: 0x1E040, symBinAddr: 0x100020F20, symSize: 0x48 }
  - { offsetInCU: 0x2C770, offset: 0x2C770, size: 0x8, addend: 0x0, symName: __ZNSt3__116forward_as_tupleB8ue170006IJRKiEEENS_5tupleIJDpOT_EEES6_, symObjAddr: 0x1E1A0, symBinAddr: 0x100021080, symSize: 0x2C }
  - { offsetInCU: 0x2C7A9, offset: 0x2C7A9, size: 0x8, addend: 0x0, symName: __ZNSt3__116forward_as_tupleB8ue170006IJEEENS_5tupleIJDpOT_EEES4_, symObjAddr: 0x1E1CC, symBinAddr: 0x1000210AC, symSize: 0x4 }
  - { offsetInCU: 0x2C7CD, offset: 0x2C7CD, size: 0x8, addend: 0x0, symName: __ZNSt3__17launderB8ue170006IKNS_4pairIKiNS_3setINS_12basic_stringIcNS_11char_traitsIcEENS_9allocatorIcEEEENS_4lessIS9_EENS7_IS9_EEEEEEEEPT_SH_, symObjAddr: 0x1E898, symBinAddr: 0x100021778, symSize: 0x24 }
  - { offsetInCU: 0x2C804, offset: 0x2C804, size: 0x8, addend: 0x0, symName: __ZNSt3__19__launderB8ue170006IKNS_4pairIKiNS_3setINS_12basic_stringIcNS_11char_traitsIcEENS_9allocatorIcEEEENS_4lessIS9_EENS7_IS9_EEEEEEEEPT_SH_, symObjAddr: 0x1E8BC, symBinAddr: 0x10002179C, symSize: 0x14 }
  - { offsetInCU: 0x2C859, offset: 0x2C859, size: 0x8, addend: 0x0, symName: __ZNSt3__13getB8ue170006ILm0EJRKiEEERNS_13tuple_elementIXT_ENS_5tupleIJDpT0_EEEE4typeERS7_, symObjAddr: 0x1ED80, symBinAddr: 0x100021C60, symSize: 0x24 }
  - { offsetInCU: 0x2C89C, offset: 0x2C89C, size: 0x8, addend: 0x0, symName: __ZNSt3__127__tree_balance_after_insertB8ue170006IPNS_16__tree_node_baseIPvEEEEvT_S5_, symObjAddr: 0x1F104, symBinAddr: 0x100021FE4, symSize: 0x32C }
  - { offsetInCU: 0x2C918, offset: 0x2C918, size: 0x8, addend: 0x0, symName: __ZNSt3__120__tree_is_left_childB8ue170006IPNS_16__tree_node_baseIPvEEEEbT_, symObjAddr: 0x1F470, symBinAddr: 0x100022350, symSize: 0x2C }
  - { offsetInCU: 0x2C94D, offset: 0x2C94D, size: 0x8, addend: 0x0, symName: __ZNSt3__118__tree_left_rotateB8ue170006IPNS_16__tree_node_baseIPvEEEEvT_, symObjAddr: 0x1F49C, symBinAddr: 0x10002237C, symSize: 0xD8 }
  - { offsetInCU: 0x2C98F, offset: 0x2C98F, size: 0x8, addend: 0x0, symName: __ZNSt3__119__tree_right_rotateB8ue170006IPNS_16__tree_node_baseIPvEEEEvT_, symObjAddr: 0x1F574, symBinAddr: 0x100022454, symSize: 0xCC }
  - { offsetInCU: 0x2CA19, offset: 0x2CA19, size: 0x8, addend: 0x0, symName: __ZNSt3__17launderB8ue170006INS_4pairIKiNS_3setINS_12basic_stringIcNS_11char_traitsIcEENS_9allocatorIcEEEENS_4lessIS9_EENS7_IS9_EEEEEEEEPT_SG_, symObjAddr: 0x1FD70, symBinAddr: 0x100022C50, symSize: 0x24 }
  - { offsetInCU: 0x2CA50, offset: 0x2CA50, size: 0x8, addend: 0x0, symName: __ZNSt3__19__launderB8ue170006INS_4pairIKiNS_3setINS_12basic_stringIcNS_11char_traitsIcEENS_9allocatorIcEEEENS_4lessIS9_EENS7_IS9_EEEEEEEEPT_SG_, symObjAddr: 0x1FD94, symBinAddr: 0x100022C74, symSize: 0x14 }
  - { offsetInCU: 0x2CA87, offset: 0x2CA87, size: 0x8, addend: 0x0, symName: __ZNSt3__1ltB8ue170006IcNS_11char_traitsIcEENS_9allocatorIcEEEEbRKNS_12basic_stringIT_T0_T1_EESB_, symObjAddr: 0x20448, symBinAddr: 0x100023328, symSize: 0x38 }
  - { offsetInCU: 0x2CC9E, offset: 0x2CC9E, size: 0x8, addend: 0x0, symName: __ZNSt3__1lsB8ue170006INS_11char_traitsIcEEEERNS_13basic_ostreamIcT_EES6_c, symObjAddr: 0x21080, symBinAddr: 0x100023F60, symSize: 0x34 }
  - { offsetInCU: 0x2CCEF, offset: 0x2CCEF, size: 0x8, addend: 0x0, symName: __ZNSt3__118__constexpr_strlenB8ue170006EPKc, symObjAddr: 0x212CC, symBinAddr: 0x1000241AC, symSize: 0x24 }
  - { offsetInCU: 0x2CD1B, offset: 0x2CD1B, size: 0x8, addend: 0x0, symName: __ZNSt3__17getlineB8ue170006IcNS_11char_traitsIcEENS_9allocatorIcEEEERNS_13basic_istreamIT_T0_EES9_RNS_12basic_stringIS6_S7_T1_EES6_, symObjAddr: 0x212F0, symBinAddr: 0x1000241D0, symSize: 0x238 }
  - { offsetInCU: 0x2DCB8, offset: 0x2DCB8, size: 0x8, addend: 0x0, symName: __ZSt28__throw_bad_array_new_lengthB8ue170006v, symObjAddr: 0x1A00, symBinAddr: 0x1000048E0, symSize: 0x34 }
  - { offsetInCU: 0x2F42B, offset: 0x2F42B, size: 0x8, addend: 0x0, symName: __ZNSt3__16vectorINS_8functionIFNS_10unique_ptrI12FruitToppingNS_14default_deleteIS3_EEEEvEEENS_9allocatorIS8_EEE26__swap_out_circular_bufferERNS_14__split_bufferIS8_RSA_EE, symObjAddr: 0x375C, symBinAddr: 0x10000663C, symSize: 0x110 }
  - { offsetInCU: 0x2F4CE, offset: 0x2F4CE, size: 0x8, addend: 0x0, symName: __ZN11ToppingListC2Ev, symObjAddr: 0x2A00, symBinAddr: 0x1000058E0, symSize: 0x1F4 }
  - { offsetInCU: 0x2FA61, offset: 0x2FA61, size: 0x8, addend: 0x0, symName: __ZNSt3__16vectorINS_8functionIFNS_10unique_ptrI12SweetToppingNS_14default_deleteIS3_EEEEvEEENS_9allocatorIS8_EEE26__swap_out_circular_bufferERNS_14__split_bufferIS8_RSA_EE, symObjAddr: 0x87D0, symBinAddr: 0x10000B6B0, symSize: 0x110 }
  - { offsetInCU: 0x3023C, offset: 0x3023C, size: 0x8, addend: 0x0, symName: __ZNSt3__16vectorINS_12basic_stringIcNS_11char_traitsIcEENS_9allocatorIcEEEENS4_IS6_EEE26__swap_out_circular_bufferERNS_14__split_bufferIS6_RS7_EE, symObjAddr: 0xF768, symBinAddr: 0x100012648, symSize: 0x110 }
  - { offsetInCU: 0x305AF, offset: 0x305AF, size: 0x8, addend: 0x0, symName: __ZNSt3__16vectorI8CustomerNS_9allocatorIS1_EEE26__swap_out_circular_bufferERNS_14__split_bufferIS1_RS3_EE, symObjAddr: 0x14048, symBinAddr: 0x100016F28, symSize: 0x110 }
  - { offsetInCU: 0x3086E, offset: 0x3086E, size: 0x8, addend: 0x0, symName: __ZNSt3__16vectorINS_8functionIFNS_10unique_ptrI7ToppingNS_14default_deleteIS3_EEEEvEEENS_9allocatorIS8_EEE26__swap_out_circular_bufferERNS_14__split_bufferIS8_RSA_EE, symObjAddr: 0x16DF8, symBinAddr: 0x100019CD8, symSize: 0x110 }
  - { offsetInCU: 0x30911, offset: 0x30911, size: 0x8, addend: 0x0, symName: __ZNK11ToppingList16getRandomToppingEv, symObjAddr: 0x15D84, symBinAddr: 0x100018C64, symSize: 0x288 }
  - { offsetInCU: 0x33B8E, offset: 0x33B8E, size: 0x8, addend: 0x0, symName: _main, symObjAddr: 0x0, symBinAddr: 0x100002EE0, symSize: 0x2D0 }
  - { offsetInCU: 0x33DA9, offset: 0x33DA9, size: 0x8, addend: 0x0, symName: __ZN11GameManagerC1Ev, symObjAddr: 0x2D0, symBinAddr: 0x1000031B0, symSize: 0x2C }
  - { offsetInCU: 0x33DD5, offset: 0x33DD5, size: 0x8, addend: 0x0, symName: __ZNSt3__112basic_stringIcNS_11char_traitsIcEENS_9allocatorIcEEEC1B8ue170006Ev, symObjAddr: 0x344, symBinAddr: 0x100003224, symSize: 0x2C }
  - { offsetInCU: 0x33DFF, offset: 0x33DFF, size: 0x8, addend: 0x0, symName: __ZN11GameManager8loadGameERKNSt3__112basic_stringIcNS0_11char_traitsIcEENS0_9allocatorIcEEEE, symObjAddr: 0x478, symBinAddr: 0x100003358, symSize: 0x2BC }
  - { offsetInCU: 0x33EA9, offset: 0x33EA9, size: 0x8, addend: 0x0, symName: __ZNSt3__112basic_stringIcNS_11char_traitsIcEENS_9allocatorIcEEEC1B8ue170006ILi0EEEPKc, symObjAddr: 0x734, symBinAddr: 0x100003614, symSize: 0x34 }
  - { offsetInCU: 0x33EE8, offset: 0x33EE8, size: 0x8, addend: 0x0, symName: __ZN11GameManager4playEv, symObjAddr: 0x768, symBinAddr: 0x100003648, symSize: 0x1B0 }
  - { offsetInCU: 0x33F31, offset: 0x33F31, size: 0x8, addend: 0x0, symName: __ZN11GameManager8saveGameERKNSt3__112basic_stringIcNS0_11char_traitsIcEENS0_9allocatorIcEEEE, symObjAddr: 0x918, symBinAddr: 0x1000037F8, symSize: 0x278 }
  - { offsetInCU: 0x33FCB, offset: 0x33FCB, size: 0x8, addend: 0x0, symName: __ZN11GameManagerD1Ev, symObjAddr: 0xB90, symBinAddr: 0x100003A70, symSize: 0x2C }
  - { offsetInCU: 0x33FF7, offset: 0x33FF7, size: 0x8, addend: 0x0, symName: __ZN11GameManagerC2Ev, symObjAddr: 0xBBC, symBinAddr: 0x100003A9C, symSize: 0x408 }
  - { offsetInCU: 0x34024, offset: 0x34024, size: 0x8, addend: 0x0, symName: __ZNSt3__16vectorINS_12basic_stringIcNS_11char_traitsIcEENS_9allocatorIcEEEENS4_IS6_EEEC1B8ue170006ESt16initializer_listIS6_E, symObjAddr: 0xFC4, symBinAddr: 0x100003EA4, symSize: 0x3C }
  - { offsetInCU: 0x3405F, offset: 0x3405F, size: 0x8, addend: 0x0, symName: __ZN11PlayerLevelC1Ev, symObjAddr: 0x1000, symBinAddr: 0x100003EE0, symSize: 0x2C }
  - { offsetInCU: 0x34089, offset: 0x34089, size: 0x8, addend: 0x0, symName: __ZN11ToppingListC1Ev, symObjAddr: 0x102C, symBinAddr: 0x100003F0C, symSize: 0x2C }
  - { offsetInCU: 0x340B3, offset: 0x340B3, size: 0x8, addend: 0x0, symName: __ZNSt3__16vectorINS_12basic_stringIcNS_11char_traitsIcEENS_9allocatorIcEEEENS4_IS6_EEED1B8ue170006Ev, symObjAddr: 0x1058, symBinAddr: 0x100003F38, symSize: 0x2C }
  - { offsetInCU: 0x340DD, offset: 0x340DD, size: 0x8, addend: 0x0, symName: __ZNSt3__16vectorINS_12basic_stringIcNS_11char_traitsIcEENS_9allocatorIcEEEENS4_IS6_EEEC2B8ue170006ESt16initializer_listIS6_E, symObjAddr: 0x1084, symBinAddr: 0x100003F64, symSize: 0x120 }
  - { offsetInCU: 0x34139, offset: 0x34139, size: 0x8, addend: 0x0, symName: __ZNSt3__117__compressed_pairIPNS_12basic_stringIcNS_11char_traitsIcEENS_9allocatorIcEEEENS4_IS6_EEEC1B8ue170006IDnNS_18__default_init_tagEEEOT_OT0_, symObjAddr: 0x11A4, symBinAddr: 0x100004084, symSize: 0x3C }
  - { offsetInCU: 0x34191, offset: 0x34191, size: 0x8, addend: 0x0, symName: __ZNSt3__16vectorINS_12basic_stringIcNS_11char_traitsIcEENS_9allocatorIcEEEENS4_IS6_EEE16__destroy_vectorC1B8ue170006ERS8_, symObjAddr: 0x1220, symBinAddr: 0x100004100, symSize: 0x34 }
  - { offsetInCU: 0x341CA, offset: 0x341CA, size: 0x8, addend: 0x0, symName: __ZNKSt16initializer_listINSt3__112basic_stringIcNS0_11char_traitsIcEENS0_9allocatorIcEEEEE4sizeB8ue170006Ev, symObjAddr: 0x1254, symBinAddr: 0x100004134, symSize: 0x18 }
  - { offsetInCU: 0x341F0, offset: 0x341F0, size: 0x8, addend: 0x0, symName: __ZNSt3__16vectorINS_12basic_stringIcNS_11char_traitsIcEENS_9allocatorIcEEEENS4_IS6_EEE11__vallocateB8ue170006Em, symObjAddr: 0x126C, symBinAddr: 0x10000414C, symSize: 0xB4 }
  - { offsetInCU: 0x34234, offset: 0x34234, size: 0x8, addend: 0x0, symName: __ZNSt3__16vectorINS_12basic_stringIcNS_11char_traitsIcEENS_9allocatorIcEEEENS4_IS6_EEE18__construct_at_endIPKS6_SB_EEvT_T0_m, symObjAddr: 0x1320, symBinAddr: 0x100004200, symSize: 0x8C }
  - { offsetInCU: 0x342AA, offset: 0x342AA, size: 0x8, addend: 0x0, symName: __ZNKSt16initializer_listINSt3__112basic_stringIcNS0_11char_traitsIcEENS0_9allocatorIcEEEEE5beginB8ue170006Ev, symObjAddr: 0x13AC, symBinAddr: 0x10000428C, symSize: 0x18 }
  - { offsetInCU: 0x342D0, offset: 0x342D0, size: 0x8, addend: 0x0, symName: __ZNKSt16initializer_listINSt3__112basic_stringIcNS0_11char_traitsIcEENS0_9allocatorIcEEEEE3endB8ue170006Ev, symObjAddr: 0x13C4, symBinAddr: 0x1000042A4, symSize: 0x28 }
  - { offsetInCU: 0x342F6, offset: 0x342F6, size: 0x8, addend: 0x0, symName: __ZNSt3__128__exception_guard_exceptionsINS_6vectorINS_12basic_stringIcNS_11char_traitsIcEENS_9allocatorIcEEEENS5_IS7_EEE16__destroy_vectorEE10__completeB8ue170006Ev, symObjAddr: 0x13EC, symBinAddr: 0x1000042CC, symSize: 0x1C }
  - { offsetInCU: 0x3431C, offset: 0x3431C, size: 0x8, addend: 0x0, symName: __ZNSt3__128__exception_guard_exceptionsINS_6vectorINS_12basic_stringIcNS_11char_traitsIcEENS_9allocatorIcEEEENS5_IS7_EEE16__destroy_vectorEED1B8ue170006Ev, symObjAddr: 0x1408, symBinAddr: 0x1000042E8, symSize: 0x2C }
  - { offsetInCU: 0x34346, offset: 0x34346, size: 0x8, addend: 0x0, symName: __ZNSt3__117__compressed_pairIPNS_12basic_stringIcNS_11char_traitsIcEENS_9allocatorIcEEEENS4_IS6_EEEC2B8ue170006IDnNS_18__default_init_tagEEEOT_OT0_, symObjAddr: 0x1434, symBinAddr: 0x100004314, symSize: 0x40 }
  - { offsetInCU: 0x3439E, offset: 0x3439E, size: 0x8, addend: 0x0, symName: __ZNSt3__122__compressed_pair_elemIPNS_12basic_stringIcNS_11char_traitsIcEENS_9allocatorIcEEEELi0ELb0EEC2B8ue170006IDnvEEOT_, symObjAddr: 0x1474, symBinAddr: 0x100004354, symSize: 0x1C }
  - { offsetInCU: 0x343E0, offset: 0x343E0, size: 0x8, addend: 0x0, symName: __ZNSt3__122__compressed_pair_elemINS_9allocatorINS_12basic_stringIcNS_11char_traitsIcEENS1_IcEEEEEELi1ELb1EEC2B8ue170006ENS_18__default_init_tagE, symObjAddr: 0x1490, symBinAddr: 0x100004370, symSize: 0x2C }
  - { offsetInCU: 0x34414, offset: 0x34414, size: 0x8, addend: 0x0, symName: __ZNSt3__19allocatorINS_12basic_stringIcNS_11char_traitsIcEENS0_IcEEEEEC2B8ue170006Ev, symObjAddr: 0x14BC, symBinAddr: 0x10000439C, symSize: 0x2C }
  - { offsetInCU: 0x3443E, offset: 0x3443E, size: 0x8, addend: 0x0, symName: __ZNSt3__116__non_trivial_ifILb1ENS_9allocatorINS_12basic_stringIcNS_11char_traitsIcEENS1_IcEEEEEEEC2B8ue170006Ev, symObjAddr: 0x14E8, symBinAddr: 0x1000043C8, symSize: 0x14 }
  - { offsetInCU: 0x34468, offset: 0x34468, size: 0x8, addend: 0x0, symName: __ZNSt3__128__exception_guard_exceptionsINS_6vectorINS_12basic_stringIcNS_11char_traitsIcEENS_9allocatorIcEEEENS5_IS7_EEE16__destroy_vectorEEC1B8ue170006ESA_, symObjAddr: 0x14FC, symBinAddr: 0x1000043DC, symSize: 0x34 }
  - { offsetInCU: 0x344A0, offset: 0x344A0, size: 0x8, addend: 0x0, symName: __ZNSt3__128__exception_guard_exceptionsINS_6vectorINS_12basic_stringIcNS_11char_traitsIcEENS_9allocatorIcEEEENS5_IS7_EEE16__destroy_vectorEEC2B8ue170006ESA_, symObjAddr: 0x1530, symBinAddr: 0x100004410, symSize: 0x24 }
  - { offsetInCU: 0x344D8, offset: 0x344D8, size: 0x8, addend: 0x0, symName: __ZNSt3__16vectorINS_12basic_stringIcNS_11char_traitsIcEENS_9allocatorIcEEEENS4_IS6_EEE16__destroy_vectorC2B8ue170006ERS8_, symObjAddr: 0x1554, symBinAddr: 0x100004434, symSize: 0x20 }
  - { offsetInCU: 0x34511, offset: 0x34511, size: 0x8, addend: 0x0, symName: __ZNKSt3__16vectorINS_12basic_stringIcNS_11char_traitsIcEENS_9allocatorIcEEEENS4_IS6_EEE8max_sizeEv, symObjAddr: 0x1574, symBinAddr: 0x100004454, symSize: 0x60 }
  - { offsetInCU: 0x34539, offset: 0x34539, size: 0x8, addend: 0x0, symName: __ZNKSt3__16vectorINS_12basic_stringIcNS_11char_traitsIcEENS_9allocatorIcEEEENS4_IS6_EEE20__throw_length_errorB8ue170006Ev, symObjAddr: 0x15D4, symBinAddr: 0x1000044B4, symSize: 0x1C }
  - { offsetInCU: 0x3455F, offset: 0x3455F, size: 0x8, addend: 0x0, symName: __ZNSt3__16vectorINS_12basic_stringIcNS_11char_traitsIcEENS_9allocatorIcEEEENS4_IS6_EEE7__allocB8ue170006Ev, symObjAddr: 0x1630, symBinAddr: 0x100004510, symSize: 0x28 }
  - { offsetInCU: 0x34585, offset: 0x34585, size: 0x8, addend: 0x0, symName: __ZNSt3__16vectorINS_12basic_stringIcNS_11char_traitsIcEENS_9allocatorIcEEEENS4_IS6_EEE9__end_capB8ue170006Ev, symObjAddr: 0x1658, symBinAddr: 0x100004538, symSize: 0x28 }
  - { offsetInCU: 0x345AB, offset: 0x345AB, size: 0x8, addend: 0x0, symName: __ZNKSt3__16vectorINS_12basic_stringIcNS_11char_traitsIcEENS_9allocatorIcEEEENS4_IS6_EEE14__annotate_newB8ue170006Em, symObjAddr: 0x1680, symBinAddr: 0x100004560, symSize: 0xC8 }
  - { offsetInCU: 0x345EC, offset: 0x345EC, size: 0x8, addend: 0x0, symName: __ZNSt3__116allocator_traitsINS_9allocatorINS_12basic_stringIcNS_11char_traitsIcEENS1_IcEEEEEEE8max_sizeB8ue170006IS7_vEEmRKS7_, symObjAddr: 0x1774, symBinAddr: 0x100004654, symSize: 0x24 }
  - { offsetInCU: 0x3461A, offset: 0x3461A, size: 0x8, addend: 0x0, symName: __ZNKSt3__16vectorINS_12basic_stringIcNS_11char_traitsIcEENS_9allocatorIcEEEENS4_IS6_EEE7__allocB8ue170006Ev, symObjAddr: 0x1798, symBinAddr: 0x100004678, symSize: 0x28 }
  - { offsetInCU: 0x34640, offset: 0x34640, size: 0x8, addend: 0x0, symName: __ZNSt3__114numeric_limitsIlE3maxB8ue170006Ev, symObjAddr: 0x17C0, symBinAddr: 0x1000046A0, symSize: 0x14 }
  - { offsetInCU: 0x34660, offset: 0x34660, size: 0x8, addend: 0x0, symName: __ZNKSt3__16__lessIvvEclB8ue170006ImmEEbRKT_RKT0_, symObjAddr: 0x1834, symBinAddr: 0x100004714, symSize: 0x34 }
  - { offsetInCU: 0x346B4, offset: 0x346B4, size: 0x8, addend: 0x0, symName: __ZNKSt3__19allocatorINS_12basic_stringIcNS_11char_traitsIcEENS0_IcEEEEE8max_sizeB8ue170006Ev, symObjAddr: 0x1868, symBinAddr: 0x100004748, symSize: 0x18 }
  - { offsetInCU: 0x346DA, offset: 0x346DA, size: 0x8, addend: 0x0, symName: __ZNKSt3__117__compressed_pairIPNS_12basic_stringIcNS_11char_traitsIcEENS_9allocatorIcEEEENS4_IS6_EEE6secondB8ue170006Ev, symObjAddr: 0x1880, symBinAddr: 0x100004760, symSize: 0x24 }
  - { offsetInCU: 0x34700, offset: 0x34700, size: 0x8, addend: 0x0, symName: __ZNKSt3__122__compressed_pair_elemINS_9allocatorINS_12basic_stringIcNS_11char_traitsIcEENS1_IcEEEEEELi1ELb1EE5__getB8ue170006Ev, symObjAddr: 0x18A4, symBinAddr: 0x100004784, symSize: 0x14 }
  - { offsetInCU: 0x34726, offset: 0x34726, size: 0x8, addend: 0x0, symName: __ZNSt3__123__libcpp_numeric_limitsIlLb1EE3maxB8ue170006Ev, symObjAddr: 0x18B8, symBinAddr: 0x100004798, symSize: 0x8 }
  - { offsetInCU: 0x3473A, offset: 0x3473A, size: 0x8, addend: 0x0, symName: __ZNSt12length_errorC1B8ue170006EPKc, symObjAddr: 0x1924, symBinAddr: 0x100004804, symSize: 0x34 }
  - { offsetInCU: 0x34772, offset: 0x34772, size: 0x8, addend: 0x0, symName: __ZNSt12length_errorC2B8ue170006EPKc, symObjAddr: 0x1958, symBinAddr: 0x100004838, symSize: 0x4C }
  - { offsetInCU: 0x347AA, offset: 0x347AA, size: 0x8, addend: 0x0, symName: __ZNSt3__19allocatorINS_12basic_stringIcNS_11char_traitsIcEENS0_IcEEEEE8allocateB8ue170006Em, symObjAddr: 0x19A4, symBinAddr: 0x100004884, symSize: 0x5C }
  - { offsetInCU: 0x347DE, offset: 0x347DE, size: 0x8, addend: 0x0, symName: __ZNSt3__117__compressed_pairIPNS_12basic_stringIcNS_11char_traitsIcEENS_9allocatorIcEEEENS4_IS6_EEE6secondB8ue170006Ev, symObjAddr: 0x1B04, symBinAddr: 0x1000049E4, symSize: 0x24 }
  - { offsetInCU: 0x34804, offset: 0x34804, size: 0x8, addend: 0x0, symName: __ZNSt3__122__compressed_pair_elemINS_9allocatorINS_12basic_stringIcNS_11char_traitsIcEENS1_IcEEEEEELi1ELb1EE5__getB8ue170006Ev, symObjAddr: 0x1B28, symBinAddr: 0x100004A08, symSize: 0x14 }
  - { offsetInCU: 0x3482A, offset: 0x3482A, size: 0x8, addend: 0x0, symName: __ZNSt3__117__compressed_pairIPNS_12basic_stringIcNS_11char_traitsIcEENS_9allocatorIcEEEENS4_IS6_EEE5firstB8ue170006Ev, symObjAddr: 0x1B3C, symBinAddr: 0x100004A1C, symSize: 0x24 }
  - { offsetInCU: 0x34850, offset: 0x34850, size: 0x8, addend: 0x0, symName: __ZNSt3__122__compressed_pair_elemIPNS_12basic_stringIcNS_11char_traitsIcEENS_9allocatorIcEEEELi0ELb0EE5__getB8ue170006Ev, symObjAddr: 0x1B60, symBinAddr: 0x100004A40, symSize: 0x14 }
  - { offsetInCU: 0x34876, offset: 0x34876, size: 0x8, addend: 0x0, symName: __ZNKSt3__16vectorINS_12basic_stringIcNS_11char_traitsIcEENS_9allocatorIcEEEENS4_IS6_EEE31__annotate_contiguous_containerB8ue170006EPKvSA_SA_SA_, symObjAddr: 0x1B74, symBinAddr: 0x100004A54, symSize: 0x20 }
  - { offsetInCU: 0x348CC, offset: 0x348CC, size: 0x8, addend: 0x0, symName: __ZNKSt3__16vectorINS_12basic_stringIcNS_11char_traitsIcEENS_9allocatorIcEEEENS4_IS6_EEE4dataB8ue170006Ev, symObjAddr: 0x1B94, symBinAddr: 0x100004A74, symSize: 0x28 }
  - { offsetInCU: 0x348F2, offset: 0x348F2, size: 0x8, addend: 0x0, symName: __ZNKSt3__16vectorINS_12basic_stringIcNS_11char_traitsIcEENS_9allocatorIcEEEENS4_IS6_EEE8capacityB8ue170006Ev, symObjAddr: 0x1BBC, symBinAddr: 0x100004A9C, symSize: 0x40 }
  - { offsetInCU: 0x34918, offset: 0x34918, size: 0x8, addend: 0x0, symName: __ZNKSt3__16vectorINS_12basic_stringIcNS_11char_traitsIcEENS_9allocatorIcEEEENS4_IS6_EEE9__end_capB8ue170006Ev, symObjAddr: 0x1C10, symBinAddr: 0x100004AF0, symSize: 0x28 }
  - { offsetInCU: 0x3493E, offset: 0x3493E, size: 0x8, addend: 0x0, symName: __ZNKSt3__117__compressed_pairIPNS_12basic_stringIcNS_11char_traitsIcEENS_9allocatorIcEEEENS4_IS6_EEE5firstB8ue170006Ev, symObjAddr: 0x1C38, symBinAddr: 0x100004B18, symSize: 0x24 }
  - { offsetInCU: 0x34964, offset: 0x34964, size: 0x8, addend: 0x0, symName: __ZNKSt3__122__compressed_pair_elemIPNS_12basic_stringIcNS_11char_traitsIcEENS_9allocatorIcEEEELi0ELb0EE5__getB8ue170006Ev, symObjAddr: 0x1C5C, symBinAddr: 0x100004B3C, symSize: 0x14 }
  - { offsetInCU: 0x349A8, offset: 0x349A8, size: 0x8, addend: 0x0, symName: __ZNSt3__16vectorINS_12basic_stringIcNS_11char_traitsIcEENS_9allocatorIcEEEENS4_IS6_EEE21_ConstructTransactionC1B8ue170006ERS8_m, symObjAddr: 0x1C70, symBinAddr: 0x100004B50, symSize: 0x3C }
  - { offsetInCU: 0x349F0, offset: 0x349F0, size: 0x8, addend: 0x0, symName: __ZNSt3__16vectorINS_12basic_stringIcNS_11char_traitsIcEENS_9allocatorIcEEEENS4_IS6_EEE21_ConstructTransactionD1B8ue170006Ev, symObjAddr: 0x1D2C, symBinAddr: 0x100004C0C, symSize: 0x2C }
  - { offsetInCU: 0x34A1A, offset: 0x34A1A, size: 0x8, addend: 0x0, symName: __ZNSt3__16vectorINS_12basic_stringIcNS_11char_traitsIcEENS_9allocatorIcEEEENS4_IS6_EEE21_ConstructTransactionC2B8ue170006ERS8_m, symObjAddr: 0x1D58, symBinAddr: 0x100004C38, symSize: 0x4C }
  - { offsetInCU: 0x34A86, offset: 0x34A86, size: 0x8, addend: 0x0, symName: __ZNSt3__14pairIPKNS_12basic_stringIcNS_11char_traitsIcEENS_9allocatorIcEEEES8_EC1B8ue170006IS8_S8_LPv0EEEOT_OT0_, symObjAddr: 0x1FB4, symBinAddr: 0x100004E94, symSize: 0x3C }
  - { offsetInCU: 0x34AE4, offset: 0x34AE4, size: 0x8, addend: 0x0, symName: __ZNSt3__14pairIPKNS_12basic_stringIcNS_11char_traitsIcEENS_9allocatorIcEEEES8_EC2B8ue170006IS8_S8_LPv0EEEOT_OT0_, symObjAddr: 0x1FF0, symBinAddr: 0x100004ED0, symSize: 0x34 }
  - { offsetInCU: 0x34B42, offset: 0x34B42, size: 0x8, addend: 0x0, symName: __ZNSt3__118__unwrap_iter_implIPKNS_12basic_stringIcNS_11char_traitsIcEENS_9allocatorIcEEEELb1EE8__unwrapB8ue170006ES8_, symObjAddr: 0x2024, symBinAddr: 0x100004F04, symSize: 0x24 }
  - { offsetInCU: 0x34B65, offset: 0x34B65, size: 0x8, addend: 0x0, symName: __ZNSt3__129_AllocatorDestroyRangeReverseINS_9allocatorINS_12basic_stringIcNS_11char_traitsIcEENS1_IcEEEEEEPS6_EC1B8ue170006ERS7_RS8_SB_, symObjAddr: 0x20A8, symBinAddr: 0x100004F88, symSize: 0x44 }
  - { offsetInCU: 0x34BBC, offset: 0x34BBC, size: 0x8, addend: 0x0, symName: __ZNSt3__116allocator_traitsINS_9allocatorINS_12basic_stringIcNS_11char_traitsIcEENS1_IcEEEEEEE9constructB8ue170006IS6_JRKS6_EvEEvRS7_PT_DpOT0_, symObjAddr: 0x20EC, symBinAddr: 0x100004FCC, symSize: 0x34 }
  - { offsetInCU: 0x34C13, offset: 0x34C13, size: 0x8, addend: 0x0, symName: __ZNSt3__128__exception_guard_exceptionsINS_29_AllocatorDestroyRangeReverseINS_9allocatorINS_12basic_stringIcNS_11char_traitsIcEENS2_IcEEEEEEPS7_EEE10__completeB8ue170006Ev, symObjAddr: 0x2120, symBinAddr: 0x100005000, symSize: 0x1C }
  - { offsetInCU: 0x34C39, offset: 0x34C39, size: 0x8, addend: 0x0, symName: __ZNSt3__128__exception_guard_exceptionsINS_29_AllocatorDestroyRangeReverseINS_9allocatorINS_12basic_stringIcNS_11char_traitsIcEENS2_IcEEEEEEPS7_EEED1B8ue170006Ev, symObjAddr: 0x213C, symBinAddr: 0x10000501C, symSize: 0x2C }
  - { offsetInCU: 0x34C63, offset: 0x34C63, size: 0x8, addend: 0x0, symName: __ZNSt3__128__exception_guard_exceptionsINS_29_AllocatorDestroyRangeReverseINS_9allocatorINS_12basic_stringIcNS_11char_traitsIcEENS2_IcEEEEEEPS7_EEEC1B8ue170006ESA_, symObjAddr: 0x2168, symBinAddr: 0x100005048, symSize: 0x34 }
  - { offsetInCU: 0x34C9C, offset: 0x34C9C, size: 0x8, addend: 0x0, symName: __ZNSt3__128__exception_guard_exceptionsINS_29_AllocatorDestroyRangeReverseINS_9allocatorINS_12basic_stringIcNS_11char_traitsIcEENS2_IcEEEEEEPS7_EEEC2B8ue170006ESA_, symObjAddr: 0x219C, symBinAddr: 0x10000507C, symSize: 0x30 }
  - { offsetInCU: 0x34CD5, offset: 0x34CD5, size: 0x8, addend: 0x0, symName: __ZNSt3__129_AllocatorDestroyRangeReverseINS_9allocatorINS_12basic_stringIcNS_11char_traitsIcEENS1_IcEEEEEEPS6_EC2B8ue170006ERS7_RS8_SB_, symObjAddr: 0x21CC, symBinAddr: 0x1000050AC, symSize: 0x38 }
  - { offsetInCU: 0x34D2C, offset: 0x34D2C, size: 0x8, addend: 0x0, symName: __ZNSt3__19allocatorINS_12basic_stringIcNS_11char_traitsIcEENS0_IcEEEEE9constructB8ue170006IS5_JRKS5_EEEvPT_DpOT0_, symObjAddr: 0x2204, symBinAddr: 0x1000050E4, symSize: 0x30 }
  - { offsetInCU: 0x34D82, offset: 0x34D82, size: 0x8, addend: 0x0, symName: __ZNSt3__128__exception_guard_exceptionsINS_29_AllocatorDestroyRangeReverseINS_9allocatorINS_12basic_stringIcNS_11char_traitsIcEENS2_IcEEEEEEPS7_EEED2B8ue170006Ev, symObjAddr: 0x2234, symBinAddr: 0x100005114, symSize: 0x50 }
  - { offsetInCU: 0x34DAC, offset: 0x34DAC, size: 0x8, addend: 0x0, symName: __ZNKSt3__129_AllocatorDestroyRangeReverseINS_9allocatorINS_12basic_stringIcNS_11char_traitsIcEENS1_IcEEEEEEPS6_EclB8ue170006Ev, symObjAddr: 0x2284, symBinAddr: 0x100005164, symSize: 0x68 }
  - { offsetInCU: 0x34DD2, offset: 0x34DD2, size: 0x8, addend: 0x0, symName: __ZNSt3__116reverse_iteratorIPNS_12basic_stringIcNS_11char_traitsIcEENS_9allocatorIcEEEEEC1B8ue170006ES7_, symObjAddr: 0x235C, symBinAddr: 0x10000523C, symSize: 0x34 }
  - { offsetInCU: 0x34E0A, offset: 0x34E0A, size: 0x8, addend: 0x0, symName: __ZNSt3__116allocator_traitsINS_9allocatorINS_12basic_stringIcNS_11char_traitsIcEENS1_IcEEEEEEE7destroyB8ue170006IS6_vEEvRS7_PT_, symObjAddr: 0x23D8, symBinAddr: 0x1000052B8, symSize: 0x2C }
  - { offsetInCU: 0x34E47, offset: 0x34E47, size: 0x8, addend: 0x0, symName: __ZNSt3__116reverse_iteratorIPNS_12basic_stringIcNS_11char_traitsIcEENS_9allocatorIcEEEEEppB8ue170006Ev, symObjAddr: 0x2428, symBinAddr: 0x100005308, symSize: 0x20 }
  - { offsetInCU: 0x34E6D, offset: 0x34E6D, size: 0x8, addend: 0x0, symName: __ZNKSt3__116reverse_iteratorIPNS_12basic_stringIcNS_11char_traitsIcEENS_9allocatorIcEEEEE4baseB8ue170006Ev, symObjAddr: 0x2448, symBinAddr: 0x100005328, symSize: 0x18 }
  - { offsetInCU: 0x34E93, offset: 0x34E93, size: 0x8, addend: 0x0, symName: __ZNSt3__19allocatorINS_12basic_stringIcNS_11char_traitsIcEENS0_IcEEEEE7destroyB8ue170006EPS5_, symObjAddr: 0x2460, symBinAddr: 0x100005340, symSize: 0x28 }
  - { offsetInCU: 0x34ECD, offset: 0x34ECD, size: 0x8, addend: 0x0, symName: __ZNSt3__119__to_address_helperINS_16reverse_iteratorIPNS_12basic_stringIcNS_11char_traitsIcEENS_9allocatorIcEEEEEEvE6__callB8ue170006ERKS9_, symObjAddr: 0x2488, symBinAddr: 0x100005368, symSize: 0x38 }
  - { offsetInCU: 0x34EF0, offset: 0x34EF0, size: 0x8, addend: 0x0, symName: __ZNKSt3__116reverse_iteratorIPNS_12basic_stringIcNS_11char_traitsIcEENS_9allocatorIcEEEEEptB8ue170006Ev, symObjAddr: 0x24C0, symBinAddr: 0x1000053A0, symSize: 0x24 }
  - { offsetInCU: 0x34F16, offset: 0x34F16, size: 0x8, addend: 0x0, symName: __ZNKSt3__116reverse_iteratorIPNS_12basic_stringIcNS_11char_traitsIcEENS_9allocatorIcEEEEEdeB8ue170006Ev, symObjAddr: 0x24E4, symBinAddr: 0x1000053C4, symSize: 0x28 }
  - { offsetInCU: 0x34F4A, offset: 0x34F4A, size: 0x8, addend: 0x0, symName: __ZNSt3__116reverse_iteratorIPNS_12basic_stringIcNS_11char_traitsIcEENS_9allocatorIcEEEEEC2B8ue170006ES7_, symObjAddr: 0x250C, symBinAddr: 0x1000053EC, symSize: 0x28 }
  - { offsetInCU: 0x34F82, offset: 0x34F82, size: 0x8, addend: 0x0, symName: __ZNSt3__118__unwrap_iter_implIPNS_12basic_stringIcNS_11char_traitsIcEENS_9allocatorIcEEEELb1EE8__unwrapB8ue170006ES7_, symObjAddr: 0x2534, symBinAddr: 0x100005414, symSize: 0x24 }
  - { offsetInCU: 0x34FA5, offset: 0x34FA5, size: 0x8, addend: 0x0, symName: __ZNSt3__118__unwrap_iter_implIPNS_12basic_stringIcNS_11char_traitsIcEENS_9allocatorIcEEEELb1EE8__rewrapB8ue170006ES7_S7_, symObjAddr: 0x2558, symBinAddr: 0x100005438, symSize: 0x58 }
  - { offsetInCU: 0x34FD6, offset: 0x34FD6, size: 0x8, addend: 0x0, symName: __ZNSt3__16vectorINS_12basic_stringIcNS_11char_traitsIcEENS_9allocatorIcEEEENS4_IS6_EEE21_ConstructTransactionD2B8ue170006Ev, symObjAddr: 0x25B0, symBinAddr: 0x100005490, symSize: 0x20 }
  - { offsetInCU: 0x35000, offset: 0x35000, size: 0x8, addend: 0x0, symName: __ZNSt3__128__exception_guard_exceptionsINS_6vectorINS_12basic_stringIcNS_11char_traitsIcEENS_9allocatorIcEEEENS5_IS7_EEE16__destroy_vectorEED2B8ue170006Ev, symObjAddr: 0x25D0, symBinAddr: 0x1000054B0, symSize: 0x50 }
  - { offsetInCU: 0x3502A, offset: 0x3502A, size: 0x8, addend: 0x0, symName: __ZNSt3__16vectorINS_12basic_stringIcNS_11char_traitsIcEENS_9allocatorIcEEEENS4_IS6_EEE16__destroy_vectorclB8ue170006Ev, symObjAddr: 0x2620, symBinAddr: 0x100005500, symSize: 0x90 }
  - { offsetInCU: 0x35050, offset: 0x35050, size: 0x8, addend: 0x0, symName: __ZNSt3__16vectorINS_12basic_stringIcNS_11char_traitsIcEENS_9allocatorIcEEEENS4_IS6_EEE7__clearB8ue170006Ev, symObjAddr: 0x26B0, symBinAddr: 0x100005590, symSize: 0x28 }
  - { offsetInCU: 0x35076, offset: 0x35076, size: 0x8, addend: 0x0, symName: __ZNKSt3__16vectorINS_12basic_stringIcNS_11char_traitsIcEENS_9allocatorIcEEEENS4_IS6_EEE17__annotate_deleteB8ue170006Ev, symObjAddr: 0x26D8, symBinAddr: 0x1000055B8, symSize: 0xD4 }
  - { offsetInCU: 0x3509C, offset: 0x3509C, size: 0x8, addend: 0x0, symName: __ZNSt3__116allocator_traitsINS_9allocatorINS_12basic_stringIcNS_11char_traitsIcEENS1_IcEEEEEEE10deallocateB8ue170006ERS7_PS6_m, symObjAddr: 0x27AC, symBinAddr: 0x10000568C, symSize: 0x34 }
  - { offsetInCU: 0x350DE, offset: 0x350DE, size: 0x8, addend: 0x0, symName: __ZNSt3__16vectorINS_12basic_stringIcNS_11char_traitsIcEENS_9allocatorIcEEEENS4_IS6_EEE22__base_destruct_at_endB8ue170006EPS6_, symObjAddr: 0x27E0, symBinAddr: 0x1000056C0, symSize: 0x8C }
  - { offsetInCU: 0x35122, offset: 0x35122, size: 0x8, addend: 0x0, symName: __ZNKSt3__16vectorINS_12basic_stringIcNS_11char_traitsIcEENS_9allocatorIcEEEENS4_IS6_EEE4sizeB8ue170006Ev, symObjAddr: 0x286C, symBinAddr: 0x10000574C, symSize: 0x28 }
  - { offsetInCU: 0x35148, offset: 0x35148, size: 0x8, addend: 0x0, symName: __ZNSt3__19allocatorINS_12basic_stringIcNS_11char_traitsIcEENS0_IcEEEEE10deallocateB8ue170006EPS5_m, symObjAddr: 0x2894, symBinAddr: 0x100005774, symSize: 0x44 }
  - { offsetInCU: 0x3518A, offset: 0x3518A, size: 0x8, addend: 0x0, symName: __ZN11PlayerLevelC2Ev, symObjAddr: 0x29E0, symBinAddr: 0x1000058C0, symSize: 0x20 }
  - { offsetInCU: 0x351B4, offset: 0x351B4, size: 0x8, addend: 0x0, symName: __ZNSt3__16vectorINS_8functionIFNS_10unique_ptrI12FruitToppingNS_14default_deleteIS3_EEEEvEEENS_9allocatorIS8_EEEC1B8ue170006Ev, symObjAddr: 0x2BF4, symBinAddr: 0x100005AD4, symSize: 0x2C }
  - { offsetInCU: 0x351DE, offset: 0x351DE, size: 0x8, addend: 0x0, symName: __ZNSt3__16vectorINS_8functionIFNS_10unique_ptrI12SweetToppingNS_14default_deleteIS3_EEEEvEEENS_9allocatorIS8_EEEC1B8ue170006Ev, symObjAddr: 0x2C20, symBinAddr: 0x100005B00, symSize: 0x2C }
  - { offsetInCU: 0x35208, offset: 0x35208, size: 0x8, addend: 0x0, symName: __ZNSt3__16vectorINS_8functionIFNS_10unique_ptrI12FruitToppingNS_14default_deleteIS3_EEEEvEEENS_9allocatorIS8_EEE9push_backB8ue170006EOS8_, symObjAddr: 0x2C4C, symBinAddr: 0x100005B2C, symSize: 0x6C }
  - { offsetInCU: 0x3523F, offset: 0x3523F, size: 0x8, addend: 0x0, symName: __ZNSt3__18functionIFNS_10unique_ptrI12FruitToppingNS_14default_deleteIS2_EEEEvEEC1IZN11ToppingListC1EvEUlvE_vEET_, symObjAddr: 0x2CB8, symBinAddr: 0x100005B98, symSize: 0x2C }
  - { offsetInCU: 0x35284, offset: 0x35284, size: 0x8, addend: 0x0, symName: __ZNSt3__18functionIFNS_10unique_ptrI12FruitToppingNS_14default_deleteIS2_EEEEvEED1Ev, symObjAddr: 0x2CE4, symBinAddr: 0x100005BC4, symSize: 0x2C }
  - { offsetInCU: 0x352B0, offset: 0x352B0, size: 0x8, addend: 0x0, symName: __ZNSt3__18functionIFNS_10unique_ptrI12FruitToppingNS_14default_deleteIS2_EEEEvEEC1IZN11ToppingListC1EvEUlvE0_vEET_, symObjAddr: 0x2D10, symBinAddr: 0x100005BF0, symSize: 0x2C }
  - { offsetInCU: 0x352F5, offset: 0x352F5, size: 0x8, addend: 0x0, symName: __ZNSt3__16vectorINS_8functionIFNS_10unique_ptrI12SweetToppingNS_14default_deleteIS3_EEEEvEEENS_9allocatorIS8_EEE9push_backB8ue170006EOS8_, symObjAddr: 0x2D3C, symBinAddr: 0x100005C1C, symSize: 0x6C }
  - { offsetInCU: 0x3532C, offset: 0x3532C, size: 0x8, addend: 0x0, symName: __ZNSt3__18functionIFNS_10unique_ptrI12SweetToppingNS_14default_deleteIS2_EEEEvEEC1IZN11ToppingListC1EvEUlvE1_vEET_, symObjAddr: 0x2DA8, symBinAddr: 0x100005C88, symSize: 0x2C }
  - { offsetInCU: 0x35371, offset: 0x35371, size: 0x8, addend: 0x0, symName: __ZNSt3__18functionIFNS_10unique_ptrI12SweetToppingNS_14default_deleteIS2_EEEEvEED1Ev, symObjAddr: 0x2DD4, symBinAddr: 0x100005CB4, symSize: 0x2C }
  - { offsetInCU: 0x3539D, offset: 0x3539D, size: 0x8, addend: 0x0, symName: __ZNSt3__18functionIFNS_10unique_ptrI12SweetToppingNS_14default_deleteIS2_EEEEvEEC1IZN11ToppingListC1EvEUlvE2_vEET_, symObjAddr: 0x2E00, symBinAddr: 0x100005CE0, symSize: 0x2C }
  - { offsetInCU: 0x353E2, offset: 0x353E2, size: 0x8, addend: 0x0, symName: __ZNSt3__18functionIFNS_10unique_ptrI12SweetToppingNS_14default_deleteIS2_EEEEvEEC1IZN11ToppingListC1EvEUlvE3_vEET_, symObjAddr: 0x2E2C, symBinAddr: 0x100005D0C, symSize: 0x2C }
  - { offsetInCU: 0x35427, offset: 0x35427, size: 0x8, addend: 0x0, symName: __ZNSt3__16vectorINS_8functionIFNS_10unique_ptrI12SweetToppingNS_14default_deleteIS3_EEEEvEEENS_9allocatorIS8_EEED1B8ue170006Ev, symObjAddr: 0x2E58, symBinAddr: 0x100005D38, symSize: 0x2C }
  - { offsetInCU: 0x35451, offset: 0x35451, size: 0x8, addend: 0x0, symName: __ZNSt3__16vectorINS_8functionIFNS_10unique_ptrI12FruitToppingNS_14default_deleteIS3_EEEEvEEENS_9allocatorIS8_EEED1B8ue170006Ev, symObjAddr: 0x2E84, symBinAddr: 0x100005D64, symSize: 0x2C }
  - { offsetInCU: 0x3547B, offset: 0x3547B, size: 0x8, addend: 0x0, symName: __ZNSt3__16vectorINS_8functionIFNS_10unique_ptrI12FruitToppingNS_14default_deleteIS3_EEEEvEEENS_9allocatorIS8_EEEC2B8ue170006Ev, symObjAddr: 0x2EB0, symBinAddr: 0x100005D90, symSize: 0x4C }
  - { offsetInCU: 0x354A5, offset: 0x354A5, size: 0x8, addend: 0x0, symName: __ZNSt3__117__compressed_pairIPNS_8functionIFNS_10unique_ptrI12FruitToppingNS_14default_deleteIS3_EEEEvEEENS_9allocatorIS8_EEEC1B8ue170006IDnNS_18__default_init_tagEEEOT_OT0_, symObjAddr: 0x2EFC, symBinAddr: 0x100005DDC, symSize: 0x3C }
  - { offsetInCU: 0x354FD, offset: 0x354FD, size: 0x8, addend: 0x0, symName: __ZNSt3__117__compressed_pairIPNS_8functionIFNS_10unique_ptrI12FruitToppingNS_14default_deleteIS3_EEEEvEEENS_9allocatorIS8_EEEC2B8ue170006IDnNS_18__default_init_tagEEEOT_OT0_, symObjAddr: 0x2F38, symBinAddr: 0x100005E18, symSize: 0x40 }
  - { offsetInCU: 0x35555, offset: 0x35555, size: 0x8, addend: 0x0, symName: __ZNSt3__122__compressed_pair_elemIPNS_8functionIFNS_10unique_ptrI12FruitToppingNS_14default_deleteIS3_EEEEvEEELi0ELb0EEC2B8ue170006IDnvEEOT_, symObjAddr: 0x2F78, symBinAddr: 0x100005E58, symSize: 0x1C }
  - { offsetInCU: 0x35597, offset: 0x35597, size: 0x8, addend: 0x0, symName: __ZNSt3__122__compressed_pair_elemINS_9allocatorINS_8functionIFNS_10unique_ptrI12FruitToppingNS_14default_deleteIS4_EEEEvEEEEELi1ELb1EEC2B8ue170006ENS_18__default_init_tagE, symObjAddr: 0x2F94, symBinAddr: 0x100005E74, symSize: 0x2C }
  - { offsetInCU: 0x355CB, offset: 0x355CB, size: 0x8, addend: 0x0, symName: __ZNSt3__19allocatorINS_8functionIFNS_10unique_ptrI12FruitToppingNS_14default_deleteIS3_EEEEvEEEEC2B8ue170006Ev, symObjAddr: 0x2FC0, symBinAddr: 0x100005EA0, symSize: 0x2C }
  - { offsetInCU: 0x355F5, offset: 0x355F5, size: 0x8, addend: 0x0, symName: __ZNSt3__116__non_trivial_ifILb1ENS_9allocatorINS_8functionIFNS_10unique_ptrI12FruitToppingNS_14default_deleteIS4_EEEEvEEEEEEC2B8ue170006Ev, symObjAddr: 0x2FEC, symBinAddr: 0x100005ECC, symSize: 0x14 }
  - { offsetInCU: 0x3561F, offset: 0x3561F, size: 0x8, addend: 0x0, symName: __ZNSt3__16vectorINS_8functionIFNS_10unique_ptrI12SweetToppingNS_14default_deleteIS3_EEEEvEEENS_9allocatorIS8_EEEC2B8ue170006Ev, symObjAddr: 0x3000, symBinAddr: 0x100005EE0, symSize: 0x4C }
  - { offsetInCU: 0x35649, offset: 0x35649, size: 0x8, addend: 0x0, symName: __ZNSt3__117__compressed_pairIPNS_8functionIFNS_10unique_ptrI12SweetToppingNS_14default_deleteIS3_EEEEvEEENS_9allocatorIS8_EEEC1B8ue170006IDnNS_18__default_init_tagEEEOT_OT0_, symObjAddr: 0x304C, symBinAddr: 0x100005F2C, symSize: 0x3C }
  - { offsetInCU: 0x356A1, offset: 0x356A1, size: 0x8, addend: 0x0, symName: __ZNSt3__117__compressed_pairIPNS_8functionIFNS_10unique_ptrI12SweetToppingNS_14default_deleteIS3_EEEEvEEENS_9allocatorIS8_EEEC2B8ue170006IDnNS_18__default_init_tagEEEOT_OT0_, symObjAddr: 0x3088, symBinAddr: 0x100005F68, symSize: 0x40 }
  - { offsetInCU: 0x356F9, offset: 0x356F9, size: 0x8, addend: 0x0, symName: __ZNSt3__122__compressed_pair_elemIPNS_8functionIFNS_10unique_ptrI12SweetToppingNS_14default_deleteIS3_EEEEvEEELi0ELb0EEC2B8ue170006IDnvEEOT_, symObjAddr: 0x30C8, symBinAddr: 0x100005FA8, symSize: 0x1C }
  - { offsetInCU: 0x3573B, offset: 0x3573B, size: 0x8, addend: 0x0, symName: __ZNSt3__122__compressed_pair_elemINS_9allocatorINS_8functionIFNS_10unique_ptrI12SweetToppingNS_14default_deleteIS4_EEEEvEEEEELi1ELb1EEC2B8ue170006ENS_18__default_init_tagE, symObjAddr: 0x30E4, symBinAddr: 0x100005FC4, symSize: 0x2C }
  - { offsetInCU: 0x3576F, offset: 0x3576F, size: 0x8, addend: 0x0, symName: __ZNSt3__19allocatorINS_8functionIFNS_10unique_ptrI12SweetToppingNS_14default_deleteIS3_EEEEvEEEEC2B8ue170006Ev, symObjAddr: 0x3110, symBinAddr: 0x100005FF0, symSize: 0x2C }
  - { offsetInCU: 0x35799, offset: 0x35799, size: 0x8, addend: 0x0, symName: __ZNSt3__116__non_trivial_ifILb1ENS_9allocatorINS_8functionIFNS_10unique_ptrI12SweetToppingNS_14default_deleteIS4_EEEEvEEEEEEC2B8ue170006Ev, symObjAddr: 0x313C, symBinAddr: 0x10000601C, symSize: 0x14 }
  - { offsetInCU: 0x357C3, offset: 0x357C3, size: 0x8, addend: 0x0, symName: __ZNSt3__16vectorINS_8functionIFNS_10unique_ptrI12FruitToppingNS_14default_deleteIS3_EEEEvEEENS_9allocatorIS8_EEE9__end_capB8ue170006Ev, symObjAddr: 0x3150, symBinAddr: 0x100006030, symSize: 0x28 }
  - { offsetInCU: 0x357E9, offset: 0x357E9, size: 0x8, addend: 0x0, symName: __ZNSt3__16vectorINS_8functionIFNS_10unique_ptrI12FruitToppingNS_14default_deleteIS3_EEEEvEEENS_9allocatorIS8_EEE22__construct_one_at_endB8ue170006IJS8_EEEvDpOT_, symObjAddr: 0x3178, symBinAddr: 0x100006058, symSize: 0x90 }
  - { offsetInCU: 0x35838, offset: 0x35838, size: 0x8, addend: 0x0, symName: __ZNSt3__16vectorINS_8functionIFNS_10unique_ptrI12FruitToppingNS_14default_deleteIS3_EEEEvEEENS_9allocatorIS8_EEE21__push_back_slow_pathIS8_EEvOT_, symObjAddr: 0x3208, symBinAddr: 0x1000060E8, symSize: 0xD8 }
  - { offsetInCU: 0x35896, offset: 0x35896, size: 0x8, addend: 0x0, symName: __ZNSt3__117__compressed_pairIPNS_8functionIFNS_10unique_ptrI12FruitToppingNS_14default_deleteIS3_EEEEvEEENS_9allocatorIS8_EEE5firstB8ue170006Ev, symObjAddr: 0x32E0, symBinAddr: 0x1000061C0, symSize: 0x24 }
  - { offsetInCU: 0x358BC, offset: 0x358BC, size: 0x8, addend: 0x0, symName: __ZNSt3__122__compressed_pair_elemIPNS_8functionIFNS_10unique_ptrI12FruitToppingNS_14default_deleteIS3_EEEEvEEELi0ELb0EE5__getB8ue170006Ev, symObjAddr: 0x3304, symBinAddr: 0x1000061E4, symSize: 0x14 }
  - { offsetInCU: 0x35900, offset: 0x35900, size: 0x8, addend: 0x0, symName: __ZNSt3__16vectorINS_8functionIFNS_10unique_ptrI12FruitToppingNS_14default_deleteIS3_EEEEvEEENS_9allocatorIS8_EEE21_ConstructTransactionC1B8ue170006ERSB_m, symObjAddr: 0x3318, symBinAddr: 0x1000061F8, symSize: 0x3C }
  - { offsetInCU: 0x35948, offset: 0x35948, size: 0x8, addend: 0x0, symName: __ZNSt3__116allocator_traitsINS_9allocatorINS_8functionIFNS_10unique_ptrI12FruitToppingNS_14default_deleteIS4_EEEEvEEEEEE9constructB8ue170006IS9_JS9_EvEEvRSA_PT_DpOT0_, symObjAddr: 0x3354, symBinAddr: 0x100006234, symSize: 0x34 }
  - { offsetInCU: 0x3599F, offset: 0x3599F, size: 0x8, addend: 0x0, symName: __ZNSt3__16vectorINS_8functionIFNS_10unique_ptrI12FruitToppingNS_14default_deleteIS3_EEEEvEEENS_9allocatorIS8_EEE7__allocB8ue170006Ev, symObjAddr: 0x3388, symBinAddr: 0x100006268, symSize: 0x28 }
  - { offsetInCU: 0x359C5, offset: 0x359C5, size: 0x8, addend: 0x0, symName: __ZNSt3__16vectorINS_8functionIFNS_10unique_ptrI12FruitToppingNS_14default_deleteIS3_EEEEvEEENS_9allocatorIS8_EEE21_ConstructTransactionD1B8ue170006Ev, symObjAddr: 0x33C4, symBinAddr: 0x1000062A4, symSize: 0x2C }
  - { offsetInCU: 0x359EF, offset: 0x359EF, size: 0x8, addend: 0x0, symName: __ZNSt3__16vectorINS_8functionIFNS_10unique_ptrI12FruitToppingNS_14default_deleteIS3_EEEEvEEENS_9allocatorIS8_EEE21_ConstructTransactionC2B8ue170006ERSB_m, symObjAddr: 0x33F0, symBinAddr: 0x1000062D0, symSize: 0x44 }
  - { offsetInCU: 0x35A37, offset: 0x35A37, size: 0x8, addend: 0x0, symName: __ZNSt3__19allocatorINS_8functionIFNS_10unique_ptrI12FruitToppingNS_14default_deleteIS3_EEEEvEEEE9constructB8ue170006IS8_JS8_EEEvPT_DpOT0_, symObjAddr: 0x3434, symBinAddr: 0x100006314, symSize: 0x30 }
  - { offsetInCU: 0x35A8D, offset: 0x35A8D, size: 0x8, addend: 0x0, symName: __ZNSt3__18functionIFNS_10unique_ptrI12FruitToppingNS_14default_deleteIS2_EEEEvEEC1EOS7_, symObjAddr: 0x3464, symBinAddr: 0x100006344, symSize: 0x34 }
  - { offsetInCU: 0x35AC8, offset: 0x35AC8, size: 0x8, addend: 0x0, symName: __ZNSt3__18functionIFNS_10unique_ptrI12FruitToppingNS_14default_deleteIS2_EEEEvEEC2EOS7_, symObjAddr: 0x3498, symBinAddr: 0x100006378, symSize: 0x34 }
  - { offsetInCU: 0x35B03, offset: 0x35B03, size: 0x8, addend: 0x0, symName: __ZNSt3__110__function12__value_funcIFNS_10unique_ptrI12FruitToppingNS_14default_deleteIS3_EEEEvEEC1B8ue170006EOS8_, symObjAddr: 0x34CC, symBinAddr: 0x1000063AC, symSize: 0x34 }
  - { offsetInCU: 0x35B3C, offset: 0x35B3C, size: 0x8, addend: 0x0, symName: __ZNSt3__110__function12__value_funcIFNS_10unique_ptrI12FruitToppingNS_14default_deleteIS3_EEEEvEEC2B8ue170006EOS8_, symObjAddr: 0x3500, symBinAddr: 0x1000063E0, symSize: 0xD0 }
  - { offsetInCU: 0x35B75, offset: 0x35B75, size: 0x8, addend: 0x0, symName: __ZNSt3__110__function12__value_funcIFNS_10unique_ptrI12FruitToppingNS_14default_deleteIS3_EEEEvEE9__as_baseB8ue170006EPv, symObjAddr: 0x35D0, symBinAddr: 0x1000064B0, symSize: 0x14 }
  - { offsetInCU: 0x35B99, offset: 0x35B99, size: 0x8, addend: 0x0, symName: __ZNSt3__117__compressed_pairIPNS_8functionIFNS_10unique_ptrI12FruitToppingNS_14default_deleteIS3_EEEEvEEENS_9allocatorIS8_EEE6secondB8ue170006Ev, symObjAddr: 0x35E4, symBinAddr: 0x1000064C4, symSize: 0x24 }
  - { offsetInCU: 0x35BBF, offset: 0x35BBF, size: 0x8, addend: 0x0, symName: __ZNSt3__122__compressed_pair_elemINS_9allocatorINS_8functionIFNS_10unique_ptrI12FruitToppingNS_14default_deleteIS4_EEEEvEEEEELi1ELb1EE5__getB8ue170006Ev, symObjAddr: 0x3608, symBinAddr: 0x1000064E8, symSize: 0x14 }
  - { offsetInCU: 0x35BE5, offset: 0x35BE5, size: 0x8, addend: 0x0, symName: __ZNSt3__16vectorINS_8functionIFNS_10unique_ptrI12FruitToppingNS_14default_deleteIS3_EEEEvEEENS_9allocatorIS8_EEE21_ConstructTransactionD2B8ue170006Ev, symObjAddr: 0x361C, symBinAddr: 0x1000064FC, symSize: 0x20 }
  - { offsetInCU: 0x35C0F, offset: 0x35C0F, size: 0x8, addend: 0x0, symName: __ZNKSt3__16vectorINS_8functionIFNS_10unique_ptrI12FruitToppingNS_14default_deleteIS3_EEEEvEEENS_9allocatorIS8_EEE11__recommendB8ue170006Em, symObjAddr: 0x363C, symBinAddr: 0x10000651C, symSize: 0xB4 }
  - { offsetInCU: 0x35C64, offset: 0x35C64, size: 0x8, addend: 0x0, symName: __ZNKSt3__16vectorINS_8functionIFNS_10unique_ptrI12FruitToppingNS_14default_deleteIS3_EEEEvEEENS_9allocatorIS8_EEE4sizeB8ue170006Ev, symObjAddr: 0x36F0, symBinAddr: 0x1000065D0, symSize: 0x28 }
  - { offsetInCU: 0x35C8A, offset: 0x35C8A, size: 0x8, addend: 0x0, symName: __ZNSt3__114__split_bufferINS_8functionIFNS_10unique_ptrI12FruitToppingNS_14default_deleteIS3_EEEEvEEERNS_9allocatorIS8_EEEC1EmmSB_, symObjAddr: 0x3718, symBinAddr: 0x1000065F8, symSize: 0x44 }
  - { offsetInCU: 0x35CE0, offset: 0x35CE0, size: 0x8, addend: 0x0, symName: __ZNSt3__114__split_bufferINS_8functionIFNS_10unique_ptrI12FruitToppingNS_14default_deleteIS3_EEEEvEEERNS_9allocatorIS8_EEED1Ev, symObjAddr: 0x386C, symBinAddr: 0x10000674C, symSize: 0x2C }
  - { offsetInCU: 0x35D0C, offset: 0x35D0C, size: 0x8, addend: 0x0, symName: __ZNKSt3__16vectorINS_8functionIFNS_10unique_ptrI12FruitToppingNS_14default_deleteIS3_EEEEvEEENS_9allocatorIS8_EEE8max_sizeEv, symObjAddr: 0x3898, symBinAddr: 0x100006778, symSize: 0x60 }
  - { offsetInCU: 0x35D34, offset: 0x35D34, size: 0x8, addend: 0x0, symName: __ZNKSt3__16vectorINS_8functionIFNS_10unique_ptrI12FruitToppingNS_14default_deleteIS3_EEEEvEEENS_9allocatorIS8_EEE20__throw_length_errorB8ue170006Ev, symObjAddr: 0x38F8, symBinAddr: 0x1000067D8, symSize: 0x1C }
  - { offsetInCU: 0x35D5A, offset: 0x35D5A, size: 0x8, addend: 0x0, symName: __ZNKSt3__16vectorINS_8functionIFNS_10unique_ptrI12FruitToppingNS_14default_deleteIS3_EEEEvEEENS_9allocatorIS8_EEE8capacityB8ue170006Ev, symObjAddr: 0x3914, symBinAddr: 0x1000067F4, symSize: 0x40 }
  - { offsetInCU: 0x35D8C, offset: 0x35D8C, size: 0x8, addend: 0x0, symName: __ZNSt3__116allocator_traitsINS_9allocatorINS_8functionIFNS_10unique_ptrI12FruitToppingNS_14default_deleteIS4_EEEEvEEEEEE8max_sizeB8ue170006ISA_vEEmRKSA_, symObjAddr: 0x3980, symBinAddr: 0x100006860, symSize: 0x24 }
  - { offsetInCU: 0x35DBA, offset: 0x35DBA, size: 0x8, addend: 0x0, symName: __ZNKSt3__16vectorINS_8functionIFNS_10unique_ptrI12FruitToppingNS_14default_deleteIS3_EEEEvEEENS_9allocatorIS8_EEE7__allocB8ue170006Ev, symObjAddr: 0x39A4, symBinAddr: 0x100006884, symSize: 0x28 }
  - { offsetInCU: 0x35DE0, offset: 0x35DE0, size: 0x8, addend: 0x0, symName: __ZNKSt3__19allocatorINS_8functionIFNS_10unique_ptrI12FruitToppingNS_14default_deleteIS3_EEEEvEEEE8max_sizeB8ue170006Ev, symObjAddr: 0x39CC, symBinAddr: 0x1000068AC, symSize: 0x14 }
  - { offsetInCU: 0x35E06, offset: 0x35E06, size: 0x8, addend: 0x0, symName: __ZNKSt3__117__compressed_pairIPNS_8functionIFNS_10unique_ptrI12FruitToppingNS_14default_deleteIS3_EEEEvEEENS_9allocatorIS8_EEE6secondB8ue170006Ev, symObjAddr: 0x39E0, symBinAddr: 0x1000068C0, symSize: 0x24 }
  - { offsetInCU: 0x35E2C, offset: 0x35E2C, size: 0x8, addend: 0x0, symName: __ZNKSt3__122__compressed_pair_elemINS_9allocatorINS_8functionIFNS_10unique_ptrI12FruitToppingNS_14default_deleteIS4_EEEEvEEEEELi1ELb1EE5__getB8ue170006Ev, symObjAddr: 0x3A04, symBinAddr: 0x1000068E4, symSize: 0x14 }
  - { offsetInCU: 0x35E52, offset: 0x35E52, size: 0x8, addend: 0x0, symName: __ZNKSt3__16vectorINS_8functionIFNS_10unique_ptrI12FruitToppingNS_14default_deleteIS3_EEEEvEEENS_9allocatorIS8_EEE9__end_capB8ue170006Ev, symObjAddr: 0x3A18, symBinAddr: 0x1000068F8, symSize: 0x28 }
  - { offsetInCU: 0x35E78, offset: 0x35E78, size: 0x8, addend: 0x0, symName: __ZNKSt3__117__compressed_pairIPNS_8functionIFNS_10unique_ptrI12FruitToppingNS_14default_deleteIS3_EEEEvEEENS_9allocatorIS8_EEE5firstB8ue170006Ev, symObjAddr: 0x3A40, symBinAddr: 0x100006920, symSize: 0x24 }
  - { offsetInCU: 0x35E9E, offset: 0x35E9E, size: 0x8, addend: 0x0, symName: __ZNKSt3__122__compressed_pair_elemIPNS_8functionIFNS_10unique_ptrI12FruitToppingNS_14default_deleteIS3_EEEEvEEELi0ELb0EE5__getB8ue170006Ev, symObjAddr: 0x3A64, symBinAddr: 0x100006944, symSize: 0x14 }
  - { offsetInCU: 0x35EC4, offset: 0x35EC4, size: 0x8, addend: 0x0, symName: __ZNSt3__114__split_bufferINS_8functionIFNS_10unique_ptrI12FruitToppingNS_14default_deleteIS3_EEEEvEEERNS_9allocatorIS8_EEEC2EmmSB_, symObjAddr: 0x3ACC, symBinAddr: 0x1000069AC, symSize: 0xD4 }
  - { offsetInCU: 0x35F37, offset: 0x35F37, size: 0x8, addend: 0x0, symName: __ZNSt3__117__compressed_pairIPNS_8functionIFNS_10unique_ptrI12FruitToppingNS_14default_deleteIS3_EEEEvEEERNS_9allocatorIS8_EEEC1B8ue170006IDnSC_EEOT_OT0_, symObjAddr: 0x3BA0, symBinAddr: 0x100006A80, symSize: 0x3C }
  - { offsetInCU: 0x35F8F, offset: 0x35F8F, size: 0x8, addend: 0x0, symName: __ZNSt3__114__split_bufferINS_8functionIFNS_10unique_ptrI12FruitToppingNS_14default_deleteIS3_EEEEvEEERNS_9allocatorIS8_EEE7__allocB8ue170006Ev, symObjAddr: 0x3C1C, symBinAddr: 0x100006AFC, symSize: 0x28 }
  - { offsetInCU: 0x35FB5, offset: 0x35FB5, size: 0x8, addend: 0x0, symName: __ZNSt3__114__split_bufferINS_8functionIFNS_10unique_ptrI12FruitToppingNS_14default_deleteIS3_EEEEvEEERNS_9allocatorIS8_EEE9__end_capB8ue170006Ev, symObjAddr: 0x3C44, symBinAddr: 0x100006B24, symSize: 0x28 }
  - { offsetInCU: 0x35FDB, offset: 0x35FDB, size: 0x8, addend: 0x0, symName: __ZNSt3__117__compressed_pairIPNS_8functionIFNS_10unique_ptrI12FruitToppingNS_14default_deleteIS3_EEEEvEEERNS_9allocatorIS8_EEEC2B8ue170006IDnSC_EEOT_OT0_, symObjAddr: 0x3C6C, symBinAddr: 0x100006B4C, symSize: 0x48 }
  - { offsetInCU: 0x36033, offset: 0x36033, size: 0x8, addend: 0x0, symName: __ZNSt3__122__compressed_pair_elemIRNS_9allocatorINS_8functionIFNS_10unique_ptrI12FruitToppingNS_14default_deleteIS4_EEEEvEEEEELi1ELb0EEC2B8ue170006ISB_vEEOT_, symObjAddr: 0x3CB4, symBinAddr: 0x100006B94, symSize: 0x20 }
  - { offsetInCU: 0x36075, offset: 0x36075, size: 0x8, addend: 0x0, symName: __ZNSt3__19allocatorINS_8functionIFNS_10unique_ptrI12FruitToppingNS_14default_deleteIS3_EEEEvEEEE8allocateB8ue170006Em, symObjAddr: 0x3CD4, symBinAddr: 0x100006BB4, symSize: 0x58 }
  - { offsetInCU: 0x360A9, offset: 0x360A9, size: 0x8, addend: 0x0, symName: __ZNSt3__117__compressed_pairIPNS_8functionIFNS_10unique_ptrI12FruitToppingNS_14default_deleteIS3_EEEEvEEERNS_9allocatorIS8_EEE6secondB8ue170006Ev, symObjAddr: 0x3D2C, symBinAddr: 0x100006C0C, symSize: 0x28 }
  - { offsetInCU: 0x360CF, offset: 0x360CF, size: 0x8, addend: 0x0, symName: __ZNSt3__122__compressed_pair_elemIRNS_9allocatorINS_8functionIFNS_10unique_ptrI12FruitToppingNS_14default_deleteIS4_EEEEvEEEEELi1ELb0EE5__getB8ue170006Ev, symObjAddr: 0x3D54, symBinAddr: 0x100006C34, symSize: 0x18 }
  - { offsetInCU: 0x360F5, offset: 0x360F5, size: 0x8, addend: 0x0, symName: __ZNSt3__117__compressed_pairIPNS_8functionIFNS_10unique_ptrI12FruitToppingNS_14default_deleteIS3_EEEEvEEERNS_9allocatorIS8_EEE5firstB8ue170006Ev, symObjAddr: 0x3D6C, symBinAddr: 0x100006C4C, symSize: 0x24 }
  - { offsetInCU: 0x3611B, offset: 0x3611B, size: 0x8, addend: 0x0, symName: __ZNKSt3__16vectorINS_8functionIFNS_10unique_ptrI12FruitToppingNS_14default_deleteIS3_EEEEvEEENS_9allocatorIS8_EEE17__annotate_deleteB8ue170006Ev, symObjAddr: 0x3D90, symBinAddr: 0x100006C70, symSize: 0xB8 }
  - { offsetInCU: 0x36141, offset: 0x36141, size: 0x8, addend: 0x0, symName: __ZNSt3__116reverse_iteratorIPNS_8functionIFNS_10unique_ptrI12FruitToppingNS_14default_deleteIS3_EEEEvEEEEC1B8ue170006ES9_, symObjAddr: 0x3F74, symBinAddr: 0x100006E54, symSize: 0x34 }
  - { offsetInCU: 0x36179, offset: 0x36179, size: 0x8, addend: 0x0, symName: __ZNKSt3__116reverse_iteratorIPNS_8functionIFNS_10unique_ptrI12FruitToppingNS_14default_deleteIS3_EEEEvEEEE4baseB8ue170006Ev, symObjAddr: 0x3FA8, symBinAddr: 0x100006E88, symSize: 0x18 }
  - { offsetInCU: 0x3619F, offset: 0x3619F, size: 0x8, addend: 0x0, symName: __ZNKSt3__16vectorINS_8functionIFNS_10unique_ptrI12FruitToppingNS_14default_deleteIS3_EEEEvEEENS_9allocatorIS8_EEE14__annotate_newB8ue170006Em, symObjAddr: 0x3FFC, symBinAddr: 0x100006EDC, symSize: 0xAC }
  - { offsetInCU: 0x361D4, offset: 0x361D4, size: 0x8, addend: 0x0, symName: __ZNKSt3__16vectorINS_8functionIFNS_10unique_ptrI12FruitToppingNS_14default_deleteIS3_EEEEvEEENS_9allocatorIS8_EEE31__annotate_contiguous_containerB8ue170006EPKvSD_SD_SD_, symObjAddr: 0x40A8, symBinAddr: 0x100006F88, symSize: 0x20 }
  - { offsetInCU: 0x3622A, offset: 0x3622A, size: 0x8, addend: 0x0, symName: __ZNKSt3__16vectorINS_8functionIFNS_10unique_ptrI12FruitToppingNS_14default_deleteIS3_EEEEvEEENS_9allocatorIS8_EEE4dataB8ue170006Ev, symObjAddr: 0x40C8, symBinAddr: 0x100006FA8, symSize: 0x28 }
  - { offsetInCU: 0x36250, offset: 0x36250, size: 0x8, addend: 0x0, symName: __ZNSt3__129_AllocatorDestroyRangeReverseINS_9allocatorINS_8functionIFNS_10unique_ptrI12FruitToppingNS_14default_deleteIS4_EEEEvEEEEENS_16reverse_iteratorIPS9_EEEC1B8ue170006ERSA_RSD_SG_, symObjAddr: 0x413C, symBinAddr: 0x10000701C, symSize: 0x44 }
  - { offsetInCU: 0x362A7, offset: 0x362A7, size: 0x8, addend: 0x0, symName: __ZNKSt3__116reverse_iteratorIPNS_8functionIFNS_10unique_ptrI12FruitToppingNS_14default_deleteIS3_EEEEvEEEEdeB8ue170006Ev, symObjAddr: 0x41EC, symBinAddr: 0x1000070CC, symSize: 0x28 }
  - { offsetInCU: 0x362DB, offset: 0x362DB, size: 0x8, addend: 0x0, symName: __ZNSt3__116reverse_iteratorIPNS_8functionIFNS_10unique_ptrI12FruitToppingNS_14default_deleteIS3_EEEEvEEEEppB8ue170006Ev, symObjAddr: 0x4214, symBinAddr: 0x1000070F4, symSize: 0x20 }
  - { offsetInCU: 0x36301, offset: 0x36301, size: 0x8, addend: 0x0, symName: __ZNSt3__128__exception_guard_exceptionsINS_29_AllocatorDestroyRangeReverseINS_9allocatorINS_8functionIFNS_10unique_ptrI12FruitToppingNS_14default_deleteIS5_EEEEvEEEEENS_16reverse_iteratorIPSA_EEEEE10__completeB8ue170006Ev, symObjAddr: 0x4234, symBinAddr: 0x100007114, symSize: 0x1C }
  - { offsetInCU: 0x36327, offset: 0x36327, size: 0x8, addend: 0x0, symName: __ZNSt3__128__exception_guard_exceptionsINS_29_AllocatorDestroyRangeReverseINS_9allocatorINS_8functionIFNS_10unique_ptrI12FruitToppingNS_14default_deleteIS5_EEEEvEEEEENS_16reverse_iteratorIPSA_EEEEED1B8ue170006Ev, symObjAddr: 0x4250, symBinAddr: 0x100007130, symSize: 0x2C }
  - { offsetInCU: 0x36351, offset: 0x36351, size: 0x8, addend: 0x0, symName: __ZNSt3__128__exception_guard_exceptionsINS_29_AllocatorDestroyRangeReverseINS_9allocatorINS_8functionIFNS_10unique_ptrI12FruitToppingNS_14default_deleteIS5_EEEEvEEEEENS_16reverse_iteratorIPSA_EEEEEC1B8ue170006ESF_, symObjAddr: 0x427C, symBinAddr: 0x10000715C, symSize: 0x34 }
  - { offsetInCU: 0x3638A, offset: 0x3638A, size: 0x8, addend: 0x0, symName: __ZNSt3__128__exception_guard_exceptionsINS_29_AllocatorDestroyRangeReverseINS_9allocatorINS_8functionIFNS_10unique_ptrI12FruitToppingNS_14default_deleteIS5_EEEEvEEEEENS_16reverse_iteratorIPSA_EEEEEC2B8ue170006ESF_, symObjAddr: 0x42B0, symBinAddr: 0x100007190, symSize: 0x30 }
  - { offsetInCU: 0x363C3, offset: 0x363C3, size: 0x8, addend: 0x0, symName: __ZNSt3__129_AllocatorDestroyRangeReverseINS_9allocatorINS_8functionIFNS_10unique_ptrI12FruitToppingNS_14default_deleteIS4_EEEEvEEEEENS_16reverse_iteratorIPS9_EEEC2B8ue170006ERSA_RSD_SG_, symObjAddr: 0x42E0, symBinAddr: 0x1000071C0, symSize: 0x38 }
  - { offsetInCU: 0x36420, offset: 0x36420, size: 0x8, addend: 0x0, symName: __ZNSt3__119__to_address_helperINS_16reverse_iteratorIPNS_8functionIFNS_10unique_ptrI12FruitToppingNS_14default_deleteIS4_EEEEvEEEEEvE6__callB8ue170006ERKSB_, symObjAddr: 0x4318, symBinAddr: 0x1000071F8, symSize: 0x38 }
  - { offsetInCU: 0x36443, offset: 0x36443, size: 0x8, addend: 0x0, symName: __ZNKSt3__116reverse_iteratorIPNS_8functionIFNS_10unique_ptrI12FruitToppingNS_14default_deleteIS3_EEEEvEEEEptB8ue170006Ev, symObjAddr: 0x4350, symBinAddr: 0x100007230, symSize: 0x24 }
  - { offsetInCU: 0x36469, offset: 0x36469, size: 0x8, addend: 0x0, symName: __ZNSt3__128__exception_guard_exceptionsINS_29_AllocatorDestroyRangeReverseINS_9allocatorINS_8functionIFNS_10unique_ptrI12FruitToppingNS_14default_deleteIS5_EEEEvEEEEENS_16reverse_iteratorIPSA_EEEEED2B8ue170006Ev, symObjAddr: 0x4374, symBinAddr: 0x100007254, symSize: 0x50 }
  - { offsetInCU: 0x36493, offset: 0x36493, size: 0x8, addend: 0x0, symName: __ZNKSt3__129_AllocatorDestroyRangeReverseINS_9allocatorINS_8functionIFNS_10unique_ptrI12FruitToppingNS_14default_deleteIS4_EEEEvEEEEENS_16reverse_iteratorIPS9_EEEclB8ue170006Ev, symObjAddr: 0x43C4, symBinAddr: 0x1000072A4, symSize: 0xB4 }
  - { offsetInCU: 0x364BA, offset: 0x364BA, size: 0x8, addend: 0x0, symName: __ZNSt3__116reverse_iteratorINS0_IPNS_8functionIFNS_10unique_ptrI12FruitToppingNS_14default_deleteIS3_EEEEvEEEEEEC1B8ue170006ESA_, symObjAddr: 0x44E8, symBinAddr: 0x1000073C8, symSize: 0x3C }
  - { offsetInCU: 0x364F2, offset: 0x364F2, size: 0x8, addend: 0x0, symName: __ZNSt3__116allocator_traitsINS_9allocatorINS_8functionIFNS_10unique_ptrI12FruitToppingNS_14default_deleteIS4_EEEEvEEEEEE7destroyB8ue170006IS9_vEEvRSA_PT_, symObjAddr: 0x4584, symBinAddr: 0x100007464, symSize: 0x2C }
  - { offsetInCU: 0x3652F, offset: 0x3652F, size: 0x8, addend: 0x0, symName: __ZNSt3__116reverse_iteratorINS0_IPNS_8functionIFNS_10unique_ptrI12FruitToppingNS_14default_deleteIS3_EEEEvEEEEEEppB8ue170006Ev, symObjAddr: 0x45D4, symBinAddr: 0x1000074B4, symSize: 0x30 }
  - { offsetInCU: 0x36555, offset: 0x36555, size: 0x8, addend: 0x0, symName: __ZNKSt3__116reverse_iteratorINS0_IPNS_8functionIFNS_10unique_ptrI12FruitToppingNS_14default_deleteIS3_EEEEvEEEEEE4baseB8ue170006Ev, symObjAddr: 0x4604, symBinAddr: 0x1000074E4, symSize: 0x24 }
  - { offsetInCU: 0x3657B, offset: 0x3657B, size: 0x8, addend: 0x0, symName: __ZNSt3__19allocatorINS_8functionIFNS_10unique_ptrI12FruitToppingNS_14default_deleteIS3_EEEEvEEEE7destroyB8ue170006EPS8_, symObjAddr: 0x4628, symBinAddr: 0x100007508, symSize: 0x28 }
  - { offsetInCU: 0x365B5, offset: 0x365B5, size: 0x8, addend: 0x0, symName: __ZNSt3__119__to_address_helperINS_16reverse_iteratorINS1_IPNS_8functionIFNS_10unique_ptrI12FruitToppingNS_14default_deleteIS4_EEEEvEEEEEEEvE6__callB8ue170006ERKSC_, symObjAddr: 0x4650, symBinAddr: 0x100007530, symSize: 0x38 }
  - { offsetInCU: 0x365D8, offset: 0x365D8, size: 0x8, addend: 0x0, symName: __ZNKSt3__116reverse_iteratorINS0_IPNS_8functionIFNS_10unique_ptrI12FruitToppingNS_14default_deleteIS3_EEEEvEEEEEEptB8ue170006Ev, symObjAddr: 0x4688, symBinAddr: 0x100007568, symSize: 0x24 }
  - { offsetInCU: 0x365FE, offset: 0x365FE, size: 0x8, addend: 0x0, symName: __ZNKSt3__116reverse_iteratorINS0_IPNS_8functionIFNS_10unique_ptrI12FruitToppingNS_14default_deleteIS3_EEEEvEEEEEEdeB8ue170006Ev, symObjAddr: 0x46AC, symBinAddr: 0x10000758C, symSize: 0x34 }
  - { offsetInCU: 0x36632, offset: 0x36632, size: 0x8, addend: 0x0, symName: __ZNSt3__116reverse_iteratorIPNS_8functionIFNS_10unique_ptrI12FruitToppingNS_14default_deleteIS3_EEEEvEEEEmmB8ue170006Ev, symObjAddr: 0x46E0, symBinAddr: 0x1000075C0, symSize: 0x20 }
  - { offsetInCU: 0x36658, offset: 0x36658, size: 0x8, addend: 0x0, symName: __ZNSt3__116reverse_iteratorINS0_IPNS_8functionIFNS_10unique_ptrI12FruitToppingNS_14default_deleteIS3_EEEEvEEEEEEC2B8ue170006ESA_, symObjAddr: 0x4700, symBinAddr: 0x1000075E0, symSize: 0x2C }
  - { offsetInCU: 0x36690, offset: 0x36690, size: 0x8, addend: 0x0, symName: __ZNSt3__116reverse_iteratorIPNS_8functionIFNS_10unique_ptrI12FruitToppingNS_14default_deleteIS3_EEEEvEEEEC2B8ue170006ES9_, symObjAddr: 0x472C, symBinAddr: 0x10000760C, symSize: 0x28 }
  - { offsetInCU: 0x366C8, offset: 0x366C8, size: 0x8, addend: 0x0, symName: __ZNSt3__114__split_bufferINS_8functionIFNS_10unique_ptrI12FruitToppingNS_14default_deleteIS3_EEEEvEEERNS_9allocatorIS8_EEED2Ev, symObjAddr: 0x4754, symBinAddr: 0x100007634, symSize: 0x8C }
  - { offsetInCU: 0x366F4, offset: 0x366F4, size: 0x8, addend: 0x0, symName: __ZNSt3__114__split_bufferINS_8functionIFNS_10unique_ptrI12FruitToppingNS_14default_deleteIS3_EEEEvEEERNS_9allocatorIS8_EEE5clearB8ue170006Ev, symObjAddr: 0x47E0, symBinAddr: 0x1000076C0, symSize: 0x28 }
  - { offsetInCU: 0x3671A, offset: 0x3671A, size: 0x8, addend: 0x0, symName: __ZNSt3__116allocator_traitsINS_9allocatorINS_8functionIFNS_10unique_ptrI12FruitToppingNS_14default_deleteIS4_EEEEvEEEEEE10deallocateB8ue170006ERSA_PS9_m, symObjAddr: 0x4808, symBinAddr: 0x1000076E8, symSize: 0x34 }
  - { offsetInCU: 0x3675C, offset: 0x3675C, size: 0x8, addend: 0x0, symName: __ZNKSt3__114__split_bufferINS_8functionIFNS_10unique_ptrI12FruitToppingNS_14default_deleteIS3_EEEEvEEERNS_9allocatorIS8_EEE8capacityB8ue170006Ev, symObjAddr: 0x483C, symBinAddr: 0x10000771C, symSize: 0x40 }
  - { offsetInCU: 0x36782, offset: 0x36782, size: 0x8, addend: 0x0, symName: __ZNSt3__114__split_bufferINS_8functionIFNS_10unique_ptrI12FruitToppingNS_14default_deleteIS3_EEEEvEEERNS_9allocatorIS8_EEE17__destruct_at_endB8ue170006EPS8_, symObjAddr: 0x487C, symBinAddr: 0x10000775C, symSize: 0x2C }
  - { offsetInCU: 0x367B6, offset: 0x367B6, size: 0x8, addend: 0x0, symName: __ZNSt3__114__split_bufferINS_8functionIFNS_10unique_ptrI12FruitToppingNS_14default_deleteIS3_EEEEvEEERNS_9allocatorIS8_EEE17__destruct_at_endB8ue170006EPS8_NS_17integral_constantIbLb0EEE, symObjAddr: 0x48A8, symBinAddr: 0x100007788, symSize: 0x80 }
  - { offsetInCU: 0x367F6, offset: 0x367F6, size: 0x8, addend: 0x0, symName: __ZNSt3__19allocatorINS_8functionIFNS_10unique_ptrI12FruitToppingNS_14default_deleteIS3_EEEEvEEEE10deallocateB8ue170006EPS8_m, symObjAddr: 0x4928, symBinAddr: 0x100007808, symSize: 0x40 }
  - { offsetInCU: 0x36838, offset: 0x36838, size: 0x8, addend: 0x0, symName: __ZNKSt3__114__split_bufferINS_8functionIFNS_10unique_ptrI12FruitToppingNS_14default_deleteIS3_EEEEvEEERNS_9allocatorIS8_EEE9__end_capB8ue170006Ev, symObjAddr: 0x4968, symBinAddr: 0x100007848, symSize: 0x28 }
  - { offsetInCU: 0x3685E, offset: 0x3685E, size: 0x8, addend: 0x0, symName: __ZNKSt3__117__compressed_pairIPNS_8functionIFNS_10unique_ptrI12FruitToppingNS_14default_deleteIS3_EEEEvEEERNS_9allocatorIS8_EEE5firstB8ue170006Ev, symObjAddr: 0x4990, symBinAddr: 0x100007870, symSize: 0x24 }
  - { offsetInCU: 0x36884, offset: 0x36884, size: 0x8, addend: 0x0, symName: __ZNSt3__18functionIFNS_10unique_ptrI12FruitToppingNS_14default_deleteIS2_EEEEvEEC2IZN11ToppingListC1EvEUlvE_vEET_, symObjAddr: 0x49B4, symBinAddr: 0x100007894, symSize: 0x30 }
  - { offsetInCU: 0x368C9, offset: 0x368C9, size: 0x8, addend: 0x0, symName: __ZNSt3__110__function12__value_funcIFNS_10unique_ptrI12FruitToppingNS_14default_deleteIS3_EEEEvEEC1B8ue170006IZN11ToppingListC1EvEUlvE_vEEOT_, symObjAddr: 0x49E4, symBinAddr: 0x1000078C4, symSize: 0x50 }
  - { offsetInCU: 0x3690C, offset: 0x3690C, size: 0x8, addend: 0x0, symName: __ZNSt3__19allocatorIZN11ToppingListC1EvEUlvE_EC1B8ue170006Ev, symObjAddr: 0x4A34, symBinAddr: 0x100007914, symSize: 0x2C }
  - { offsetInCU: 0x36936, offset: 0x36936, size: 0x8, addend: 0x0, symName: __ZNSt3__110__function12__value_funcIFNS_10unique_ptrI12FruitToppingNS_14default_deleteIS3_EEEEvEEC1B8ue170006IZN11ToppingListC1EvEUlvE_NS_9allocatorISB_EEEEOT_RKT0_, symObjAddr: 0x4A60, symBinAddr: 0x100007940, symSize: 0x3C }
  - { offsetInCU: 0x36990, offset: 0x36990, size: 0x8, addend: 0x0, symName: __ZNSt3__19allocatorIZN11ToppingListC1EvEUlvE_EC2B8ue170006Ev, symObjAddr: 0x4A9C, symBinAddr: 0x10000797C, symSize: 0x2C }
  - { offsetInCU: 0x369BA, offset: 0x369BA, size: 0x8, addend: 0x0, symName: __ZNSt3__116__non_trivial_ifILb1ENS_9allocatorIZN11ToppingListC1EvEUlvE_EEEC2B8ue170006Ev, symObjAddr: 0x4AC8, symBinAddr: 0x1000079A8, symSize: 0x14 }
  - { offsetInCU: 0x369E4, offset: 0x369E4, size: 0x8, addend: 0x0, symName: __ZNSt3__110__function12__value_funcIFNS_10unique_ptrI12FruitToppingNS_14default_deleteIS3_EEEEvEEC2B8ue170006IZN11ToppingListC1EvEUlvE_NS_9allocatorISB_EEEEOT_RKT0_, symObjAddr: 0x4ADC, symBinAddr: 0x1000079BC, symSize: 0x94 }
  - { offsetInCU: 0x36A91, offset: 0x36A91, size: 0x8, addend: 0x0, symName: __ZNSt3__19allocatorINS_10__function6__funcIZN11ToppingListC1EvEUlvE_NS0_IS4_EEFNS_10unique_ptrI12FruitToppingNS_14default_deleteIS7_EEEEvEEEEC1B8ue170006IS4_EERKNS0_IT_EE, symObjAddr: 0x4B88, symBinAddr: 0x100007A68, symSize: 0x34 }
  - { offsetInCU: 0x36AD4, offset: 0x36AD4, size: 0x8, addend: 0x0, symName: __ZNSt3__19allocatorIZN11ToppingListC1EvEUlvE_EC1B8ue170006INS_10__function6__funcIS2_S3_FNS_10unique_ptrI12FruitToppingNS_14default_deleteIS8_EEEEvEEEEERKNS0_IT_EE, symObjAddr: 0x4BBC, symBinAddr: 0x100007A9C, symSize: 0x34 }
  - { offsetInCU: 0x36B11, offset: 0x36B11, size: 0x8, addend: 0x0, symName: __ZNSt3__110__function6__funcIZN11ToppingListC1EvEUlvE_NS_9allocatorIS3_EEFNS_10unique_ptrI12FruitToppingNS_14default_deleteIS7_EEEEvEEC1B8ue170006EOS3_OS5_, symObjAddr: 0x4BF0, symBinAddr: 0x100007AD0, symSize: 0x3C }
  - { offsetInCU: 0x36B59, offset: 0x36B59, size: 0x8, addend: 0x0, symName: __ZNSt3__19allocatorINS_10__function6__funcIZN11ToppingListC1EvEUlvE_NS0_IS4_EEFNS_10unique_ptrI12FruitToppingNS_14default_deleteIS7_EEEEvEEEEC2B8ue170006IS4_EERKNS0_IT_EE, symObjAddr: 0x4C2C, symBinAddr: 0x100007B0C, symSize: 0x30 }
  - { offsetInCU: 0x36B96, offset: 0x36B96, size: 0x8, addend: 0x0, symName: __ZNSt3__116__non_trivial_ifILb1ENS_9allocatorINS_10__function6__funcIZN11ToppingListC1EvEUlvE_NS1_IS5_EEFNS_10unique_ptrI12FruitToppingNS_14default_deleteIS8_EEEEvEEEEEEC2B8ue170006Ev, symObjAddr: 0x4C5C, symBinAddr: 0x100007B3C, symSize: 0x14 }
  - { offsetInCU: 0x36BC0, offset: 0x36BC0, size: 0x8, addend: 0x0, symName: __ZNSt3__19allocatorIZN11ToppingListC1EvEUlvE_EC2B8ue170006INS_10__function6__funcIS2_S3_FNS_10unique_ptrI12FruitToppingNS_14default_deleteIS8_EEEEvEEEEERKNS0_IT_EE, symObjAddr: 0x4C70, symBinAddr: 0x100007B50, symSize: 0x30 }
  - { offsetInCU: 0x36BFD, offset: 0x36BFD, size: 0x8, addend: 0x0, symName: __ZNSt3__110__function6__funcIZN11ToppingListC1EvEUlvE_NS_9allocatorIS3_EEFNS_10unique_ptrI12FruitToppingNS_14default_deleteIS7_EEEEvEEC2B8ue170006EOS3_OS5_, symObjAddr: 0x4CA0, symBinAddr: 0x100007B80, symSize: 0x88 }
  - { offsetInCU: 0x36C45, offset: 0x36C45, size: 0x8, addend: 0x0, symName: __ZNSt3__110__function6__baseIFNS_10unique_ptrI12FruitToppingNS_14default_deleteIS3_EEEEvEEC2B8ue170006Ev, symObjAddr: 0x4D28, symBinAddr: 0x100007C08, symSize: 0x24 }
  - { offsetInCU: 0x36C6F, offset: 0x36C6F, size: 0x8, addend: 0x0, symName: __ZNSt3__110__function12__alloc_funcIZN11ToppingListC1EvEUlvE_NS_9allocatorIS3_EEFNS_10unique_ptrI12FruitToppingNS_14default_deleteIS7_EEEEvEEC1B8ue170006EOS3_OS5_, symObjAddr: 0x4D4C, symBinAddr: 0x100007C2C, symSize: 0x3C }
  - { offsetInCU: 0x36CB5, offset: 0x36CB5, size: 0x8, addend: 0x0, symName: __ZNSt3__110__function6__baseIFNS_10unique_ptrI12FruitToppingNS_14default_deleteIS3_EEEEvEED2Ev, symObjAddr: 0x4D88, symBinAddr: 0x100007C68, symSize: 0x14 }
  - { offsetInCU: 0x36CDF, offset: 0x36CDF, size: 0x8, addend: 0x0, symName: __ZNSt3__110__function6__funcIZN11ToppingListC1EvEUlvE_NS_9allocatorIS3_EEFNS_10unique_ptrI12FruitToppingNS_14default_deleteIS7_EEEEvEED1Ev, symObjAddr: 0x4D9C, symBinAddr: 0x100007C7C, symSize: 0x2C }
  - { offsetInCU: 0x36D0C, offset: 0x36D0C, size: 0x8, addend: 0x0, symName: __ZNSt3__110__function6__funcIZN11ToppingListC1EvEUlvE_NS_9allocatorIS3_EEFNS_10unique_ptrI12FruitToppingNS_14default_deleteIS7_EEEEvEED0Ev, symObjAddr: 0x4DC8, symBinAddr: 0x100007CA8, symSize: 0x30 }
  - { offsetInCU: 0x36D39, offset: 0x36D39, size: 0x8, addend: 0x0, symName: __ZNKSt3__110__function6__funcIZN11ToppingListC1EvEUlvE_NS_9allocatorIS3_EEFNS_10unique_ptrI12FruitToppingNS_14default_deleteIS7_EEEEvEE7__cloneEv, symObjAddr: 0x4DF8, symBinAddr: 0x100007CD8, symSize: 0xFC }
  - { offsetInCU: 0x36D8B, offset: 0x36D8B, size: 0x8, addend: 0x0, symName: __ZNKSt3__110__function6__funcIZN11ToppingListC1EvEUlvE_NS_9allocatorIS3_EEFNS_10unique_ptrI12FruitToppingNS_14default_deleteIS7_EEEEvEE7__cloneEPNS0_6__baseISB_EE, symObjAddr: 0x4EF4, symBinAddr: 0x100007DD4, symSize: 0x58 }
  - { offsetInCU: 0x36DC2, offset: 0x36DC2, size: 0x8, addend: 0x0, symName: __ZNSt3__110__function6__funcIZN11ToppingListC1EvEUlvE_NS_9allocatorIS3_EEFNS_10unique_ptrI12FruitToppingNS_14default_deleteIS7_EEEEvEE7destroyEv, symObjAddr: 0x4F4C, symBinAddr: 0x100007E2C, symSize: 0x28 }
  - { offsetInCU: 0x36DEA, offset: 0x36DEA, size: 0x8, addend: 0x0, symName: __ZNSt3__110__function6__funcIZN11ToppingListC1EvEUlvE_NS_9allocatorIS3_EEFNS_10unique_ptrI12FruitToppingNS_14default_deleteIS7_EEEEvEE18destroy_deallocateEv, symObjAddr: 0x4F74, symBinAddr: 0x100007E54, symSize: 0x58 }
  - { offsetInCU: 0x36E2D, offset: 0x36E2D, size: 0x8, addend: 0x0, symName: __ZNSt3__110__function6__funcIZN11ToppingListC1EvEUlvE_NS_9allocatorIS3_EEFNS_10unique_ptrI12FruitToppingNS_14default_deleteIS7_EEEEvEEclEv, symObjAddr: 0x4FCC, symBinAddr: 0x100007EAC, symSize: 0x30 }
  - { offsetInCU: 0x36E55, offset: 0x36E55, size: 0x8, addend: 0x0, symName: __ZNKSt3__110__function6__funcIZN11ToppingListC1EvEUlvE_NS_9allocatorIS3_EEFNS_10unique_ptrI12FruitToppingNS_14default_deleteIS7_EEEEvEE6targetERKSt9type_info, symObjAddr: 0x4FFC, symBinAddr: 0x100007EDC, symSize: 0x60 }
  - { offsetInCU: 0x36E8C, offset: 0x36E8C, size: 0x8, addend: 0x0, symName: __ZNKSt3__110__function6__funcIZN11ToppingListC1EvEUlvE_NS_9allocatorIS3_EEFNS_10unique_ptrI12FruitToppingNS_14default_deleteIS7_EEEEvEE11target_typeEv, symObjAddr: 0x505C, symBinAddr: 0x100007F3C, symSize: 0x18 }
  - { offsetInCU: 0x36EB4, offset: 0x36EB4, size: 0x8, addend: 0x0, symName: __ZNSt3__110__function6__baseIFNS_10unique_ptrI12FruitToppingNS_14default_deleteIS3_EEEEvEED1Ev, symObjAddr: 0x5074, symBinAddr: 0x100007F54, symSize: 0x14 }
  - { offsetInCU: 0x36EDE, offset: 0x36EDE, size: 0x8, addend: 0x0, symName: __ZNSt3__110__function6__baseIFNS_10unique_ptrI12FruitToppingNS_14default_deleteIS3_EEEEvEED0Ev, symObjAddr: 0x5088, symBinAddr: 0x100007F68, symSize: 0xC }
  - { offsetInCU: 0x36F08, offset: 0x36F08, size: 0x8, addend: 0x0, symName: __ZNSt3__110__function12__alloc_funcIZN11ToppingListC1EvEUlvE_NS_9allocatorIS3_EEFNS_10unique_ptrI12FruitToppingNS_14default_deleteIS7_EEEEvEEC2B8ue170006EOS3_OS5_, symObjAddr: 0x5094, symBinAddr: 0x100007F74, symSize: 0x5C }
  - { offsetInCU: 0x36F4E, offset: 0x36F4E, size: 0x8, addend: 0x0, symName: __ZNSt3__117__compressed_pairIZN11ToppingListC1EvEUlvE_NS_9allocatorIS2_EEEC1B8ue170006IJOS2_EJOS4_EEENS_21piecewise_construct_tENS_5tupleIJDpT_EEENSA_IJDpT0_EEE, symObjAddr: 0x5148, symBinAddr: 0x100008028, symSize: 0x3C }
  - { offsetInCU: 0x36FB8, offset: 0x36FB8, size: 0x8, addend: 0x0, symName: __ZNSt3__15tupleIJOZN11ToppingListC1EvEUlvE_EEC1B8ue170006IJS2_ELi0EEEDpOT_, symObjAddr: 0x5184, symBinAddr: 0x100008064, symSize: 0x34 }
  - { offsetInCU: 0x37002, offset: 0x37002, size: 0x8, addend: 0x0, symName: __ZNSt3__15tupleIJOZN11ToppingListC1EvEUlvE_EEC2B8ue170006IJS2_ELi0EEEDpOT_, symObjAddr: 0x51B8, symBinAddr: 0x100008098, symSize: 0x34 }
  - { offsetInCU: 0x3704C, offset: 0x3704C, size: 0x8, addend: 0x0, symName: __ZNSt3__112__tuple_implINS_15__tuple_indicesIJLm0EEEEJOZN11ToppingListC1EvEUlvE_EEC1B8ue170006IJLm0EEJS5_EJEJEJS4_EEENS1_IJXspT_EEEENS_13__tuple_typesIJDpT0_EEENS1_IJXspT1_EEEENS9_IJDpT2_EEEDpOT3_, symObjAddr: 0x51EC, symBinAddr: 0x1000080CC, symSize: 0x34 }
  - { offsetInCU: 0x370E1, offset: 0x370E1, size: 0x8, addend: 0x0, symName: __ZNSt3__112__tuple_implINS_15__tuple_indicesIJLm0EEEEJOZN11ToppingListC1EvEUlvE_EEC2B8ue170006IJLm0EEJS5_EJEJEJS4_EEENS1_IJXspT_EEEENS_13__tuple_typesIJDpT0_EEENS1_IJXspT1_EEEENS9_IJDpT2_EEEDpOT3_, symObjAddr: 0x5220, symBinAddr: 0x100008100, symSize: 0x34 }
  - { offsetInCU: 0x37176, offset: 0x37176, size: 0x8, addend: 0x0, symName: __ZNSt3__112__tuple_leafILm0EOZN11ToppingListC1EvEUlvE_Lb0EEC2B8ue170006IS2_vEEOT_, symObjAddr: 0x5254, symBinAddr: 0x100008134, symSize: 0x20 }
  - { offsetInCU: 0x371B9, offset: 0x371B9, size: 0x8, addend: 0x0, symName: __ZNSt3__15tupleIJONS_9allocatorIZN11ToppingListC1EvEUlvE_EEEEC1B8ue170006IJS4_ELi0EEEDpOT_, symObjAddr: 0x5274, symBinAddr: 0x100008154, symSize: 0x34 }
  - { offsetInCU: 0x37203, offset: 0x37203, size: 0x8, addend: 0x0, symName: __ZNSt3__15tupleIJONS_9allocatorIZN11ToppingListC1EvEUlvE_EEEEC2B8ue170006IJS4_ELi0EEEDpOT_, symObjAddr: 0x52A8, symBinAddr: 0x100008188, symSize: 0x34 }
  - { offsetInCU: 0x3724D, offset: 0x3724D, size: 0x8, addend: 0x0, symName: __ZNSt3__112__tuple_implINS_15__tuple_indicesIJLm0EEEEJONS_9allocatorIZN11ToppingListC1EvEUlvE_EEEEC1B8ue170006IJLm0EEJS7_EJEJEJS6_EEENS1_IJXspT_EEEENS_13__tuple_typesIJDpT0_EEENS1_IJXspT1_EEEENSB_IJDpT2_EEEDpOT3_, symObjAddr: 0x52DC, symBinAddr: 0x1000081BC, symSize: 0x34 }
  - { offsetInCU: 0x372E2, offset: 0x372E2, size: 0x8, addend: 0x0, symName: __ZNSt3__112__tuple_implINS_15__tuple_indicesIJLm0EEEEJONS_9allocatorIZN11ToppingListC1EvEUlvE_EEEEC2B8ue170006IJLm0EEJS7_EJEJEJS6_EEENS1_IJXspT_EEEENS_13__tuple_typesIJDpT0_EEENS1_IJXspT1_EEEENSB_IJDpT2_EEEDpOT3_, symObjAddr: 0x5310, symBinAddr: 0x1000081F0, symSize: 0x34 }
  - { offsetInCU: 0x37377, offset: 0x37377, size: 0x8, addend: 0x0, symName: __ZNSt3__112__tuple_leafILm0EONS_9allocatorIZN11ToppingListC1EvEUlvE_EELb0EEC2B8ue170006IS4_vEEOT_, symObjAddr: 0x5344, symBinAddr: 0x100008224, symSize: 0x20 }
  - { offsetInCU: 0x373BA, offset: 0x373BA, size: 0x8, addend: 0x0, symName: __ZNSt3__117__compressed_pairIZN11ToppingListC1EvEUlvE_NS_9allocatorIS2_EEEC2B8ue170006IJOS2_EJOS4_EEENS_21piecewise_construct_tENS_5tupleIJDpT_EEENSA_IJDpT0_EEE, symObjAddr: 0x5364, symBinAddr: 0x100008244, symSize: 0x54 }
  - { offsetInCU: 0x37424, offset: 0x37424, size: 0x8, addend: 0x0, symName: __ZNSt3__122__compressed_pair_elemIZN11ToppingListC1EvEUlvE_Li0ELb1EEC2B8ue170006IJOS2_EJLm0EEEENS_21piecewise_construct_tENS_5tupleIJDpT_EEENS_15__tuple_indicesIJXspT0_EEEE, symObjAddr: 0x53B8, symBinAddr: 0x100008298, symSize: 0x38 }
  - { offsetInCU: 0x37487, offset: 0x37487, size: 0x8, addend: 0x0, symName: __ZNSt3__122__compressed_pair_elemINS_9allocatorIZN11ToppingListC1EvEUlvE_EELi1ELb1EEC2B8ue170006IJOS4_EJLm0EEEENS_21piecewise_construct_tENS_5tupleIJDpT_EEENS_15__tuple_indicesIJXspT0_EEEE, symObjAddr: 0x53F0, symBinAddr: 0x1000082D0, symSize: 0x38 }
  - { offsetInCU: 0x374EA, offset: 0x374EA, size: 0x8, addend: 0x0, symName: __ZNSt3__112__tuple_leafILm0EOZN11ToppingListC1EvEUlvE_Lb0EE3getB8ue170006Ev, symObjAddr: 0x544C, symBinAddr: 0x10000832C, symSize: 0x18 }
  - { offsetInCU: 0x37510, offset: 0x37510, size: 0x8, addend: 0x0, symName: __ZNSt3__112__tuple_leafILm0EONS_9allocatorIZN11ToppingListC1EvEUlvE_EELb0EE3getB8ue170006Ev, symObjAddr: 0x5488, symBinAddr: 0x100008368, symSize: 0x18 }
  - { offsetInCU: 0x37536, offset: 0x37536, size: 0x8, addend: 0x0, symName: __ZNSt3__110__function6__funcIZN11ToppingListC1EvEUlvE_NS_9allocatorIS3_EEFNS_10unique_ptrI12FruitToppingNS_14default_deleteIS7_EEEEvEED2Ev, symObjAddr: 0x54A0, symBinAddr: 0x100008380, symSize: 0x2C }
  - { offsetInCU: 0x37563, offset: 0x37563, size: 0x8, addend: 0x0, symName: __ZNKSt3__110__function12__alloc_funcIZN11ToppingListC1EvEUlvE_NS_9allocatorIS3_EEFNS_10unique_ptrI12FruitToppingNS_14default_deleteIS7_EEEEvEE15__get_allocatorB8ue170006Ev, symObjAddr: 0x54CC, symBinAddr: 0x1000083AC, symSize: 0x24 }
  - { offsetInCU: 0x37589, offset: 0x37589, size: 0x8, addend: 0x0, symName: __ZNSt3__19allocatorINS_10__function6__funcIZN11ToppingListC1EvEUlvE_NS0_IS4_EEFNS_10unique_ptrI12FruitToppingNS_14default_deleteIS7_EEEEvEEEE8allocateB8ue170006Em, symObjAddr: 0x54F0, symBinAddr: 0x1000083D0, symSize: 0x58 }
  - { offsetInCU: 0x375CF, offset: 0x375CF, size: 0x8, addend: 0x0, symName: __ZNSt3__122__allocator_destructorINS_9allocatorINS_10__function6__funcIZN11ToppingListC1EvEUlvE_NS1_IS5_EEFNS_10unique_ptrI12FruitToppingNS_14default_deleteIS8_EEEEvEEEEEEC1B8ue170006ERSE_m, symObjAddr: 0x5548, symBinAddr: 0x100008428, symSize: 0x3C }
  - { offsetInCU: 0x376BD, offset: 0x376BD, size: 0x8, addend: 0x0, symName: __ZNSt3__110unique_ptrINS_10__function6__funcIZN11ToppingListC1EvEUlvE_NS_9allocatorIS4_EEFNS0_I12FruitToppingNS_14default_deleteIS7_EEEEvEEENS_22__allocator_destructorINS5_ISC_EEEEEC1B8ue170006ILb1EvEEPSC_NS_16__dependent_typeINS_27__unique_ptr_deleter_sfinaeISF_EEXT_EE20__good_rval_ref_typeE, symObjAddr: 0x5584, symBinAddr: 0x100008464, symSize: 0x3C }
  - { offsetInCU: 0x3770E, offset: 0x3770E, size: 0x8, addend: 0x0, symName: __ZNKSt3__110unique_ptrINS_10__function6__funcIZN11ToppingListC1EvEUlvE_NS_9allocatorIS4_EEFNS0_I12FruitToppingNS_14default_deleteIS7_EEEEvEEENS_22__allocator_destructorINS5_ISC_EEEEE3getB8ue170006Ev, symObjAddr: 0x55C0, symBinAddr: 0x1000084A0, symSize: 0x28 }
  - { offsetInCU: 0x37734, offset: 0x37734, size: 0x8, addend: 0x0, symName: __ZNKSt3__110__function12__alloc_funcIZN11ToppingListC1EvEUlvE_NS_9allocatorIS3_EEFNS_10unique_ptrI12FruitToppingNS_14default_deleteIS7_EEEEvEE8__targetB8ue170006Ev, symObjAddr: 0x55E8, symBinAddr: 0x1000084C8, symSize: 0x24 }
  - { offsetInCU: 0x3775A, offset: 0x3775A, size: 0x8, addend: 0x0, symName: __ZNSt3__110__function6__funcIZN11ToppingListC1EvEUlvE_NS_9allocatorIS3_EEFNS_10unique_ptrI12FruitToppingNS_14default_deleteIS7_EEEEvEEC1B8ue170006ERKS3_OS5_, symObjAddr: 0x560C, symBinAddr: 0x1000084EC, symSize: 0x3C }
  - { offsetInCU: 0x377A2, offset: 0x377A2, size: 0x8, addend: 0x0, symName: __ZNSt3__110unique_ptrINS_10__function6__funcIZN11ToppingListC1EvEUlvE_NS_9allocatorIS4_EEFNS0_I12FruitToppingNS_14default_deleteIS7_EEEEvEEENS_22__allocator_destructorINS5_ISC_EEEEE7releaseB8ue170006Ev, symObjAddr: 0x5648, symBinAddr: 0x100008528, symSize: 0x44 }
  - { offsetInCU: 0x377D7, offset: 0x377D7, size: 0x8, addend: 0x0, symName: __ZNSt3__110unique_ptrINS_10__function6__funcIZN11ToppingListC1EvEUlvE_NS_9allocatorIS4_EEFNS0_I12FruitToppingNS_14default_deleteIS7_EEEEvEEENS_22__allocator_destructorINS5_ISC_EEEEED1B8ue170006Ev, symObjAddr: 0x568C, symBinAddr: 0x10000856C, symSize: 0x2C }
  - { offsetInCU: 0x37801, offset: 0x37801, size: 0x8, addend: 0x0, symName: __ZNKSt3__117__compressed_pairIZN11ToppingListC1EvEUlvE_NS_9allocatorIS2_EEE6secondB8ue170006Ev, symObjAddr: 0x56B8, symBinAddr: 0x100008598, symSize: 0x24 }
  - { offsetInCU: 0x37827, offset: 0x37827, size: 0x8, addend: 0x0, symName: __ZNKSt3__122__compressed_pair_elemINS_9allocatorIZN11ToppingListC1EvEUlvE_EELi1ELb1EE5__getB8ue170006Ev, symObjAddr: 0x56DC, symBinAddr: 0x1000085BC, symSize: 0x14 }
  - { offsetInCU: 0x37859, offset: 0x37859, size: 0x8, addend: 0x0, symName: __ZNSt3__116allocator_traitsINS_9allocatorINS_10__function6__funcIZN11ToppingListC1EvEUlvE_NS1_IS5_EEFNS_10unique_ptrI12FruitToppingNS_14default_deleteIS8_EEEEvEEEEEE8max_sizeB8ue170006ISE_vEEmRKSE_, symObjAddr: 0x56F0, symBinAddr: 0x1000085D0, symSize: 0x24 }
  - { offsetInCU: 0x37887, offset: 0x37887, size: 0x8, addend: 0x0, symName: __ZNKSt3__19allocatorINS_10__function6__funcIZN11ToppingListC1EvEUlvE_NS0_IS4_EEFNS_10unique_ptrI12FruitToppingNS_14default_deleteIS7_EEEEvEEEE8max_sizeB8ue170006Ev, symObjAddr: 0x5714, symBinAddr: 0x1000085F4, symSize: 0x14 }
  - { offsetInCU: 0x378AD, offset: 0x378AD, size: 0x8, addend: 0x0, symName: __ZNSt3__122__allocator_destructorINS_9allocatorINS_10__function6__funcIZN11ToppingListC1EvEUlvE_NS1_IS5_EEFNS_10unique_ptrI12FruitToppingNS_14default_deleteIS8_EEEEvEEEEEEC2B8ue170006ERSE_m, symObjAddr: 0x5728, symBinAddr: 0x100008608, symSize: 0x2C }
  - { offsetInCU: 0x378F3, offset: 0x378F3, size: 0x8, addend: 0x0, symName: __ZNSt3__110unique_ptrINS_10__function6__funcIZN11ToppingListC1EvEUlvE_NS_9allocatorIS4_EEFNS0_I12FruitToppingNS_14default_deleteIS7_EEEEvEEENS_22__allocator_destructorINS5_ISC_EEEEEC2B8ue170006ILb1EvEEPSC_NS_16__dependent_typeINS_27__unique_ptr_deleter_sfinaeISF_EEXT_EE20__good_rval_ref_typeE, symObjAddr: 0x5754, symBinAddr: 0x100008634, symSize: 0x48 }
  - { offsetInCU: 0x37944, offset: 0x37944, size: 0x8, addend: 0x0, symName: __ZNSt3__117__compressed_pairIPNS_10__function6__funcIZN11ToppingListC1EvEUlvE_NS_9allocatorIS4_EEFNS_10unique_ptrI12FruitToppingNS_14default_deleteIS8_EEEEvEEENS_22__allocator_destructorINS5_ISD_EEEEEC1B8ue170006IRSE_SH_EEOT_OT0_, symObjAddr: 0x579C, symBinAddr: 0x10000867C, symSize: 0x3C }
  - { offsetInCU: 0x3799C, offset: 0x3799C, size: 0x8, addend: 0x0, symName: __ZNSt3__117__compressed_pairIPNS_10__function6__funcIZN11ToppingListC1EvEUlvE_NS_9allocatorIS4_EEFNS_10unique_ptrI12FruitToppingNS_14default_deleteIS8_EEEEvEEENS_22__allocator_destructorINS5_ISD_EEEEEC2B8ue170006IRSE_SH_EEOT_OT0_, symObjAddr: 0x57D8, symBinAddr: 0x1000086B8, symSize: 0x48 }
  - { offsetInCU: 0x379F4, offset: 0x379F4, size: 0x8, addend: 0x0, symName: __ZNSt3__122__compressed_pair_elemIPNS_10__function6__funcIZN11ToppingListC1EvEUlvE_NS_9allocatorIS4_EEFNS_10unique_ptrI12FruitToppingNS_14default_deleteIS8_EEEEvEEELi0ELb0EEC2B8ue170006IRSE_vEEOT_, symObjAddr: 0x5820, symBinAddr: 0x100008700, symSize: 0x24 }
  - { offsetInCU: 0x37A36, offset: 0x37A36, size: 0x8, addend: 0x0, symName: __ZNSt3__122__compressed_pair_elemINS_22__allocator_destructorINS_9allocatorINS_10__function6__funcIZN11ToppingListC1EvEUlvE_NS2_IS6_EEFNS_10unique_ptrI12FruitToppingNS_14default_deleteIS9_EEEEvEEEEEEELi1ELb0EEC2B8ue170006ISG_vEEOT_, symObjAddr: 0x5844, symBinAddr: 0x100008724, symSize: 0x24 }
  - { offsetInCU: 0x37A78, offset: 0x37A78, size: 0x8, addend: 0x0, symName: __ZNKSt3__117__compressed_pairIPNS_10__function6__funcIZN11ToppingListC1EvEUlvE_NS_9allocatorIS4_EEFNS_10unique_ptrI12FruitToppingNS_14default_deleteIS8_EEEEvEEENS_22__allocator_destructorINS5_ISD_EEEEE5firstB8ue170006Ev, symObjAddr: 0x5868, symBinAddr: 0x100008748, symSize: 0x24 }
  - { offsetInCU: 0x37A9E, offset: 0x37A9E, size: 0x8, addend: 0x0, symName: __ZNKSt3__122__compressed_pair_elemIPNS_10__function6__funcIZN11ToppingListC1EvEUlvE_NS_9allocatorIS4_EEFNS_10unique_ptrI12FruitToppingNS_14default_deleteIS8_EEEEvEEELi0ELb0EE5__getB8ue170006Ev, symObjAddr: 0x588C, symBinAddr: 0x10000876C, symSize: 0x14 }
  - { offsetInCU: 0x37AC4, offset: 0x37AC4, size: 0x8, addend: 0x0, symName: __ZNKSt3__117__compressed_pairIZN11ToppingListC1EvEUlvE_NS_9allocatorIS2_EEE5firstB8ue170006Ev, symObjAddr: 0x58A0, symBinAddr: 0x100008780, symSize: 0x24 }
  - { offsetInCU: 0x37AEA, offset: 0x37AEA, size: 0x8, addend: 0x0, symName: __ZNKSt3__122__compressed_pair_elemIZN11ToppingListC1EvEUlvE_Li0ELb1EE5__getB8ue170006Ev, symObjAddr: 0x58C4, symBinAddr: 0x1000087A4, symSize: 0x14 }
  - { offsetInCU: 0x37B10, offset: 0x37B10, size: 0x8, addend: 0x0, symName: __ZNSt3__110__function6__funcIZN11ToppingListC1EvEUlvE_NS_9allocatorIS3_EEFNS_10unique_ptrI12FruitToppingNS_14default_deleteIS7_EEEEvEEC2B8ue170006ERKS3_OS5_, symObjAddr: 0x58D8, symBinAddr: 0x1000087B8, symSize: 0x88 }
  - { offsetInCU: 0x37B58, offset: 0x37B58, size: 0x8, addend: 0x0, symName: __ZNSt3__110__function12__alloc_funcIZN11ToppingListC1EvEUlvE_NS_9allocatorIS3_EEFNS_10unique_ptrI12FruitToppingNS_14default_deleteIS7_EEEEvEEC1B8ue170006ERKS3_OS5_, symObjAddr: 0x5960, symBinAddr: 0x100008840, symSize: 0x3C }
  - { offsetInCU: 0x37B9E, offset: 0x37B9E, size: 0x8, addend: 0x0, symName: __ZNSt3__110__function12__alloc_funcIZN11ToppingListC1EvEUlvE_NS_9allocatorIS3_EEFNS_10unique_ptrI12FruitToppingNS_14default_deleteIS7_EEEEvEEC2B8ue170006ERKS3_OS5_, symObjAddr: 0x599C, symBinAddr: 0x10000887C, symSize: 0x5C }
  - { offsetInCU: 0x37BE4, offset: 0x37BE4, size: 0x8, addend: 0x0, symName: __ZNSt3__117__compressed_pairIZN11ToppingListC1EvEUlvE_NS_9allocatorIS2_EEEC1B8ue170006IJRKS2_EJOS4_EEENS_21piecewise_construct_tENS_5tupleIJDpT_EEENSB_IJDpT0_EEE, symObjAddr: 0x5A24, symBinAddr: 0x100008904, symSize: 0x3C }
  - { offsetInCU: 0x37C4E, offset: 0x37C4E, size: 0x8, addend: 0x0, symName: __ZNSt3__15tupleIJRKZN11ToppingListC1EvEUlvE_EEC1B8ue170006INS_4_AndELi0EEES4_, symObjAddr: 0x5A60, symBinAddr: 0x100008940, symSize: 0x34 }
  - { offsetInCU: 0x37C96, offset: 0x37C96, size: 0x8, addend: 0x0, symName: __ZNSt3__15tupleIJRKZN11ToppingListC1EvEUlvE_EEC2B8ue170006INS_4_AndELi0EEES4_, symObjAddr: 0x5A94, symBinAddr: 0x100008974, symSize: 0x34 }
  - { offsetInCU: 0x37CDE, offset: 0x37CDE, size: 0x8, addend: 0x0, symName: __ZNSt3__112__tuple_implINS_15__tuple_indicesIJLm0EEEEJRKZN11ToppingListC1EvEUlvE_EEC1B8ue170006IJLm0EEJS6_EJEJEJS6_EEENS1_IJXspT_EEEENS_13__tuple_typesIJDpT0_EEENS1_IJXspT1_EEEENSA_IJDpT2_EEEDpOT3_, symObjAddr: 0x5AC8, symBinAddr: 0x1000089A8, symSize: 0x34 }
  - { offsetInCU: 0x37D73, offset: 0x37D73, size: 0x8, addend: 0x0, symName: __ZNSt3__112__tuple_implINS_15__tuple_indicesIJLm0EEEEJRKZN11ToppingListC1EvEUlvE_EEC2B8ue170006IJLm0EEJS6_EJEJEJS6_EEENS1_IJXspT_EEEENS_13__tuple_typesIJDpT0_EEENS1_IJXspT1_EEEENSA_IJDpT2_EEEDpOT3_, symObjAddr: 0x5AFC, symBinAddr: 0x1000089DC, symSize: 0x34 }
  - { offsetInCU: 0x37E08, offset: 0x37E08, size: 0x8, addend: 0x0, symName: __ZNSt3__112__tuple_leafILm0ERKZN11ToppingListC1EvEUlvE_Lb0EEC2B8ue170006IS4_vEEOT_, symObjAddr: 0x5B30, symBinAddr: 0x100008A10, symSize: 0x20 }
  - { offsetInCU: 0x37E4B, offset: 0x37E4B, size: 0x8, addend: 0x0, symName: __ZNSt3__117__compressed_pairIZN11ToppingListC1EvEUlvE_NS_9allocatorIS2_EEEC2B8ue170006IJRKS2_EJOS4_EEENS_21piecewise_construct_tENS_5tupleIJDpT_EEENSB_IJDpT0_EEE, symObjAddr: 0x5B50, symBinAddr: 0x100008A30, symSize: 0x54 }
  - { offsetInCU: 0x37EB5, offset: 0x37EB5, size: 0x8, addend: 0x0, symName: __ZNSt3__122__compressed_pair_elemIZN11ToppingListC1EvEUlvE_Li0ELb1EEC2B8ue170006IJRKS2_EJLm0EEEENS_21piecewise_construct_tENS_5tupleIJDpT_EEENS_15__tuple_indicesIJXspT0_EEEE, symObjAddr: 0x5BA4, symBinAddr: 0x100008A84, symSize: 0x38 }
  - { offsetInCU: 0x37F18, offset: 0x37F18, size: 0x8, addend: 0x0, symName: __ZNSt3__112__tuple_leafILm0ERKZN11ToppingListC1EvEUlvE_Lb0EE3getB8ue170006Ev, symObjAddr: 0x5C00, symBinAddr: 0x100008AE0, symSize: 0x18 }
  - { offsetInCU: 0x37F3E, offset: 0x37F3E, size: 0x8, addend: 0x0, symName: __ZNSt3__117__compressed_pairIPNS_10__function6__funcIZN11ToppingListC1EvEUlvE_NS_9allocatorIS4_EEFNS_10unique_ptrI12FruitToppingNS_14default_deleteIS8_EEEEvEEENS_22__allocator_destructorINS5_ISD_EEEEE5firstB8ue170006Ev, symObjAddr: 0x5C18, symBinAddr: 0x100008AF8, symSize: 0x24 }
  - { offsetInCU: 0x37F64, offset: 0x37F64, size: 0x8, addend: 0x0, symName: __ZNSt3__122__compressed_pair_elemIPNS_10__function6__funcIZN11ToppingListC1EvEUlvE_NS_9allocatorIS4_EEFNS_10unique_ptrI12FruitToppingNS_14default_deleteIS8_EEEEvEEELi0ELb0EE5__getB8ue170006Ev, symObjAddr: 0x5C3C, symBinAddr: 0x100008B1C, symSize: 0x14 }
  - { offsetInCU: 0x37F8A, offset: 0x37F8A, size: 0x8, addend: 0x0, symName: __ZNSt3__110unique_ptrINS_10__function6__funcIZN11ToppingListC1EvEUlvE_NS_9allocatorIS4_EEFNS0_I12FruitToppingNS_14default_deleteIS7_EEEEvEEENS_22__allocator_destructorINS5_ISC_EEEEED2B8ue170006Ev, symObjAddr: 0x5C50, symBinAddr: 0x100008B30, symSize: 0x30 }
  - { offsetInCU: 0x37FB4, offset: 0x37FB4, size: 0x8, addend: 0x0, symName: __ZNSt3__110unique_ptrINS_10__function6__funcIZN11ToppingListC1EvEUlvE_NS_9allocatorIS4_EEFNS0_I12FruitToppingNS_14default_deleteIS7_EEEEvEEENS_22__allocator_destructorINS5_ISC_EEEEE5resetB8ue170006EPSC_, symObjAddr: 0x5C80, symBinAddr: 0x100008B60, symSize: 0x78 }
  - { offsetInCU: 0x37FF8, offset: 0x37FF8, size: 0x8, addend: 0x0, symName: __ZNSt3__117__compressed_pairIPNS_10__function6__funcIZN11ToppingListC1EvEUlvE_NS_9allocatorIS4_EEFNS_10unique_ptrI12FruitToppingNS_14default_deleteIS8_EEEEvEEENS_22__allocator_destructorINS5_ISD_EEEEE6secondB8ue170006Ev, symObjAddr: 0x5CF8, symBinAddr: 0x100008BD8, symSize: 0x28 }
  - { offsetInCU: 0x3801E, offset: 0x3801E, size: 0x8, addend: 0x0, symName: __ZNSt3__122__allocator_destructorINS_9allocatorINS_10__function6__funcIZN11ToppingListC1EvEUlvE_NS1_IS5_EEFNS_10unique_ptrI12FruitToppingNS_14default_deleteIS8_EEEEvEEEEEEclB8ue170006EPSD_, symObjAddr: 0x5D20, symBinAddr: 0x100008C00, symSize: 0x34 }
  - { offsetInCU: 0x38052, offset: 0x38052, size: 0x8, addend: 0x0, symName: __ZNSt3__122__compressed_pair_elemINS_22__allocator_destructorINS_9allocatorINS_10__function6__funcIZN11ToppingListC1EvEUlvE_NS2_IS6_EEFNS_10unique_ptrI12FruitToppingNS_14default_deleteIS9_EEEEvEEEEEEELi1ELb0EE5__getB8ue170006Ev, symObjAddr: 0x5D54, symBinAddr: 0x100008C34, symSize: 0x14 }
  - { offsetInCU: 0x38078, offset: 0x38078, size: 0x8, addend: 0x0, symName: __ZNSt3__116allocator_traitsINS_9allocatorINS_10__function6__funcIZN11ToppingListC1EvEUlvE_NS1_IS5_EEFNS_10unique_ptrI12FruitToppingNS_14default_deleteIS8_EEEEvEEEEEE10deallocateB8ue170006ERSE_PSD_m, symObjAddr: 0x5D68, symBinAddr: 0x100008C48, symSize: 0x34 }
  - { offsetInCU: 0x380BA, offset: 0x380BA, size: 0x8, addend: 0x0, symName: __ZNSt3__19allocatorINS_10__function6__funcIZN11ToppingListC1EvEUlvE_NS0_IS4_EEFNS_10unique_ptrI12FruitToppingNS_14default_deleteIS7_EEEEvEEEE10deallocateB8ue170006EPSC_m, symObjAddr: 0x5D9C, symBinAddr: 0x100008C7C, symSize: 0x40 }
  - { offsetInCU: 0x380FC, offset: 0x380FC, size: 0x8, addend: 0x0, symName: __ZNSt3__110__function6__funcIZN11ToppingListC1EvEUlvE_NS_9allocatorIS3_EEFNS_10unique_ptrI12FruitToppingNS_14default_deleteIS7_EEEEvEEC1B8ue170006ERKS3_RKS5_, symObjAddr: 0x5DDC, symBinAddr: 0x100008CBC, symSize: 0x3C }
  - { offsetInCU: 0x38144, offset: 0x38144, size: 0x8, addend: 0x0, symName: __ZNSt3__110__function6__funcIZN11ToppingListC1EvEUlvE_NS_9allocatorIS3_EEFNS_10unique_ptrI12FruitToppingNS_14default_deleteIS7_EEEEvEEC2B8ue170006ERKS3_RKS5_, symObjAddr: 0x5E18, symBinAddr: 0x100008CF8, symSize: 0x88 }
  - { offsetInCU: 0x3818C, offset: 0x3818C, size: 0x8, addend: 0x0, symName: __ZNSt3__110__function12__alloc_funcIZN11ToppingListC1EvEUlvE_NS_9allocatorIS3_EEFNS_10unique_ptrI12FruitToppingNS_14default_deleteIS7_EEEEvEEC1B8ue170006ERKS3_RKS5_, symObjAddr: 0x5EA0, symBinAddr: 0x100008D80, symSize: 0x3C }
  - { offsetInCU: 0x381D2, offset: 0x381D2, size: 0x8, addend: 0x0, symName: __ZNSt3__110__function12__alloc_funcIZN11ToppingListC1EvEUlvE_NS_9allocatorIS3_EEFNS_10unique_ptrI12FruitToppingNS_14default_deleteIS7_EEEEvEEC2B8ue170006ERKS3_RKS5_, symObjAddr: 0x5EDC, symBinAddr: 0x100008DBC, symSize: 0x5C }
  - { offsetInCU: 0x38218, offset: 0x38218, size: 0x8, addend: 0x0, symName: __ZNSt3__117__compressed_pairIZN11ToppingListC1EvEUlvE_NS_9allocatorIS2_EEEC1B8ue170006IJRKS2_EJRKS4_EEENS_21piecewise_construct_tENS_5tupleIJDpT_EEENSC_IJDpT0_EEE, symObjAddr: 0x5F64, symBinAddr: 0x100008E44, symSize: 0x3C }
  - { offsetInCU: 0x38282, offset: 0x38282, size: 0x8, addend: 0x0, symName: __ZNSt3__15tupleIJRKNS_9allocatorIZN11ToppingListC1EvEUlvE_EEEEC1B8ue170006INS_4_AndELi0EEES6_, symObjAddr: 0x5FA0, symBinAddr: 0x100008E80, symSize: 0x34 }
  - { offsetInCU: 0x382CA, offset: 0x382CA, size: 0x8, addend: 0x0, symName: __ZNSt3__15tupleIJRKNS_9allocatorIZN11ToppingListC1EvEUlvE_EEEEC2B8ue170006INS_4_AndELi0EEES6_, symObjAddr: 0x5FD4, symBinAddr: 0x100008EB4, symSize: 0x34 }
  - { offsetInCU: 0x38312, offset: 0x38312, size: 0x8, addend: 0x0, symName: __ZNSt3__112__tuple_implINS_15__tuple_indicesIJLm0EEEEJRKNS_9allocatorIZN11ToppingListC1EvEUlvE_EEEEC1B8ue170006IJLm0EEJS8_EJEJEJS8_EEENS1_IJXspT_EEEENS_13__tuple_typesIJDpT0_EEENS1_IJXspT1_EEEENSC_IJDpT2_EEEDpOT3_, symObjAddr: 0x6008, symBinAddr: 0x100008EE8, symSize: 0x34 }
  - { offsetInCU: 0x383A7, offset: 0x383A7, size: 0x8, addend: 0x0, symName: __ZNSt3__112__tuple_implINS_15__tuple_indicesIJLm0EEEEJRKNS_9allocatorIZN11ToppingListC1EvEUlvE_EEEEC2B8ue170006IJLm0EEJS8_EJEJEJS8_EEENS1_IJXspT_EEEENS_13__tuple_typesIJDpT0_EEENS1_IJXspT1_EEEENSC_IJDpT2_EEEDpOT3_, symObjAddr: 0x603C, symBinAddr: 0x100008F1C, symSize: 0x34 }
  - { offsetInCU: 0x3843C, offset: 0x3843C, size: 0x8, addend: 0x0, symName: __ZNSt3__112__tuple_leafILm0ERKNS_9allocatorIZN11ToppingListC1EvEUlvE_EELb0EEC2B8ue170006IS6_vEEOT_, symObjAddr: 0x6070, symBinAddr: 0x100008F50, symSize: 0x20 }
  - { offsetInCU: 0x3847F, offset: 0x3847F, size: 0x8, addend: 0x0, symName: __ZNSt3__117__compressed_pairIZN11ToppingListC1EvEUlvE_NS_9allocatorIS2_EEEC2B8ue170006IJRKS2_EJRKS4_EEENS_21piecewise_construct_tENS_5tupleIJDpT_EEENSC_IJDpT0_EEE, symObjAddr: 0x6090, symBinAddr: 0x100008F70, symSize: 0x54 }
  - { offsetInCU: 0x384E9, offset: 0x384E9, size: 0x8, addend: 0x0, symName: __ZNSt3__122__compressed_pair_elemINS_9allocatorIZN11ToppingListC1EvEUlvE_EELi1ELb1EEC2B8ue170006IJRKS4_EJLm0EEEENS_21piecewise_construct_tENS_5tupleIJDpT_EEENS_15__tuple_indicesIJXspT0_EEEE, symObjAddr: 0x60E4, symBinAddr: 0x100008FC4, symSize: 0x38 }
  - { offsetInCU: 0x3854C, offset: 0x3854C, size: 0x8, addend: 0x0, symName: __ZNSt3__112__tuple_leafILm0ERKNS_9allocatorIZN11ToppingListC1EvEUlvE_EELb0EE3getB8ue170006Ev, symObjAddr: 0x6140, symBinAddr: 0x100009020, symSize: 0x18 }
  - { offsetInCU: 0x38572, offset: 0x38572, size: 0x8, addend: 0x0, symName: __ZNSt3__110__function12__alloc_funcIZN11ToppingListC1EvEUlvE_NS_9allocatorIS3_EEFNS_10unique_ptrI12FruitToppingNS_14default_deleteIS7_EEEEvEE7destroyB8ue170006Ev, symObjAddr: 0x6158, symBinAddr: 0x100009038, symSize: 0x10 }
  - { offsetInCU: 0x38598, offset: 0x38598, size: 0x8, addend: 0x0, symName: __ZNSt3__110__function12__alloc_funcIZN11ToppingListC1EvEUlvE_NS_9allocatorIS3_EEFNS_10unique_ptrI12FruitToppingNS_14default_deleteIS7_EEEEvEEclB8ue170006Ev, symObjAddr: 0x6168, symBinAddr: 0x100009048, symSize: 0x34 }
  - { offsetInCU: 0x385BE, offset: 0x385BE, size: 0x8, addend: 0x0, symName: __ZNSt3__128__invoke_void_return_wrapperINS_10unique_ptrI12FruitToppingNS_14default_deleteIS2_EEEELb0EE6__callB8ue170006IJRZN11ToppingListC1EvEUlvE_EEES5_DpOT_, symObjAddr: 0x619C, symBinAddr: 0x10000907C, symSize: 0x2C }
  - { offsetInCU: 0x385ED, offset: 0x385ED, size: 0x8, addend: 0x0, symName: __ZNSt3__117__compressed_pairIZN11ToppingListC1EvEUlvE_NS_9allocatorIS2_EEE5firstB8ue170006Ev, symObjAddr: 0x61C8, symBinAddr: 0x1000090A8, symSize: 0x24 }
  - { offsetInCU: 0x38619, offset: 0x38619, size: 0x8, addend: 0x0, symName: __ZZN11ToppingListC1EvENKUlvE_clEv, symObjAddr: 0x6218, symBinAddr: 0x1000090F8, symSize: 0x3C }
  - { offsetInCU: 0x38643, offset: 0x38643, size: 0x8, addend: 0x0, symName: __ZN12FruitToppingC1ENSt3__112basic_stringIcNS0_11char_traitsIcEENS0_9allocatorIcEEEEi, symObjAddr: 0x6330, symBinAddr: 0x100009210, symSize: 0x3C }
  - { offsetInCU: 0x3868A, offset: 0x3868A, size: 0x8, addend: 0x0, symName: __ZNSt3__110unique_ptrI12FruitToppingNS_14default_deleteIS1_EEEC1B8ue170006ILb1EvEEPS1_, symObjAddr: 0x636C, symBinAddr: 0x10000924C, symSize: 0x34 }
  - { offsetInCU: 0x386CD, offset: 0x386CD, size: 0x8, addend: 0x0, symName: __ZN12FruitToppingC2ENSt3__112basic_stringIcNS0_11char_traitsIcEENS0_9allocatorIcEEEEi, symObjAddr: 0x63A0, symBinAddr: 0x100009280, symSize: 0x8C }
  - { offsetInCU: 0x38714, offset: 0x38714, size: 0x8, addend: 0x0, symName: __ZN7ToppingC2Ei, symObjAddr: 0x642C, symBinAddr: 0x10000930C, symSize: 0x50 }
  - { offsetInCU: 0x3874C, offset: 0x3874C, size: 0x8, addend: 0x0, symName: __ZN7ToppingD2Ev, symObjAddr: 0x647C, symBinAddr: 0x10000935C, symSize: 0x2C }
  - { offsetInCU: 0x38776, offset: 0x38776, size: 0x8, addend: 0x0, symName: __ZNK12FruitTopping7getNameEv, symObjAddr: 0x64A8, symBinAddr: 0x100009388, symSize: 0x3C }
  - { offsetInCU: 0x3879C, offset: 0x3879C, size: 0x8, addend: 0x0, symName: __ZNK12FruitTopping7getTypeEv, symObjAddr: 0x64E4, symBinAddr: 0x1000093C4, symSize: 0x3C }
  - { offsetInCU: 0x387C2, offset: 0x387C2, size: 0x8, addend: 0x0, symName: __ZNK7Topping11getCategoryEv, symObjAddr: 0x6520, symBinAddr: 0x100009400, symSize: 0x3C }
  - { offsetInCU: 0x387E8, offset: 0x387E8, size: 0x8, addend: 0x0, symName: __ZN12FruitToppingD1Ev, symObjAddr: 0x655C, symBinAddr: 0x10000943C, symSize: 0x2C }
  - { offsetInCU: 0x38814, offset: 0x38814, size: 0x8, addend: 0x0, symName: __ZN12FruitToppingD0Ev, symObjAddr: 0x6588, symBinAddr: 0x100009468, symSize: 0x30 }
  - { offsetInCU: 0x38840, offset: 0x38840, size: 0x8, addend: 0x0, symName: __ZN10IngredientC2Ev, symObjAddr: 0x65B8, symBinAddr: 0x100009498, symSize: 0x24 }
  - { offsetInCU: 0x3886C, offset: 0x3886C, size: 0x8, addend: 0x0, symName: __ZN7ToppingD1Ev, symObjAddr: 0x65DC, symBinAddr: 0x1000094BC, symSize: 0x14 }
  - { offsetInCU: 0x38896, offset: 0x38896, size: 0x8, addend: 0x0, symName: __ZN7ToppingD0Ev, symObjAddr: 0x65F0, symBinAddr: 0x1000094D0, symSize: 0xC }
  - { offsetInCU: 0x388C0, offset: 0x388C0, size: 0x8, addend: 0x0, symName: __ZN10IngredientD1Ev, symObjAddr: 0x65FC, symBinAddr: 0x1000094DC, symSize: 0x14 }
  - { offsetInCU: 0x388EA, offset: 0x388EA, size: 0x8, addend: 0x0, symName: __ZN10IngredientD0Ev, symObjAddr: 0x6610, symBinAddr: 0x1000094F0, symSize: 0xC }
  - { offsetInCU: 0x38914, offset: 0x38914, size: 0x8, addend: 0x0, symName: __ZN10IngredientD2Ev, symObjAddr: 0x661C, symBinAddr: 0x1000094FC, symSize: 0x14 }
  - { offsetInCU: 0x3893E, offset: 0x3893E, size: 0x8, addend: 0x0, symName: __ZN12FruitToppingD2Ev, symObjAddr: 0x6630, symBinAddr: 0x100009510, symSize: 0x48 }
  - { offsetInCU: 0x3896A, offset: 0x3896A, size: 0x8, addend: 0x0, symName: __ZNSt3__110unique_ptrI12FruitToppingNS_14default_deleteIS1_EEEC2B8ue170006ILb1EvEEPS1_, symObjAddr: 0x6678, symBinAddr: 0x100009558, symSize: 0x44 }
  - { offsetInCU: 0x389B3, offset: 0x389B3, size: 0x8, addend: 0x0, symName: __ZNSt3__117__compressed_pairIP12FruitToppingNS_14default_deleteIS1_EEEC1B8ue170006IRS2_NS_16__value_init_tagEEEOT_OT0_, symObjAddr: 0x66BC, symBinAddr: 0x10000959C, symSize: 0x3C }
  - { offsetInCU: 0x38A0B, offset: 0x38A0B, size: 0x8, addend: 0x0, symName: __ZNSt3__117__compressed_pairIP12FruitToppingNS_14default_deleteIS1_EEEC2B8ue170006IRS2_NS_16__value_init_tagEEEOT_OT0_, symObjAddr: 0x66F8, symBinAddr: 0x1000095D8, symSize: 0x40 }
  - { offsetInCU: 0x38A63, offset: 0x38A63, size: 0x8, addend: 0x0, symName: __ZNSt3__122__compressed_pair_elemIP12FruitToppingLi0ELb0EEC2B8ue170006IRS2_vEEOT_, symObjAddr: 0x6738, symBinAddr: 0x100009618, symSize: 0x24 }
  - { offsetInCU: 0x38AA5, offset: 0x38AA5, size: 0x8, addend: 0x0, symName: __ZNSt3__122__compressed_pair_elemINS_14default_deleteI12FruitToppingEELi1ELb1EEC2B8ue170006ENS_16__value_init_tagE, symObjAddr: 0x675C, symBinAddr: 0x10000963C, symSize: 0x14 }
  - { offsetInCU: 0x38AD9, offset: 0x38AD9, size: 0x8, addend: 0x0, symName: __ZNSt3__122__compressed_pair_elemIZN11ToppingListC1EvEUlvE_Li0ELb1EE5__getB8ue170006Ev, symObjAddr: 0x6770, symBinAddr: 0x100009650, symSize: 0x14 }
  - { offsetInCU: 0x38B35, offset: 0x38B35, size: 0x8, addend: 0x0, symName: __ZNKSt9type_infoeqB8ue170006ERKS_, symObjAddr: 0x6784, symBinAddr: 0x100009664, symSize: 0xDC }
  - { offsetInCU: 0x38BD3, offset: 0x38BD3, size: 0x8, addend: 0x0, symName: __ZNSt27__type_info_implementations30__non_unique_arm_rtti_bit_impl21__is_type_name_uniqueB8ue170006Em, symObjAddr: 0x6860, symBinAddr: 0x100009740, symSize: 0x20 }
  - { offsetInCU: 0x38BF7, offset: 0x38BF7, size: 0x8, addend: 0x0, symName: __ZNSt3__18functionIFNS_10unique_ptrI12FruitToppingNS_14default_deleteIS2_EEEEvEED2Ev, symObjAddr: 0x6880, symBinAddr: 0x100009760, symSize: 0x2C }
  - { offsetInCU: 0x38C23, offset: 0x38C23, size: 0x8, addend: 0x0, symName: __ZNSt3__110__function12__value_funcIFNS_10unique_ptrI12FruitToppingNS_14default_deleteIS3_EEEEvEED1B8ue170006Ev, symObjAddr: 0x68AC, symBinAddr: 0x10000978C, symSize: 0x2C }
  - { offsetInCU: 0x38C4D, offset: 0x38C4D, size: 0x8, addend: 0x0, symName: __ZNSt3__110__function12__value_funcIFNS_10unique_ptrI12FruitToppingNS_14default_deleteIS3_EEEEvEED2B8ue170006Ev, symObjAddr: 0x68D8, symBinAddr: 0x1000097B8, symSize: 0x90 }
  - { offsetInCU: 0x38C77, offset: 0x38C77, size: 0x8, addend: 0x0, symName: __ZNSt3__18functionIFNS_10unique_ptrI12FruitToppingNS_14default_deleteIS2_EEEEvEEC2IZN11ToppingListC1EvEUlvE0_vEET_, symObjAddr: 0x6968, symBinAddr: 0x100009848, symSize: 0x30 }
  - { offsetInCU: 0x38CBC, offset: 0x38CBC, size: 0x8, addend: 0x0, symName: __ZNSt3__110__function12__value_funcIFNS_10unique_ptrI12FruitToppingNS_14default_deleteIS3_EEEEvEEC1B8ue170006IZN11ToppingListC1EvEUlvE0_vEEOT_, symObjAddr: 0x6998, symBinAddr: 0x100009878, symSize: 0x50 }
  - { offsetInCU: 0x38CFF, offset: 0x38CFF, size: 0x8, addend: 0x0, symName: __ZNSt3__19allocatorIZN11ToppingListC1EvEUlvE0_EC1B8ue170006Ev, symObjAddr: 0x69E8, symBinAddr: 0x1000098C8, symSize: 0x2C }
  - { offsetInCU: 0x38D29, offset: 0x38D29, size: 0x8, addend: 0x0, symName: __ZNSt3__110__function12__value_funcIFNS_10unique_ptrI12FruitToppingNS_14default_deleteIS3_EEEEvEEC1B8ue170006IZN11ToppingListC1EvEUlvE0_NS_9allocatorISB_EEEEOT_RKT0_, symObjAddr: 0x6A14, symBinAddr: 0x1000098F4, symSize: 0x3C }
  - { offsetInCU: 0x38D83, offset: 0x38D83, size: 0x8, addend: 0x0, symName: __ZNSt3__19allocatorIZN11ToppingListC1EvEUlvE0_EC2B8ue170006Ev, symObjAddr: 0x6A50, symBinAddr: 0x100009930, symSize: 0x2C }
  - { offsetInCU: 0x38DAD, offset: 0x38DAD, size: 0x8, addend: 0x0, symName: __ZNSt3__116__non_trivial_ifILb1ENS_9allocatorIZN11ToppingListC1EvEUlvE0_EEEC2B8ue170006Ev, symObjAddr: 0x6A7C, symBinAddr: 0x10000995C, symSize: 0x14 }
  - { offsetInCU: 0x38DD7, offset: 0x38DD7, size: 0x8, addend: 0x0, symName: __ZNSt3__110__function12__value_funcIFNS_10unique_ptrI12FruitToppingNS_14default_deleteIS3_EEEEvEEC2B8ue170006IZN11ToppingListC1EvEUlvE0_NS_9allocatorISB_EEEEOT_RKT0_, symObjAddr: 0x6A90, symBinAddr: 0x100009970, symSize: 0x94 }
  - { offsetInCU: 0x38E84, offset: 0x38E84, size: 0x8, addend: 0x0, symName: __ZNSt3__19allocatorINS_10__function6__funcIZN11ToppingListC1EvEUlvE0_NS0_IS4_EEFNS_10unique_ptrI12FruitToppingNS_14default_deleteIS7_EEEEvEEEEC1B8ue170006IS4_EERKNS0_IT_EE, symObjAddr: 0x6B3C, symBinAddr: 0x100009A1C, symSize: 0x34 }
  - { offsetInCU: 0x38EC7, offset: 0x38EC7, size: 0x8, addend: 0x0, symName: __ZNSt3__19allocatorIZN11ToppingListC1EvEUlvE0_EC1B8ue170006INS_10__function6__funcIS2_S3_FNS_10unique_ptrI12FruitToppingNS_14default_deleteIS8_EEEEvEEEEERKNS0_IT_EE, symObjAddr: 0x6B70, symBinAddr: 0x100009A50, symSize: 0x34 }
  - { offsetInCU: 0x38F04, offset: 0x38F04, size: 0x8, addend: 0x0, symName: __ZNSt3__110__function6__funcIZN11ToppingListC1EvEUlvE0_NS_9allocatorIS3_EEFNS_10unique_ptrI12FruitToppingNS_14default_deleteIS7_EEEEvEEC1B8ue170006EOS3_OS5_, symObjAddr: 0x6BA4, symBinAddr: 0x100009A84, symSize: 0x3C }
  - { offsetInCU: 0x38F4C, offset: 0x38F4C, size: 0x8, addend: 0x0, symName: __ZNSt3__19allocatorINS_10__function6__funcIZN11ToppingListC1EvEUlvE0_NS0_IS4_EEFNS_10unique_ptrI12FruitToppingNS_14default_deleteIS7_EEEEvEEEEC2B8ue170006IS4_EERKNS0_IT_EE, symObjAddr: 0x6BE0, symBinAddr: 0x100009AC0, symSize: 0x30 }
  - { offsetInCU: 0x38F89, offset: 0x38F89, size: 0x8, addend: 0x0, symName: __ZNSt3__116__non_trivial_ifILb1ENS_9allocatorINS_10__function6__funcIZN11ToppingListC1EvEUlvE0_NS1_IS5_EEFNS_10unique_ptrI12FruitToppingNS_14default_deleteIS8_EEEEvEEEEEEC2B8ue170006Ev, symObjAddr: 0x6C10, symBinAddr: 0x100009AF0, symSize: 0x14 }
  - { offsetInCU: 0x38FB3, offset: 0x38FB3, size: 0x8, addend: 0x0, symName: __ZNSt3__19allocatorIZN11ToppingListC1EvEUlvE0_EC2B8ue170006INS_10__function6__funcIS2_S3_FNS_10unique_ptrI12FruitToppingNS_14default_deleteIS8_EEEEvEEEEERKNS0_IT_EE, symObjAddr: 0x6C24, symBinAddr: 0x100009B04, symSize: 0x30 }
  - { offsetInCU: 0x38FF0, offset: 0x38FF0, size: 0x8, addend: 0x0, symName: __ZNSt3__110__function6__funcIZN11ToppingListC1EvEUlvE0_NS_9allocatorIS3_EEFNS_10unique_ptrI12FruitToppingNS_14default_deleteIS7_EEEEvEEC2B8ue170006EOS3_OS5_, symObjAddr: 0x6C54, symBinAddr: 0x100009B34, symSize: 0x88 }
  - { offsetInCU: 0x39038, offset: 0x39038, size: 0x8, addend: 0x0, symName: __ZNSt3__110__function12__alloc_funcIZN11ToppingListC1EvEUlvE0_NS_9allocatorIS3_EEFNS_10unique_ptrI12FruitToppingNS_14default_deleteIS7_EEEEvEEC1B8ue170006EOS3_OS5_, symObjAddr: 0x6CDC, symBinAddr: 0x100009BBC, symSize: 0x3C }
  - { offsetInCU: 0x3907E, offset: 0x3907E, size: 0x8, addend: 0x0, symName: __ZNSt3__110__function6__funcIZN11ToppingListC1EvEUlvE0_NS_9allocatorIS3_EEFNS_10unique_ptrI12FruitToppingNS_14default_deleteIS7_EEEEvEED1Ev, symObjAddr: 0x6D18, symBinAddr: 0x100009BF8, symSize: 0x2C }
  - { offsetInCU: 0x390AB, offset: 0x390AB, size: 0x8, addend: 0x0, symName: __ZNSt3__110__function6__funcIZN11ToppingListC1EvEUlvE0_NS_9allocatorIS3_EEFNS_10unique_ptrI12FruitToppingNS_14default_deleteIS7_EEEEvEED0Ev, symObjAddr: 0x6D44, symBinAddr: 0x100009C24, symSize: 0x30 }
  - { offsetInCU: 0x390D8, offset: 0x390D8, size: 0x8, addend: 0x0, symName: __ZNKSt3__110__function6__funcIZN11ToppingListC1EvEUlvE0_NS_9allocatorIS3_EEFNS_10unique_ptrI12FruitToppingNS_14default_deleteIS7_EEEEvEE7__cloneEv, symObjAddr: 0x6D74, symBinAddr: 0x100009C54, symSize: 0xFC }
  - { offsetInCU: 0x3912A, offset: 0x3912A, size: 0x8, addend: 0x0, symName: __ZNKSt3__110__function6__funcIZN11ToppingListC1EvEUlvE0_NS_9allocatorIS3_EEFNS_10unique_ptrI12FruitToppingNS_14default_deleteIS7_EEEEvEE7__cloneEPNS0_6__baseISB_EE, symObjAddr: 0x6E70, symBinAddr: 0x100009D50, symSize: 0x58 }
  - { offsetInCU: 0x39161, offset: 0x39161, size: 0x8, addend: 0x0, symName: __ZNSt3__110__function6__funcIZN11ToppingListC1EvEUlvE0_NS_9allocatorIS3_EEFNS_10unique_ptrI12FruitToppingNS_14default_deleteIS7_EEEEvEE7destroyEv, symObjAddr: 0x6EC8, symBinAddr: 0x100009DA8, symSize: 0x28 }
  - { offsetInCU: 0x39189, offset: 0x39189, size: 0x8, addend: 0x0, symName: __ZNSt3__110__function6__funcIZN11ToppingListC1EvEUlvE0_NS_9allocatorIS3_EEFNS_10unique_ptrI12FruitToppingNS_14default_deleteIS7_EEEEvEE18destroy_deallocateEv, symObjAddr: 0x6EF0, symBinAddr: 0x100009DD0, symSize: 0x58 }
  - { offsetInCU: 0x391CC, offset: 0x391CC, size: 0x8, addend: 0x0, symName: __ZNSt3__110__function6__funcIZN11ToppingListC1EvEUlvE0_NS_9allocatorIS3_EEFNS_10unique_ptrI12FruitToppingNS_14default_deleteIS7_EEEEvEEclEv, symObjAddr: 0x6F48, symBinAddr: 0x100009E28, symSize: 0x30 }
  - { offsetInCU: 0x391F4, offset: 0x391F4, size: 0x8, addend: 0x0, symName: __ZNKSt3__110__function6__funcIZN11ToppingListC1EvEUlvE0_NS_9allocatorIS3_EEFNS_10unique_ptrI12FruitToppingNS_14default_deleteIS7_EEEEvEE6targetERKSt9type_info, symObjAddr: 0x6F78, symBinAddr: 0x100009E58, symSize: 0x60 }
  - { offsetInCU: 0x3922B, offset: 0x3922B, size: 0x8, addend: 0x0, symName: __ZNKSt3__110__function6__funcIZN11ToppingListC1EvEUlvE0_NS_9allocatorIS3_EEFNS_10unique_ptrI12FruitToppingNS_14default_deleteIS7_EEEEvEE11target_typeEv, symObjAddr: 0x6FD8, symBinAddr: 0x100009EB8, symSize: 0x18 }
  - { offsetInCU: 0x39253, offset: 0x39253, size: 0x8, addend: 0x0, symName: __ZNSt3__110__function12__alloc_funcIZN11ToppingListC1EvEUlvE0_NS_9allocatorIS3_EEFNS_10unique_ptrI12FruitToppingNS_14default_deleteIS7_EEEEvEEC2B8ue170006EOS3_OS5_, symObjAddr: 0x6FF0, symBinAddr: 0x100009ED0, symSize: 0x5C }
  - { offsetInCU: 0x39299, offset: 0x39299, size: 0x8, addend: 0x0, symName: __ZNSt3__117__compressed_pairIZN11ToppingListC1EvEUlvE0_NS_9allocatorIS2_EEEC1B8ue170006IJOS2_EJOS4_EEENS_21piecewise_construct_tENS_5tupleIJDpT_EEENSA_IJDpT0_EEE, symObjAddr: 0x70A4, symBinAddr: 0x100009F84, symSize: 0x3C }
  - { offsetInCU: 0x39303, offset: 0x39303, size: 0x8, addend: 0x0, symName: __ZNSt3__15tupleIJOZN11ToppingListC1EvEUlvE0_EEC1B8ue170006IJS2_ELi0EEEDpOT_, symObjAddr: 0x70E0, symBinAddr: 0x100009FC0, symSize: 0x34 }
  - { offsetInCU: 0x3934D, offset: 0x3934D, size: 0x8, addend: 0x0, symName: __ZNSt3__15tupleIJOZN11ToppingListC1EvEUlvE0_EEC2B8ue170006IJS2_ELi0EEEDpOT_, symObjAddr: 0x7114, symBinAddr: 0x100009FF4, symSize: 0x34 }
  - { offsetInCU: 0x39397, offset: 0x39397, size: 0x8, addend: 0x0, symName: __ZNSt3__112__tuple_implINS_15__tuple_indicesIJLm0EEEEJOZN11ToppingListC1EvEUlvE0_EEC1B8ue170006IJLm0EEJS5_EJEJEJS4_EEENS1_IJXspT_EEEENS_13__tuple_typesIJDpT0_EEENS1_IJXspT1_EEEENS9_IJDpT2_EEEDpOT3_, symObjAddr: 0x7148, symBinAddr: 0x10000A028, symSize: 0x34 }
  - { offsetInCU: 0x3942C, offset: 0x3942C, size: 0x8, addend: 0x0, symName: __ZNSt3__112__tuple_implINS_15__tuple_indicesIJLm0EEEEJOZN11ToppingListC1EvEUlvE0_EEC2B8ue170006IJLm0EEJS5_EJEJEJS4_EEENS1_IJXspT_EEEENS_13__tuple_typesIJDpT0_EEENS1_IJXspT1_EEEENS9_IJDpT2_EEEDpOT3_, symObjAddr: 0x717C, symBinAddr: 0x10000A05C, symSize: 0x34 }
  - { offsetInCU: 0x394C1, offset: 0x394C1, size: 0x8, addend: 0x0, symName: __ZNSt3__112__tuple_leafILm0EOZN11ToppingListC1EvEUlvE0_Lb0EEC2B8ue170006IS2_vEEOT_, symObjAddr: 0x71B0, symBinAddr: 0x10000A090, symSize: 0x20 }
  - { offsetInCU: 0x39504, offset: 0x39504, size: 0x8, addend: 0x0, symName: __ZNSt3__15tupleIJONS_9allocatorIZN11ToppingListC1EvEUlvE0_EEEEC1B8ue170006IJS4_ELi0EEEDpOT_, symObjAddr: 0x71D0, symBinAddr: 0x10000A0B0, symSize: 0x34 }
  - { offsetInCU: 0x3954E, offset: 0x3954E, size: 0x8, addend: 0x0, symName: __ZNSt3__15tupleIJONS_9allocatorIZN11ToppingListC1EvEUlvE0_EEEEC2B8ue170006IJS4_ELi0EEEDpOT_, symObjAddr: 0x7204, symBinAddr: 0x10000A0E4, symSize: 0x34 }
  - { offsetInCU: 0x39598, offset: 0x39598, size: 0x8, addend: 0x0, symName: __ZNSt3__112__tuple_implINS_15__tuple_indicesIJLm0EEEEJONS_9allocatorIZN11ToppingListC1EvEUlvE0_EEEEC1B8ue170006IJLm0EEJS7_EJEJEJS6_EEENS1_IJXspT_EEEENS_13__tuple_typesIJDpT0_EEENS1_IJXspT1_EEEENSB_IJDpT2_EEEDpOT3_, symObjAddr: 0x7238, symBinAddr: 0x10000A118, symSize: 0x34 }
  - { offsetInCU: 0x3962D, offset: 0x3962D, size: 0x8, addend: 0x0, symName: __ZNSt3__112__tuple_implINS_15__tuple_indicesIJLm0EEEEJONS_9allocatorIZN11ToppingListC1EvEUlvE0_EEEEC2B8ue170006IJLm0EEJS7_EJEJEJS6_EEENS1_IJXspT_EEEENS_13__tuple_typesIJDpT0_EEENS1_IJXspT1_EEEENSB_IJDpT2_EEEDpOT3_, symObjAddr: 0x726C, symBinAddr: 0x10000A14C, symSize: 0x34 }
  - { offsetInCU: 0x396C2, offset: 0x396C2, size: 0x8, addend: 0x0, symName: __ZNSt3__112__tuple_leafILm0EONS_9allocatorIZN11ToppingListC1EvEUlvE0_EELb0EEC2B8ue170006IS4_vEEOT_, symObjAddr: 0x72A0, symBinAddr: 0x10000A180, symSize: 0x20 }
  - { offsetInCU: 0x39705, offset: 0x39705, size: 0x8, addend: 0x0, symName: __ZNSt3__117__compressed_pairIZN11ToppingListC1EvEUlvE0_NS_9allocatorIS2_EEEC2B8ue170006IJOS2_EJOS4_EEENS_21piecewise_construct_tENS_5tupleIJDpT_EEENSA_IJDpT0_EEE, symObjAddr: 0x72C0, symBinAddr: 0x10000A1A0, symSize: 0x54 }
  - { offsetInCU: 0x3976F, offset: 0x3976F, size: 0x8, addend: 0x0, symName: __ZNSt3__122__compressed_pair_elemIZN11ToppingListC1EvEUlvE0_Li0ELb1EEC2B8ue170006IJOS2_EJLm0EEEENS_21piecewise_construct_tENS_5tupleIJDpT_EEENS_15__tuple_indicesIJXspT0_EEEE, symObjAddr: 0x7314, symBinAddr: 0x10000A1F4, symSize: 0x38 }
  - { offsetInCU: 0x397D2, offset: 0x397D2, size: 0x8, addend: 0x0, symName: __ZNSt3__122__compressed_pair_elemINS_9allocatorIZN11ToppingListC1EvEUlvE0_EELi1ELb1EEC2B8ue170006IJOS4_EJLm0EEEENS_21piecewise_construct_tENS_5tupleIJDpT_EEENS_15__tuple_indicesIJXspT0_EEEE, symObjAddr: 0x734C, symBinAddr: 0x10000A22C, symSize: 0x38 }
  - { offsetInCU: 0x39835, offset: 0x39835, size: 0x8, addend: 0x0, symName: __ZNSt3__112__tuple_leafILm0EOZN11ToppingListC1EvEUlvE0_Lb0EE3getB8ue170006Ev, symObjAddr: 0x73A8, symBinAddr: 0x10000A288, symSize: 0x18 }
  - { offsetInCU: 0x3985B, offset: 0x3985B, size: 0x8, addend: 0x0, symName: __ZNSt3__112__tuple_leafILm0EONS_9allocatorIZN11ToppingListC1EvEUlvE0_EELb0EE3getB8ue170006Ev, symObjAddr: 0x73E4, symBinAddr: 0x10000A2C4, symSize: 0x18 }
  - { offsetInCU: 0x39881, offset: 0x39881, size: 0x8, addend: 0x0, symName: __ZNSt3__110__function6__funcIZN11ToppingListC1EvEUlvE0_NS_9allocatorIS3_EEFNS_10unique_ptrI12FruitToppingNS_14default_deleteIS7_EEEEvEED2Ev, symObjAddr: 0x73FC, symBinAddr: 0x10000A2DC, symSize: 0x2C }
  - { offsetInCU: 0x398AE, offset: 0x398AE, size: 0x8, addend: 0x0, symName: __ZNKSt3__110__function12__alloc_funcIZN11ToppingListC1EvEUlvE0_NS_9allocatorIS3_EEFNS_10unique_ptrI12FruitToppingNS_14default_deleteIS7_EEEEvEE15__get_allocatorB8ue170006Ev, symObjAddr: 0x7428, symBinAddr: 0x10000A308, symSize: 0x24 }
  - { offsetInCU: 0x398D4, offset: 0x398D4, size: 0x8, addend: 0x0, symName: __ZNSt3__19allocatorINS_10__function6__funcIZN11ToppingListC1EvEUlvE0_NS0_IS4_EEFNS_10unique_ptrI12FruitToppingNS_14default_deleteIS7_EEEEvEEEE8allocateB8ue170006Em, symObjAddr: 0x744C, symBinAddr: 0x10000A32C, symSize: 0x58 }
  - { offsetInCU: 0x3991A, offset: 0x3991A, size: 0x8, addend: 0x0, symName: __ZNSt3__122__allocator_destructorINS_9allocatorINS_10__function6__funcIZN11ToppingListC1EvEUlvE0_NS1_IS5_EEFNS_10unique_ptrI12FruitToppingNS_14default_deleteIS8_EEEEvEEEEEEC1B8ue170006ERSE_m, symObjAddr: 0x74A4, symBinAddr: 0x10000A384, symSize: 0x3C }
  - { offsetInCU: 0x39A08, offset: 0x39A08, size: 0x8, addend: 0x0, symName: __ZNSt3__110unique_ptrINS_10__function6__funcIZN11ToppingListC1EvEUlvE0_NS_9allocatorIS4_EEFNS0_I12FruitToppingNS_14default_deleteIS7_EEEEvEEENS_22__allocator_destructorINS5_ISC_EEEEEC1B8ue170006ILb1EvEEPSC_NS_16__dependent_typeINS_27__unique_ptr_deleter_sfinaeISF_EEXT_EE20__good_rval_ref_typeE, symObjAddr: 0x74E0, symBinAddr: 0x10000A3C0, symSize: 0x3C }
  - { offsetInCU: 0x39A59, offset: 0x39A59, size: 0x8, addend: 0x0, symName: __ZNKSt3__110unique_ptrINS_10__function6__funcIZN11ToppingListC1EvEUlvE0_NS_9allocatorIS4_EEFNS0_I12FruitToppingNS_14default_deleteIS7_EEEEvEEENS_22__allocator_destructorINS5_ISC_EEEEE3getB8ue170006Ev, symObjAddr: 0x751C, symBinAddr: 0x10000A3FC, symSize: 0x28 }
  - { offsetInCU: 0x39A7F, offset: 0x39A7F, size: 0x8, addend: 0x0, symName: __ZNKSt3__110__function12__alloc_funcIZN11ToppingListC1EvEUlvE0_NS_9allocatorIS3_EEFNS_10unique_ptrI12FruitToppingNS_14default_deleteIS7_EEEEvEE8__targetB8ue170006Ev, symObjAddr: 0x7544, symBinAddr: 0x10000A424, symSize: 0x24 }
  - { offsetInCU: 0x39AA5, offset: 0x39AA5, size: 0x8, addend: 0x0, symName: __ZNSt3__110__function6__funcIZN11ToppingListC1EvEUlvE0_NS_9allocatorIS3_EEFNS_10unique_ptrI12FruitToppingNS_14default_deleteIS7_EEEEvEEC1B8ue170006ERKS3_OS5_, symObjAddr: 0x7568, symBinAddr: 0x10000A448, symSize: 0x3C }
  - { offsetInCU: 0x39AED, offset: 0x39AED, size: 0x8, addend: 0x0, symName: __ZNSt3__110unique_ptrINS_10__function6__funcIZN11ToppingListC1EvEUlvE0_NS_9allocatorIS4_EEFNS0_I12FruitToppingNS_14default_deleteIS7_EEEEvEEENS_22__allocator_destructorINS5_ISC_EEEEE7releaseB8ue170006Ev, symObjAddr: 0x75A4, symBinAddr: 0x10000A484, symSize: 0x44 }
  - { offsetInCU: 0x39B22, offset: 0x39B22, size: 0x8, addend: 0x0, symName: __ZNSt3__110unique_ptrINS_10__function6__funcIZN11ToppingListC1EvEUlvE0_NS_9allocatorIS4_EEFNS0_I12FruitToppingNS_14default_deleteIS7_EEEEvEEENS_22__allocator_destructorINS5_ISC_EEEEED1B8ue170006Ev, symObjAddr: 0x75E8, symBinAddr: 0x10000A4C8, symSize: 0x2C }
  - { offsetInCU: 0x39B4C, offset: 0x39B4C, size: 0x8, addend: 0x0, symName: __ZNKSt3__117__compressed_pairIZN11ToppingListC1EvEUlvE0_NS_9allocatorIS2_EEE6secondB8ue170006Ev, symObjAddr: 0x7614, symBinAddr: 0x10000A4F4, symSize: 0x24 }
  - { offsetInCU: 0x39B72, offset: 0x39B72, size: 0x8, addend: 0x0, symName: __ZNKSt3__122__compressed_pair_elemINS_9allocatorIZN11ToppingListC1EvEUlvE0_EELi1ELb1EE5__getB8ue170006Ev, symObjAddr: 0x7638, symBinAddr: 0x10000A518, symSize: 0x14 }
  - { offsetInCU: 0x39BA4, offset: 0x39BA4, size: 0x8, addend: 0x0, symName: __ZNSt3__116allocator_traitsINS_9allocatorINS_10__function6__funcIZN11ToppingListC1EvEUlvE0_NS1_IS5_EEFNS_10unique_ptrI12FruitToppingNS_14default_deleteIS8_EEEEvEEEEEE8max_sizeB8ue170006ISE_vEEmRKSE_, symObjAddr: 0x764C, symBinAddr: 0x10000A52C, symSize: 0x24 }
  - { offsetInCU: 0x39BD2, offset: 0x39BD2, size: 0x8, addend: 0x0, symName: __ZNKSt3__19allocatorINS_10__function6__funcIZN11ToppingListC1EvEUlvE0_NS0_IS4_EEFNS_10unique_ptrI12FruitToppingNS_14default_deleteIS7_EEEEvEEEE8max_sizeB8ue170006Ev, symObjAddr: 0x7670, symBinAddr: 0x10000A550, symSize: 0x14 }
  - { offsetInCU: 0x39BF8, offset: 0x39BF8, size: 0x8, addend: 0x0, symName: __ZNSt3__122__allocator_destructorINS_9allocatorINS_10__function6__funcIZN11ToppingListC1EvEUlvE0_NS1_IS5_EEFNS_10unique_ptrI12FruitToppingNS_14default_deleteIS8_EEEEvEEEEEEC2B8ue170006ERSE_m, symObjAddr: 0x7684, symBinAddr: 0x10000A564, symSize: 0x2C }
  - { offsetInCU: 0x39C3E, offset: 0x39C3E, size: 0x8, addend: 0x0, symName: __ZNSt3__110unique_ptrINS_10__function6__funcIZN11ToppingListC1EvEUlvE0_NS_9allocatorIS4_EEFNS0_I12FruitToppingNS_14default_deleteIS7_EEEEvEEENS_22__allocator_destructorINS5_ISC_EEEEEC2B8ue170006ILb1EvEEPSC_NS_16__dependent_typeINS_27__unique_ptr_deleter_sfinaeISF_EEXT_EE20__good_rval_ref_typeE, symObjAddr: 0x76B0, symBinAddr: 0x10000A590, symSize: 0x48 }
  - { offsetInCU: 0x39C8F, offset: 0x39C8F, size: 0x8, addend: 0x0, symName: __ZNSt3__117__compressed_pairIPNS_10__function6__funcIZN11ToppingListC1EvEUlvE0_NS_9allocatorIS4_EEFNS_10unique_ptrI12FruitToppingNS_14default_deleteIS8_EEEEvEEENS_22__allocator_destructorINS5_ISD_EEEEEC1B8ue170006IRSE_SH_EEOT_OT0_, symObjAddr: 0x76F8, symBinAddr: 0x10000A5D8, symSize: 0x3C }
  - { offsetInCU: 0x39CE7, offset: 0x39CE7, size: 0x8, addend: 0x0, symName: __ZNSt3__117__compressed_pairIPNS_10__function6__funcIZN11ToppingListC1EvEUlvE0_NS_9allocatorIS4_EEFNS_10unique_ptrI12FruitToppingNS_14default_deleteIS8_EEEEvEEENS_22__allocator_destructorINS5_ISD_EEEEEC2B8ue170006IRSE_SH_EEOT_OT0_, symObjAddr: 0x7734, symBinAddr: 0x10000A614, symSize: 0x48 }
  - { offsetInCU: 0x39D3F, offset: 0x39D3F, size: 0x8, addend: 0x0, symName: __ZNSt3__122__compressed_pair_elemIPNS_10__function6__funcIZN11ToppingListC1EvEUlvE0_NS_9allocatorIS4_EEFNS_10unique_ptrI12FruitToppingNS_14default_deleteIS8_EEEEvEEELi0ELb0EEC2B8ue170006IRSE_vEEOT_, symObjAddr: 0x777C, symBinAddr: 0x10000A65C, symSize: 0x24 }
  - { offsetInCU: 0x39D81, offset: 0x39D81, size: 0x8, addend: 0x0, symName: __ZNSt3__122__compressed_pair_elemINS_22__allocator_destructorINS_9allocatorINS_10__function6__funcIZN11ToppingListC1EvEUlvE0_NS2_IS6_EEFNS_10unique_ptrI12FruitToppingNS_14default_deleteIS9_EEEEvEEEEEEELi1ELb0EEC2B8ue170006ISG_vEEOT_, symObjAddr: 0x77A0, symBinAddr: 0x10000A680, symSize: 0x24 }
  - { offsetInCU: 0x39DC3, offset: 0x39DC3, size: 0x8, addend: 0x0, symName: __ZNKSt3__117__compressed_pairIPNS_10__function6__funcIZN11ToppingListC1EvEUlvE0_NS_9allocatorIS4_EEFNS_10unique_ptrI12FruitToppingNS_14default_deleteIS8_EEEEvEEENS_22__allocator_destructorINS5_ISD_EEEEE5firstB8ue170006Ev, symObjAddr: 0x77C4, symBinAddr: 0x10000A6A4, symSize: 0x24 }
  - { offsetInCU: 0x39DE9, offset: 0x39DE9, size: 0x8, addend: 0x0, symName: __ZNKSt3__122__compressed_pair_elemIPNS_10__function6__funcIZN11ToppingListC1EvEUlvE0_NS_9allocatorIS4_EEFNS_10unique_ptrI12FruitToppingNS_14default_deleteIS8_EEEEvEEELi0ELb0EE5__getB8ue170006Ev, symObjAddr: 0x77E8, symBinAddr: 0x10000A6C8, symSize: 0x14 }
  - { offsetInCU: 0x39E0F, offset: 0x39E0F, size: 0x8, addend: 0x0, symName: __ZNKSt3__117__compressed_pairIZN11ToppingListC1EvEUlvE0_NS_9allocatorIS2_EEE5firstB8ue170006Ev, symObjAddr: 0x77FC, symBinAddr: 0x10000A6DC, symSize: 0x24 }
  - { offsetInCU: 0x39E35, offset: 0x39E35, size: 0x8, addend: 0x0, symName: __ZNKSt3__122__compressed_pair_elemIZN11ToppingListC1EvEUlvE0_Li0ELb1EE5__getB8ue170006Ev, symObjAddr: 0x7820, symBinAddr: 0x10000A700, symSize: 0x14 }
  - { offsetInCU: 0x39E5B, offset: 0x39E5B, size: 0x8, addend: 0x0, symName: __ZNSt3__110__function6__funcIZN11ToppingListC1EvEUlvE0_NS_9allocatorIS3_EEFNS_10unique_ptrI12FruitToppingNS_14default_deleteIS7_EEEEvEEC2B8ue170006ERKS3_OS5_, symObjAddr: 0x7834, symBinAddr: 0x10000A714, symSize: 0x88 }
  - { offsetInCU: 0x39EA3, offset: 0x39EA3, size: 0x8, addend: 0x0, symName: __ZNSt3__110__function12__alloc_funcIZN11ToppingListC1EvEUlvE0_NS_9allocatorIS3_EEFNS_10unique_ptrI12FruitToppingNS_14default_deleteIS7_EEEEvEEC1B8ue170006ERKS3_OS5_, symObjAddr: 0x78BC, symBinAddr: 0x10000A79C, symSize: 0x3C }
  - { offsetInCU: 0x39EE9, offset: 0x39EE9, size: 0x8, addend: 0x0, symName: __ZNSt3__110__function12__alloc_funcIZN11ToppingListC1EvEUlvE0_NS_9allocatorIS3_EEFNS_10unique_ptrI12FruitToppingNS_14default_deleteIS7_EEEEvEEC2B8ue170006ERKS3_OS5_, symObjAddr: 0x78F8, symBinAddr: 0x10000A7D8, symSize: 0x5C }
  - { offsetInCU: 0x39F2F, offset: 0x39F2F, size: 0x8, addend: 0x0, symName: __ZNSt3__117__compressed_pairIZN11ToppingListC1EvEUlvE0_NS_9allocatorIS2_EEEC1B8ue170006IJRKS2_EJOS4_EEENS_21piecewise_construct_tENS_5tupleIJDpT_EEENSB_IJDpT0_EEE, symObjAddr: 0x7980, symBinAddr: 0x10000A860, symSize: 0x3C }
  - { offsetInCU: 0x39F99, offset: 0x39F99, size: 0x8, addend: 0x0, symName: __ZNSt3__15tupleIJRKZN11ToppingListC1EvEUlvE0_EEC1B8ue170006INS_4_AndELi0EEES4_, symObjAddr: 0x79BC, symBinAddr: 0x10000A89C, symSize: 0x34 }
  - { offsetInCU: 0x39FE1, offset: 0x39FE1, size: 0x8, addend: 0x0, symName: __ZNSt3__15tupleIJRKZN11ToppingListC1EvEUlvE0_EEC2B8ue170006INS_4_AndELi0EEES4_, symObjAddr: 0x79F0, symBinAddr: 0x10000A8D0, symSize: 0x34 }
  - { offsetInCU: 0x3A029, offset: 0x3A029, size: 0x8, addend: 0x0, symName: __ZNSt3__112__tuple_implINS_15__tuple_indicesIJLm0EEEEJRKZN11ToppingListC1EvEUlvE0_EEC1B8ue170006IJLm0EEJS6_EJEJEJS6_EEENS1_IJXspT_EEEENS_13__tuple_typesIJDpT0_EEENS1_IJXspT1_EEEENSA_IJDpT2_EEEDpOT3_, symObjAddr: 0x7A24, symBinAddr: 0x10000A904, symSize: 0x34 }
  - { offsetInCU: 0x3A0BE, offset: 0x3A0BE, size: 0x8, addend: 0x0, symName: __ZNSt3__112__tuple_implINS_15__tuple_indicesIJLm0EEEEJRKZN11ToppingListC1EvEUlvE0_EEC2B8ue170006IJLm0EEJS6_EJEJEJS6_EEENS1_IJXspT_EEEENS_13__tuple_typesIJDpT0_EEENS1_IJXspT1_EEEENSA_IJDpT2_EEEDpOT3_, symObjAddr: 0x7A58, symBinAddr: 0x10000A938, symSize: 0x34 }
  - { offsetInCU: 0x3A153, offset: 0x3A153, size: 0x8, addend: 0x0, symName: __ZNSt3__112__tuple_leafILm0ERKZN11ToppingListC1EvEUlvE0_Lb0EEC2B8ue170006IS4_vEEOT_, symObjAddr: 0x7A8C, symBinAddr: 0x10000A96C, symSize: 0x20 }
  - { offsetInCU: 0x3A196, offset: 0x3A196, size: 0x8, addend: 0x0, symName: __ZNSt3__117__compressed_pairIZN11ToppingListC1EvEUlvE0_NS_9allocatorIS2_EEEC2B8ue170006IJRKS2_EJOS4_EEENS_21piecewise_construct_tENS_5tupleIJDpT_EEENSB_IJDpT0_EEE, symObjAddr: 0x7AAC, symBinAddr: 0x10000A98C, symSize: 0x54 }
  - { offsetInCU: 0x3A200, offset: 0x3A200, size: 0x8, addend: 0x0, symName: __ZNSt3__122__compressed_pair_elemIZN11ToppingListC1EvEUlvE0_Li0ELb1EEC2B8ue170006IJRKS2_EJLm0EEEENS_21piecewise_construct_tENS_5tupleIJDpT_EEENS_15__tuple_indicesIJXspT0_EEEE, symObjAddr: 0x7B00, symBinAddr: 0x10000A9E0, symSize: 0x38 }
  - { offsetInCU: 0x3A263, offset: 0x3A263, size: 0x8, addend: 0x0, symName: __ZNSt3__112__tuple_leafILm0ERKZN11ToppingListC1EvEUlvE0_Lb0EE3getB8ue170006Ev, symObjAddr: 0x7B5C, symBinAddr: 0x10000AA3C, symSize: 0x18 }
  - { offsetInCU: 0x3A289, offset: 0x3A289, size: 0x8, addend: 0x0, symName: __ZNSt3__117__compressed_pairIPNS_10__function6__funcIZN11ToppingListC1EvEUlvE0_NS_9allocatorIS4_EEFNS_10unique_ptrI12FruitToppingNS_14default_deleteIS8_EEEEvEEENS_22__allocator_destructorINS5_ISD_EEEEE5firstB8ue170006Ev, symObjAddr: 0x7B74, symBinAddr: 0x10000AA54, symSize: 0x24 }
  - { offsetInCU: 0x3A2AF, offset: 0x3A2AF, size: 0x8, addend: 0x0, symName: __ZNSt3__122__compressed_pair_elemIPNS_10__function6__funcIZN11ToppingListC1EvEUlvE0_NS_9allocatorIS4_EEFNS_10unique_ptrI12FruitToppingNS_14default_deleteIS8_EEEEvEEELi0ELb0EE5__getB8ue170006Ev, symObjAddr: 0x7B98, symBinAddr: 0x10000AA78, symSize: 0x14 }
  - { offsetInCU: 0x3A2D5, offset: 0x3A2D5, size: 0x8, addend: 0x0, symName: __ZNSt3__110unique_ptrINS_10__function6__funcIZN11ToppingListC1EvEUlvE0_NS_9allocatorIS4_EEFNS0_I12FruitToppingNS_14default_deleteIS7_EEEEvEEENS_22__allocator_destructorINS5_ISC_EEEEED2B8ue170006Ev, symObjAddr: 0x7BAC, symBinAddr: 0x10000AA8C, symSize: 0x30 }
  - { offsetInCU: 0x3A2FF, offset: 0x3A2FF, size: 0x8, addend: 0x0, symName: __ZNSt3__110unique_ptrINS_10__function6__funcIZN11ToppingListC1EvEUlvE0_NS_9allocatorIS4_EEFNS0_I12FruitToppingNS_14default_deleteIS7_EEEEvEEENS_22__allocator_destructorINS5_ISC_EEEEE5resetB8ue170006EPSC_, symObjAddr: 0x7BDC, symBinAddr: 0x10000AABC, symSize: 0x78 }
  - { offsetInCU: 0x3A343, offset: 0x3A343, size: 0x8, addend: 0x0, symName: __ZNSt3__117__compressed_pairIPNS_10__function6__funcIZN11ToppingListC1EvEUlvE0_NS_9allocatorIS4_EEFNS_10unique_ptrI12FruitToppingNS_14default_deleteIS8_EEEEvEEENS_22__allocator_destructorINS5_ISD_EEEEE6secondB8ue170006Ev, symObjAddr: 0x7C54, symBinAddr: 0x10000AB34, symSize: 0x28 }
  - { offsetInCU: 0x3A369, offset: 0x3A369, size: 0x8, addend: 0x0, symName: __ZNSt3__122__allocator_destructorINS_9allocatorINS_10__function6__funcIZN11ToppingListC1EvEUlvE0_NS1_IS5_EEFNS_10unique_ptrI12FruitToppingNS_14default_deleteIS8_EEEEvEEEEEEclB8ue170006EPSD_, symObjAddr: 0x7C7C, symBinAddr: 0x10000AB5C, symSize: 0x34 }
  - { offsetInCU: 0x3A39D, offset: 0x3A39D, size: 0x8, addend: 0x0, symName: __ZNSt3__122__compressed_pair_elemINS_22__allocator_destructorINS_9allocatorINS_10__function6__funcIZN11ToppingListC1EvEUlvE0_NS2_IS6_EEFNS_10unique_ptrI12FruitToppingNS_14default_deleteIS9_EEEEvEEEEEEELi1ELb0EE5__getB8ue170006Ev, symObjAddr: 0x7CB0, symBinAddr: 0x10000AB90, symSize: 0x14 }
  - { offsetInCU: 0x3A3C3, offset: 0x3A3C3, size: 0x8, addend: 0x0, symName: __ZNSt3__116allocator_traitsINS_9allocatorINS_10__function6__funcIZN11ToppingListC1EvEUlvE0_NS1_IS5_EEFNS_10unique_ptrI12FruitToppingNS_14default_deleteIS8_EEEEvEEEEEE10deallocateB8ue170006ERSE_PSD_m, symObjAddr: 0x7CC4, symBinAddr: 0x10000ABA4, symSize: 0x34 }
  - { offsetInCU: 0x3A405, offset: 0x3A405, size: 0x8, addend: 0x0, symName: __ZNSt3__19allocatorINS_10__function6__funcIZN11ToppingListC1EvEUlvE0_NS0_IS4_EEFNS_10unique_ptrI12FruitToppingNS_14default_deleteIS7_EEEEvEEEE10deallocateB8ue170006EPSC_m, symObjAddr: 0x7CF8, symBinAddr: 0x10000ABD8, symSize: 0x40 }
  - { offsetInCU: 0x3A447, offset: 0x3A447, size: 0x8, addend: 0x0, symName: __ZNSt3__110__function6__funcIZN11ToppingListC1EvEUlvE0_NS_9allocatorIS3_EEFNS_10unique_ptrI12FruitToppingNS_14default_deleteIS7_EEEEvEEC1B8ue170006ERKS3_RKS5_, symObjAddr: 0x7D38, symBinAddr: 0x10000AC18, symSize: 0x3C }
  - { offsetInCU: 0x3A48F, offset: 0x3A48F, size: 0x8, addend: 0x0, symName: __ZNSt3__110__function6__funcIZN11ToppingListC1EvEUlvE0_NS_9allocatorIS3_EEFNS_10unique_ptrI12FruitToppingNS_14default_deleteIS7_EEEEvEEC2B8ue170006ERKS3_RKS5_, symObjAddr: 0x7D74, symBinAddr: 0x10000AC54, symSize: 0x88 }
  - { offsetInCU: 0x3A4D7, offset: 0x3A4D7, size: 0x8, addend: 0x0, symName: __ZNSt3__110__function12__alloc_funcIZN11ToppingListC1EvEUlvE0_NS_9allocatorIS3_EEFNS_10unique_ptrI12FruitToppingNS_14default_deleteIS7_EEEEvEEC1B8ue170006ERKS3_RKS5_, symObjAddr: 0x7DFC, symBinAddr: 0x10000ACDC, symSize: 0x3C }
  - { offsetInCU: 0x3A51D, offset: 0x3A51D, size: 0x8, addend: 0x0, symName: __ZNSt3__110__function12__alloc_funcIZN11ToppingListC1EvEUlvE0_NS_9allocatorIS3_EEFNS_10unique_ptrI12FruitToppingNS_14default_deleteIS7_EEEEvEEC2B8ue170006ERKS3_RKS5_, symObjAddr: 0x7E38, symBinAddr: 0x10000AD18, symSize: 0x5C }
  - { offsetInCU: 0x3A563, offset: 0x3A563, size: 0x8, addend: 0x0, symName: __ZNSt3__117__compressed_pairIZN11ToppingListC1EvEUlvE0_NS_9allocatorIS2_EEEC1B8ue170006IJRKS2_EJRKS4_EEENS_21piecewise_construct_tENS_5tupleIJDpT_EEENSC_IJDpT0_EEE, symObjAddr: 0x7EC0, symBinAddr: 0x10000ADA0, symSize: 0x3C }
  - { offsetInCU: 0x3A5CD, offset: 0x3A5CD, size: 0x8, addend: 0x0, symName: __ZNSt3__15tupleIJRKNS_9allocatorIZN11ToppingListC1EvEUlvE0_EEEEC1B8ue170006INS_4_AndELi0EEES6_, symObjAddr: 0x7EFC, symBinAddr: 0x10000ADDC, symSize: 0x34 }
  - { offsetInCU: 0x3A615, offset: 0x3A615, size: 0x8, addend: 0x0, symName: __ZNSt3__15tupleIJRKNS_9allocatorIZN11ToppingListC1EvEUlvE0_EEEEC2B8ue170006INS_4_AndELi0EEES6_, symObjAddr: 0x7F30, symBinAddr: 0x10000AE10, symSize: 0x34 }
  - { offsetInCU: 0x3A65D, offset: 0x3A65D, size: 0x8, addend: 0x0, symName: __ZNSt3__112__tuple_implINS_15__tuple_indicesIJLm0EEEEJRKNS_9allocatorIZN11ToppingListC1EvEUlvE0_EEEEC1B8ue170006IJLm0EEJS8_EJEJEJS8_EEENS1_IJXspT_EEEENS_13__tuple_typesIJDpT0_EEENS1_IJXspT1_EEEENSC_IJDpT2_EEEDpOT3_, symObjAddr: 0x7F64, symBinAddr: 0x10000AE44, symSize: 0x34 }
  - { offsetInCU: 0x3A6F2, offset: 0x3A6F2, size: 0x8, addend: 0x0, symName: __ZNSt3__112__tuple_implINS_15__tuple_indicesIJLm0EEEEJRKNS_9allocatorIZN11ToppingListC1EvEUlvE0_EEEEC2B8ue170006IJLm0EEJS8_EJEJEJS8_EEENS1_IJXspT_EEEENS_13__tuple_typesIJDpT0_EEENS1_IJXspT1_EEEENSC_IJDpT2_EEEDpOT3_, symObjAddr: 0x7F98, symBinAddr: 0x10000AE78, symSize: 0x34 }
  - { offsetInCU: 0x3A787, offset: 0x3A787, size: 0x8, addend: 0x0, symName: __ZNSt3__112__tuple_leafILm0ERKNS_9allocatorIZN11ToppingListC1EvEUlvE0_EELb0EEC2B8ue170006IS6_vEEOT_, symObjAddr: 0x7FCC, symBinAddr: 0x10000AEAC, symSize: 0x20 }
  - { offsetInCU: 0x3A7CA, offset: 0x3A7CA, size: 0x8, addend: 0x0, symName: __ZNSt3__117__compressed_pairIZN11ToppingListC1EvEUlvE0_NS_9allocatorIS2_EEEC2B8ue170006IJRKS2_EJRKS4_EEENS_21piecewise_construct_tENS_5tupleIJDpT_EEENSC_IJDpT0_EEE, symObjAddr: 0x7FEC, symBinAddr: 0x10000AECC, symSize: 0x54 }
  - { offsetInCU: 0x3A834, offset: 0x3A834, size: 0x8, addend: 0x0, symName: __ZNSt3__122__compressed_pair_elemINS_9allocatorIZN11ToppingListC1EvEUlvE0_EELi1ELb1EEC2B8ue170006IJRKS4_EJLm0EEEENS_21piecewise_construct_tENS_5tupleIJDpT_EEENS_15__tuple_indicesIJXspT0_EEEE, symObjAddr: 0x8040, symBinAddr: 0x10000AF20, symSize: 0x38 }
  - { offsetInCU: 0x3A897, offset: 0x3A897, size: 0x8, addend: 0x0, symName: __ZNSt3__112__tuple_leafILm0ERKNS_9allocatorIZN11ToppingListC1EvEUlvE0_EELb0EE3getB8ue170006Ev, symObjAddr: 0x809C, symBinAddr: 0x10000AF7C, symSize: 0x18 }
  - { offsetInCU: 0x3A8BD, offset: 0x3A8BD, size: 0x8, addend: 0x0, symName: __ZNSt3__110__function12__alloc_funcIZN11ToppingListC1EvEUlvE0_NS_9allocatorIS3_EEFNS_10unique_ptrI12FruitToppingNS_14default_deleteIS7_EEEEvEE7destroyB8ue170006Ev, symObjAddr: 0x80B4, symBinAddr: 0x10000AF94, symSize: 0x10 }
  - { offsetInCU: 0x3A8E3, offset: 0x3A8E3, size: 0x8, addend: 0x0, symName: __ZNSt3__110__function12__alloc_funcIZN11ToppingListC1EvEUlvE0_NS_9allocatorIS3_EEFNS_10unique_ptrI12FruitToppingNS_14default_deleteIS7_EEEEvEEclB8ue170006Ev, symObjAddr: 0x80C4, symBinAddr: 0x10000AFA4, symSize: 0x34 }
  - { offsetInCU: 0x3A909, offset: 0x3A909, size: 0x8, addend: 0x0, symName: __ZNSt3__128__invoke_void_return_wrapperINS_10unique_ptrI12FruitToppingNS_14default_deleteIS2_EEEELb0EE6__callB8ue170006IJRZN11ToppingListC1EvEUlvE0_EEES5_DpOT_, symObjAddr: 0x80F8, symBinAddr: 0x10000AFD8, symSize: 0x2C }
  - { offsetInCU: 0x3A938, offset: 0x3A938, size: 0x8, addend: 0x0, symName: __ZNSt3__117__compressed_pairIZN11ToppingListC1EvEUlvE0_NS_9allocatorIS2_EEE5firstB8ue170006Ev, symObjAddr: 0x8124, symBinAddr: 0x10000B004, symSize: 0x24 }
  - { offsetInCU: 0x3A964, offset: 0x3A964, size: 0x8, addend: 0x0, symName: __ZZN11ToppingListC1EvENKUlvE0_clEv, symObjAddr: 0x8174, symBinAddr: 0x10000B054, symSize: 0x3C }
  - { offsetInCU: 0x3A98E, offset: 0x3A98E, size: 0x8, addend: 0x0, symName: __ZNSt3__122__compressed_pair_elemIZN11ToppingListC1EvEUlvE0_Li0ELb1EE5__getB8ue170006Ev, symObjAddr: 0x81B0, symBinAddr: 0x10000B090, symSize: 0x14 }
  - { offsetInCU: 0x3A9B4, offset: 0x3A9B4, size: 0x8, addend: 0x0, symName: __ZNSt3__16vectorINS_8functionIFNS_10unique_ptrI12SweetToppingNS_14default_deleteIS3_EEEEvEEENS_9allocatorIS8_EEE9__end_capB8ue170006Ev, symObjAddr: 0x81C4, symBinAddr: 0x10000B0A4, symSize: 0x28 }
  - { offsetInCU: 0x3A9DA, offset: 0x3A9DA, size: 0x8, addend: 0x0, symName: __ZNSt3__16vectorINS_8functionIFNS_10unique_ptrI12SweetToppingNS_14default_deleteIS3_EEEEvEEENS_9allocatorIS8_EEE22__construct_one_at_endB8ue170006IJS8_EEEvDpOT_, symObjAddr: 0x81EC, symBinAddr: 0x10000B0CC, symSize: 0x90 }
  - { offsetInCU: 0x3AA29, offset: 0x3AA29, size: 0x8, addend: 0x0, symName: __ZNSt3__16vectorINS_8functionIFNS_10unique_ptrI12SweetToppingNS_14default_deleteIS3_EEEEvEEENS_9allocatorIS8_EEE21__push_back_slow_pathIS8_EEvOT_, symObjAddr: 0x827C, symBinAddr: 0x10000B15C, symSize: 0xD8 }
  - { offsetInCU: 0x3AA87, offset: 0x3AA87, size: 0x8, addend: 0x0, symName: __ZNSt3__117__compressed_pairIPNS_8functionIFNS_10unique_ptrI12SweetToppingNS_14default_deleteIS3_EEEEvEEENS_9allocatorIS8_EEE5firstB8ue170006Ev, symObjAddr: 0x8354, symBinAddr: 0x10000B234, symSize: 0x24 }
  - { offsetInCU: 0x3AAAD, offset: 0x3AAAD, size: 0x8, addend: 0x0, symName: __ZNSt3__122__compressed_pair_elemIPNS_8functionIFNS_10unique_ptrI12SweetToppingNS_14default_deleteIS3_EEEEvEEELi0ELb0EE5__getB8ue170006Ev, symObjAddr: 0x8378, symBinAddr: 0x10000B258, symSize: 0x14 }
  - { offsetInCU: 0x3AAF1, offset: 0x3AAF1, size: 0x8, addend: 0x0, symName: __ZNSt3__16vectorINS_8functionIFNS_10unique_ptrI12SweetToppingNS_14default_deleteIS3_EEEEvEEENS_9allocatorIS8_EEE21_ConstructTransactionC1B8ue170006ERSB_m, symObjAddr: 0x838C, symBinAddr: 0x10000B26C, symSize: 0x3C }
  - { offsetInCU: 0x3AB39, offset: 0x3AB39, size: 0x8, addend: 0x0, symName: __ZNSt3__116allocator_traitsINS_9allocatorINS_8functionIFNS_10unique_ptrI12SweetToppingNS_14default_deleteIS4_EEEEvEEEEEE9constructB8ue170006IS9_JS9_EvEEvRSA_PT_DpOT0_, symObjAddr: 0x83C8, symBinAddr: 0x10000B2A8, symSize: 0x34 }
  - { offsetInCU: 0x3AB90, offset: 0x3AB90, size: 0x8, addend: 0x0, symName: __ZNSt3__16vectorINS_8functionIFNS_10unique_ptrI12SweetToppingNS_14default_deleteIS3_EEEEvEEENS_9allocatorIS8_EEE7__allocB8ue170006Ev, symObjAddr: 0x83FC, symBinAddr: 0x10000B2DC, symSize: 0x28 }
  - { offsetInCU: 0x3ABB6, offset: 0x3ABB6, size: 0x8, addend: 0x0, symName: __ZNSt3__16vectorINS_8functionIFNS_10unique_ptrI12SweetToppingNS_14default_deleteIS3_EEEEvEEENS_9allocatorIS8_EEE21_ConstructTransactionD1B8ue170006Ev, symObjAddr: 0x8438, symBinAddr: 0x10000B318, symSize: 0x2C }
  - { offsetInCU: 0x3ABE0, offset: 0x3ABE0, size: 0x8, addend: 0x0, symName: __ZNSt3__16vectorINS_8functionIFNS_10unique_ptrI12SweetToppingNS_14default_deleteIS3_EEEEvEEENS_9allocatorIS8_EEE21_ConstructTransactionC2B8ue170006ERSB_m, symObjAddr: 0x8464, symBinAddr: 0x10000B344, symSize: 0x44 }
  - { offsetInCU: 0x3AC28, offset: 0x3AC28, size: 0x8, addend: 0x0, symName: __ZNSt3__19allocatorINS_8functionIFNS_10unique_ptrI12SweetToppingNS_14default_deleteIS3_EEEEvEEEE9constructB8ue170006IS8_JS8_EEEvPT_DpOT0_, symObjAddr: 0x84A8, symBinAddr: 0x10000B388, symSize: 0x30 }
  - { offsetInCU: 0x3AC7E, offset: 0x3AC7E, size: 0x8, addend: 0x0, symName: __ZNSt3__18functionIFNS_10unique_ptrI12SweetToppingNS_14default_deleteIS2_EEEEvEEC1EOS7_, symObjAddr: 0x84D8, symBinAddr: 0x10000B3B8, symSize: 0x34 }
  - { offsetInCU: 0x3ACB9, offset: 0x3ACB9, size: 0x8, addend: 0x0, symName: __ZNSt3__18functionIFNS_10unique_ptrI12SweetToppingNS_14default_deleteIS2_EEEEvEEC2EOS7_, symObjAddr: 0x850C, symBinAddr: 0x10000B3EC, symSize: 0x34 }
  - { offsetInCU: 0x3ACF4, offset: 0x3ACF4, size: 0x8, addend: 0x0, symName: __ZNSt3__110__function12__value_funcIFNS_10unique_ptrI12SweetToppingNS_14default_deleteIS3_EEEEvEEC1B8ue170006EOS8_, symObjAddr: 0x8540, symBinAddr: 0x10000B420, symSize: 0x34 }
  - { offsetInCU: 0x3AD2D, offset: 0x3AD2D, size: 0x8, addend: 0x0, symName: __ZNSt3__110__function12__value_funcIFNS_10unique_ptrI12SweetToppingNS_14default_deleteIS3_EEEEvEEC2B8ue170006EOS8_, symObjAddr: 0x8574, symBinAddr: 0x10000B454, symSize: 0xD0 }
  - { offsetInCU: 0x3AD66, offset: 0x3AD66, size: 0x8, addend: 0x0, symName: __ZNSt3__110__function12__value_funcIFNS_10unique_ptrI12SweetToppingNS_14default_deleteIS3_EEEEvEE9__as_baseB8ue170006EPv, symObjAddr: 0x8644, symBinAddr: 0x10000B524, symSize: 0x14 }
  - { offsetInCU: 0x3AD8A, offset: 0x3AD8A, size: 0x8, addend: 0x0, symName: __ZNSt3__117__compressed_pairIPNS_8functionIFNS_10unique_ptrI12SweetToppingNS_14default_deleteIS3_EEEEvEEENS_9allocatorIS8_EEE6secondB8ue170006Ev, symObjAddr: 0x8658, symBinAddr: 0x10000B538, symSize: 0x24 }
  - { offsetInCU: 0x3ADB0, offset: 0x3ADB0, size: 0x8, addend: 0x0, symName: __ZNSt3__122__compressed_pair_elemINS_9allocatorINS_8functionIFNS_10unique_ptrI12SweetToppingNS_14default_deleteIS4_EEEEvEEEEELi1ELb1EE5__getB8ue170006Ev, symObjAddr: 0x867C, symBinAddr: 0x10000B55C, symSize: 0x14 }
  - { offsetInCU: 0x3ADD6, offset: 0x3ADD6, size: 0x8, addend: 0x0, symName: __ZNSt3__16vectorINS_8functionIFNS_10unique_ptrI12SweetToppingNS_14default_deleteIS3_EEEEvEEENS_9allocatorIS8_EEE21_ConstructTransactionD2B8ue170006Ev, symObjAddr: 0x8690, symBinAddr: 0x10000B570, symSize: 0x20 }
  - { offsetInCU: 0x3AE00, offset: 0x3AE00, size: 0x8, addend: 0x0, symName: __ZNKSt3__16vectorINS_8functionIFNS_10unique_ptrI12SweetToppingNS_14default_deleteIS3_EEEEvEEENS_9allocatorIS8_EEE11__recommendB8ue170006Em, symObjAddr: 0x86B0, symBinAddr: 0x10000B590, symSize: 0xB4 }
  - { offsetInCU: 0x3AE55, offset: 0x3AE55, size: 0x8, addend: 0x0, symName: __ZNKSt3__16vectorINS_8functionIFNS_10unique_ptrI12SweetToppingNS_14default_deleteIS3_EEEEvEEENS_9allocatorIS8_EEE4sizeB8ue170006Ev, symObjAddr: 0x8764, symBinAddr: 0x10000B644, symSize: 0x28 }
  - { offsetInCU: 0x3AE7B, offset: 0x3AE7B, size: 0x8, addend: 0x0, symName: __ZNSt3__114__split_bufferINS_8functionIFNS_10unique_ptrI12SweetToppingNS_14default_deleteIS3_EEEEvEEERNS_9allocatorIS8_EEEC1EmmSB_, symObjAddr: 0x878C, symBinAddr: 0x10000B66C, symSize: 0x44 }
  - { offsetInCU: 0x3AED1, offset: 0x3AED1, size: 0x8, addend: 0x0, symName: __ZNSt3__114__split_bufferINS_8functionIFNS_10unique_ptrI12SweetToppingNS_14default_deleteIS3_EEEEvEEERNS_9allocatorIS8_EEED1Ev, symObjAddr: 0x88E0, symBinAddr: 0x10000B7C0, symSize: 0x2C }
  - { offsetInCU: 0x3AEFD, offset: 0x3AEFD, size: 0x8, addend: 0x0, symName: __ZNKSt3__16vectorINS_8functionIFNS_10unique_ptrI12SweetToppingNS_14default_deleteIS3_EEEEvEEENS_9allocatorIS8_EEE8max_sizeEv, symObjAddr: 0x890C, symBinAddr: 0x10000B7EC, symSize: 0x60 }
  - { offsetInCU: 0x3AF25, offset: 0x3AF25, size: 0x8, addend: 0x0, symName: __ZNKSt3__16vectorINS_8functionIFNS_10unique_ptrI12SweetToppingNS_14default_deleteIS3_EEEEvEEENS_9allocatorIS8_EEE20__throw_length_errorB8ue170006Ev, symObjAddr: 0x896C, symBinAddr: 0x10000B84C, symSize: 0x1C }
  - { offsetInCU: 0x3AF4B, offset: 0x3AF4B, size: 0x8, addend: 0x0, symName: __ZNKSt3__16vectorINS_8functionIFNS_10unique_ptrI12SweetToppingNS_14default_deleteIS3_EEEEvEEENS_9allocatorIS8_EEE8capacityB8ue170006Ev, symObjAddr: 0x8988, symBinAddr: 0x10000B868, symSize: 0x40 }
  - { offsetInCU: 0x3AF7D, offset: 0x3AF7D, size: 0x8, addend: 0x0, symName: __ZNSt3__116allocator_traitsINS_9allocatorINS_8functionIFNS_10unique_ptrI12SweetToppingNS_14default_deleteIS4_EEEEvEEEEEE8max_sizeB8ue170006ISA_vEEmRKSA_, symObjAddr: 0x89C8, symBinAddr: 0x10000B8A8, symSize: 0x24 }
  - { offsetInCU: 0x3AFAB, offset: 0x3AFAB, size: 0x8, addend: 0x0, symName: __ZNKSt3__16vectorINS_8functionIFNS_10unique_ptrI12SweetToppingNS_14default_deleteIS3_EEEEvEEENS_9allocatorIS8_EEE7__allocB8ue170006Ev, symObjAddr: 0x89EC, symBinAddr: 0x10000B8CC, symSize: 0x28 }
  - { offsetInCU: 0x3AFD1, offset: 0x3AFD1, size: 0x8, addend: 0x0, symName: __ZNKSt3__19allocatorINS_8functionIFNS_10unique_ptrI12SweetToppingNS_14default_deleteIS3_EEEEvEEEE8max_sizeB8ue170006Ev, symObjAddr: 0x8A14, symBinAddr: 0x10000B8F4, symSize: 0x14 }
  - { offsetInCU: 0x3AFF7, offset: 0x3AFF7, size: 0x8, addend: 0x0, symName: __ZNKSt3__117__compressed_pairIPNS_8functionIFNS_10unique_ptrI12SweetToppingNS_14default_deleteIS3_EEEEvEEENS_9allocatorIS8_EEE6secondB8ue170006Ev, symObjAddr: 0x8A28, symBinAddr: 0x10000B908, symSize: 0x24 }
  - { offsetInCU: 0x3B01D, offset: 0x3B01D, size: 0x8, addend: 0x0, symName: __ZNKSt3__122__compressed_pair_elemINS_9allocatorINS_8functionIFNS_10unique_ptrI12SweetToppingNS_14default_deleteIS4_EEEEvEEEEELi1ELb1EE5__getB8ue170006Ev, symObjAddr: 0x8A4C, symBinAddr: 0x10000B92C, symSize: 0x14 }
  - { offsetInCU: 0x3B043, offset: 0x3B043, size: 0x8, addend: 0x0, symName: __ZNKSt3__16vectorINS_8functionIFNS_10unique_ptrI12SweetToppingNS_14default_deleteIS3_EEEEvEEENS_9allocatorIS8_EEE9__end_capB8ue170006Ev, symObjAddr: 0x8A60, symBinAddr: 0x10000B940, symSize: 0x28 }
  - { offsetInCU: 0x3B069, offset: 0x3B069, size: 0x8, addend: 0x0, symName: __ZNKSt3__117__compressed_pairIPNS_8functionIFNS_10unique_ptrI12SweetToppingNS_14default_deleteIS3_EEEEvEEENS_9allocatorIS8_EEE5firstB8ue170006Ev, symObjAddr: 0x8A88, symBinAddr: 0x10000B968, symSize: 0x24 }
  - { offsetInCU: 0x3B08F, offset: 0x3B08F, size: 0x8, addend: 0x0, symName: __ZNKSt3__122__compressed_pair_elemIPNS_8functionIFNS_10unique_ptrI12SweetToppingNS_14default_deleteIS3_EEEEvEEELi0ELb0EE5__getB8ue170006Ev, symObjAddr: 0x8AAC, symBinAddr: 0x10000B98C, symSize: 0x14 }
  - { offsetInCU: 0x3B0B5, offset: 0x3B0B5, size: 0x8, addend: 0x0, symName: __ZNSt3__114__split_bufferINS_8functionIFNS_10unique_ptrI12SweetToppingNS_14default_deleteIS3_EEEEvEEERNS_9allocatorIS8_EEEC2EmmSB_, symObjAddr: 0x8AC0, symBinAddr: 0x10000B9A0, symSize: 0xD4 }
  - { offsetInCU: 0x3B128, offset: 0x3B128, size: 0x8, addend: 0x0, symName: __ZNSt3__117__compressed_pairIPNS_8functionIFNS_10unique_ptrI12SweetToppingNS_14default_deleteIS3_EEEEvEEERNS_9allocatorIS8_EEEC1B8ue170006IDnSC_EEOT_OT0_, symObjAddr: 0x8B94, symBinAddr: 0x10000BA74, symSize: 0x3C }
  - { offsetInCU: 0x3B180, offset: 0x3B180, size: 0x8, addend: 0x0, symName: __ZNSt3__114__split_bufferINS_8functionIFNS_10unique_ptrI12SweetToppingNS_14default_deleteIS3_EEEEvEEERNS_9allocatorIS8_EEE7__allocB8ue170006Ev, symObjAddr: 0x8C10, symBinAddr: 0x10000BAF0, symSize: 0x28 }
  - { offsetInCU: 0x3B1A6, offset: 0x3B1A6, size: 0x8, addend: 0x0, symName: __ZNSt3__114__split_bufferINS_8functionIFNS_10unique_ptrI12SweetToppingNS_14default_deleteIS3_EEEEvEEERNS_9allocatorIS8_EEE9__end_capB8ue170006Ev, symObjAddr: 0x8C38, symBinAddr: 0x10000BB18, symSize: 0x28 }
  - { offsetInCU: 0x3B1CC, offset: 0x3B1CC, size: 0x8, addend: 0x0, symName: __ZNSt3__117__compressed_pairIPNS_8functionIFNS_10unique_ptrI12SweetToppingNS_14default_deleteIS3_EEEEvEEERNS_9allocatorIS8_EEEC2B8ue170006IDnSC_EEOT_OT0_, symObjAddr: 0x8C60, symBinAddr: 0x10000BB40, symSize: 0x48 }
  - { offsetInCU: 0x3B224, offset: 0x3B224, size: 0x8, addend: 0x0, symName: __ZNSt3__122__compressed_pair_elemIRNS_9allocatorINS_8functionIFNS_10unique_ptrI12SweetToppingNS_14default_deleteIS4_EEEEvEEEEELi1ELb0EEC2B8ue170006ISB_vEEOT_, symObjAddr: 0x8CA8, symBinAddr: 0x10000BB88, symSize: 0x20 }
  - { offsetInCU: 0x3B266, offset: 0x3B266, size: 0x8, addend: 0x0, symName: __ZNSt3__19allocatorINS_8functionIFNS_10unique_ptrI12SweetToppingNS_14default_deleteIS3_EEEEvEEEE8allocateB8ue170006Em, symObjAddr: 0x8CC8, symBinAddr: 0x10000BBA8, symSize: 0x58 }
  - { offsetInCU: 0x3B29A, offset: 0x3B29A, size: 0x8, addend: 0x0, symName: __ZNSt3__117__compressed_pairIPNS_8functionIFNS_10unique_ptrI12SweetToppingNS_14default_deleteIS3_EEEEvEEERNS_9allocatorIS8_EEE6secondB8ue170006Ev, symObjAddr: 0x8D20, symBinAddr: 0x10000BC00, symSize: 0x28 }
  - { offsetInCU: 0x3B2C0, offset: 0x3B2C0, size: 0x8, addend: 0x0, symName: __ZNSt3__122__compressed_pair_elemIRNS_9allocatorINS_8functionIFNS_10unique_ptrI12SweetToppingNS_14default_deleteIS4_EEEEvEEEEELi1ELb0EE5__getB8ue170006Ev, symObjAddr: 0x8D48, symBinAddr: 0x10000BC28, symSize: 0x18 }
  - { offsetInCU: 0x3B2E6, offset: 0x3B2E6, size: 0x8, addend: 0x0, symName: __ZNSt3__117__compressed_pairIPNS_8functionIFNS_10unique_ptrI12SweetToppingNS_14default_deleteIS3_EEEEvEEERNS_9allocatorIS8_EEE5firstB8ue170006Ev, symObjAddr: 0x8D60, symBinAddr: 0x10000BC40, symSize: 0x24 }
  - { offsetInCU: 0x3B30C, offset: 0x3B30C, size: 0x8, addend: 0x0, symName: __ZNKSt3__16vectorINS_8functionIFNS_10unique_ptrI12SweetToppingNS_14default_deleteIS3_EEEEvEEENS_9allocatorIS8_EEE17__annotate_deleteB8ue170006Ev, symObjAddr: 0x8D84, symBinAddr: 0x10000BC64, symSize: 0xB8 }
  - { offsetInCU: 0x3B332, offset: 0x3B332, size: 0x8, addend: 0x0, symName: __ZNSt3__116reverse_iteratorIPNS_8functionIFNS_10unique_ptrI12SweetToppingNS_14default_deleteIS3_EEEEvEEEEC1B8ue170006ES9_, symObjAddr: 0x8F68, symBinAddr: 0x10000BE48, symSize: 0x34 }
  - { offsetInCU: 0x3B36A, offset: 0x3B36A, size: 0x8, addend: 0x0, symName: __ZNKSt3__116reverse_iteratorIPNS_8functionIFNS_10unique_ptrI12SweetToppingNS_14default_deleteIS3_EEEEvEEEE4baseB8ue170006Ev, symObjAddr: 0x8F9C, symBinAddr: 0x10000BE7C, symSize: 0x18 }
  - { offsetInCU: 0x3B390, offset: 0x3B390, size: 0x8, addend: 0x0, symName: __ZNKSt3__16vectorINS_8functionIFNS_10unique_ptrI12SweetToppingNS_14default_deleteIS3_EEEEvEEENS_9allocatorIS8_EEE14__annotate_newB8ue170006Em, symObjAddr: 0x8FF0, symBinAddr: 0x10000BED0, symSize: 0xAC }
  - { offsetInCU: 0x3B3C5, offset: 0x3B3C5, size: 0x8, addend: 0x0, symName: __ZNKSt3__16vectorINS_8functionIFNS_10unique_ptrI12SweetToppingNS_14default_deleteIS3_EEEEvEEENS_9allocatorIS8_EEE31__annotate_contiguous_containerB8ue170006EPKvSD_SD_SD_, symObjAddr: 0x909C, symBinAddr: 0x10000BF7C, symSize: 0x20 }
  - { offsetInCU: 0x3B41B, offset: 0x3B41B, size: 0x8, addend: 0x0, symName: __ZNKSt3__16vectorINS_8functionIFNS_10unique_ptrI12SweetToppingNS_14default_deleteIS3_EEEEvEEENS_9allocatorIS8_EEE4dataB8ue170006Ev, symObjAddr: 0x90BC, symBinAddr: 0x10000BF9C, symSize: 0x28 }
  - { offsetInCU: 0x3B441, offset: 0x3B441, size: 0x8, addend: 0x0, symName: __ZNSt3__129_AllocatorDestroyRangeReverseINS_9allocatorINS_8functionIFNS_10unique_ptrI12SweetToppingNS_14default_deleteIS4_EEEEvEEEEENS_16reverse_iteratorIPS9_EEEC1B8ue170006ERSA_RSD_SG_, symObjAddr: 0x9130, symBinAddr: 0x10000C010, symSize: 0x44 }
  - { offsetInCU: 0x3B498, offset: 0x3B498, size: 0x8, addend: 0x0, symName: __ZNKSt3__116reverse_iteratorIPNS_8functionIFNS_10unique_ptrI12SweetToppingNS_14default_deleteIS3_EEEEvEEEEdeB8ue170006Ev, symObjAddr: 0x91E0, symBinAddr: 0x10000C0C0, symSize: 0x28 }
  - { offsetInCU: 0x3B4CC, offset: 0x3B4CC, size: 0x8, addend: 0x0, symName: __ZNSt3__116reverse_iteratorIPNS_8functionIFNS_10unique_ptrI12SweetToppingNS_14default_deleteIS3_EEEEvEEEEppB8ue170006Ev, symObjAddr: 0x9208, symBinAddr: 0x10000C0E8, symSize: 0x20 }
  - { offsetInCU: 0x3B4F2, offset: 0x3B4F2, size: 0x8, addend: 0x0, symName: __ZNSt3__128__exception_guard_exceptionsINS_29_AllocatorDestroyRangeReverseINS_9allocatorINS_8functionIFNS_10unique_ptrI12SweetToppingNS_14default_deleteIS5_EEEEvEEEEENS_16reverse_iteratorIPSA_EEEEE10__completeB8ue170006Ev, symObjAddr: 0x9228, symBinAddr: 0x10000C108, symSize: 0x1C }
  - { offsetInCU: 0x3B518, offset: 0x3B518, size: 0x8, addend: 0x0, symName: __ZNSt3__128__exception_guard_exceptionsINS_29_AllocatorDestroyRangeReverseINS_9allocatorINS_8functionIFNS_10unique_ptrI12SweetToppingNS_14default_deleteIS5_EEEEvEEEEENS_16reverse_iteratorIPSA_EEEEED1B8ue170006Ev, symObjAddr: 0x9244, symBinAddr: 0x10000C124, symSize: 0x2C }
  - { offsetInCU: 0x3B542, offset: 0x3B542, size: 0x8, addend: 0x0, symName: __ZNSt3__128__exception_guard_exceptionsINS_29_AllocatorDestroyRangeReverseINS_9allocatorINS_8functionIFNS_10unique_ptrI12SweetToppingNS_14default_deleteIS5_EEEEvEEEEENS_16reverse_iteratorIPSA_EEEEEC1B8ue170006ESF_, symObjAddr: 0x9270, symBinAddr: 0x10000C150, symSize: 0x34 }
  - { offsetInCU: 0x3B57B, offset: 0x3B57B, size: 0x8, addend: 0x0, symName: __ZNSt3__128__exception_guard_exceptionsINS_29_AllocatorDestroyRangeReverseINS_9allocatorINS_8functionIFNS_10unique_ptrI12SweetToppingNS_14default_deleteIS5_EEEEvEEEEENS_16reverse_iteratorIPSA_EEEEEC2B8ue170006ESF_, symObjAddr: 0x92A4, symBinAddr: 0x10000C184, symSize: 0x30 }
  - { offsetInCU: 0x3B5B4, offset: 0x3B5B4, size: 0x8, addend: 0x0, symName: __ZNSt3__129_AllocatorDestroyRangeReverseINS_9allocatorINS_8functionIFNS_10unique_ptrI12SweetToppingNS_14default_deleteIS4_EEEEvEEEEENS_16reverse_iteratorIPS9_EEEC2B8ue170006ERSA_RSD_SG_, symObjAddr: 0x92D4, symBinAddr: 0x10000C1B4, symSize: 0x38 }
  - { offsetInCU: 0x3B611, offset: 0x3B611, size: 0x8, addend: 0x0, symName: __ZNSt3__119__to_address_helperINS_16reverse_iteratorIPNS_8functionIFNS_10unique_ptrI12SweetToppingNS_14default_deleteIS4_EEEEvEEEEEvE6__callB8ue170006ERKSB_, symObjAddr: 0x930C, symBinAddr: 0x10000C1EC, symSize: 0x38 }
  - { offsetInCU: 0x3B634, offset: 0x3B634, size: 0x8, addend: 0x0, symName: __ZNKSt3__116reverse_iteratorIPNS_8functionIFNS_10unique_ptrI12SweetToppingNS_14default_deleteIS3_EEEEvEEEEptB8ue170006Ev, symObjAddr: 0x9344, symBinAddr: 0x10000C224, symSize: 0x24 }
  - { offsetInCU: 0x3B65A, offset: 0x3B65A, size: 0x8, addend: 0x0, symName: __ZNSt3__128__exception_guard_exceptionsINS_29_AllocatorDestroyRangeReverseINS_9allocatorINS_8functionIFNS_10unique_ptrI12SweetToppingNS_14default_deleteIS5_EEEEvEEEEENS_16reverse_iteratorIPSA_EEEEED2B8ue170006Ev, symObjAddr: 0x9368, symBinAddr: 0x10000C248, symSize: 0x50 }
  - { offsetInCU: 0x3B684, offset: 0x3B684, size: 0x8, addend: 0x0, symName: __ZNKSt3__129_AllocatorDestroyRangeReverseINS_9allocatorINS_8functionIFNS_10unique_ptrI12SweetToppingNS_14default_deleteIS4_EEEEvEEEEENS_16reverse_iteratorIPS9_EEEclB8ue170006Ev, symObjAddr: 0x93B8, symBinAddr: 0x10000C298, symSize: 0xB4 }
  - { offsetInCU: 0x3B6AB, offset: 0x3B6AB, size: 0x8, addend: 0x0, symName: __ZNSt3__116reverse_iteratorINS0_IPNS_8functionIFNS_10unique_ptrI12SweetToppingNS_14default_deleteIS3_EEEEvEEEEEEC1B8ue170006ESA_, symObjAddr: 0x94DC, symBinAddr: 0x10000C3BC, symSize: 0x3C }
  - { offsetInCU: 0x3B6E3, offset: 0x3B6E3, size: 0x8, addend: 0x0, symName: __ZNSt3__116allocator_traitsINS_9allocatorINS_8functionIFNS_10unique_ptrI12SweetToppingNS_14default_deleteIS4_EEEEvEEEEEE7destroyB8ue170006IS9_vEEvRSA_PT_, symObjAddr: 0x9578, symBinAddr: 0x10000C458, symSize: 0x2C }
  - { offsetInCU: 0x3B720, offset: 0x3B720, size: 0x8, addend: 0x0, symName: __ZNSt3__116reverse_iteratorINS0_IPNS_8functionIFNS_10unique_ptrI12SweetToppingNS_14default_deleteIS3_EEEEvEEEEEEppB8ue170006Ev, symObjAddr: 0x95C8, symBinAddr: 0x10000C4A8, symSize: 0x30 }
  - { offsetInCU: 0x3B746, offset: 0x3B746, size: 0x8, addend: 0x0, symName: __ZNKSt3__116reverse_iteratorINS0_IPNS_8functionIFNS_10unique_ptrI12SweetToppingNS_14default_deleteIS3_EEEEvEEEEEE4baseB8ue170006Ev, symObjAddr: 0x95F8, symBinAddr: 0x10000C4D8, symSize: 0x24 }
  - { offsetInCU: 0x3B76C, offset: 0x3B76C, size: 0x8, addend: 0x0, symName: __ZNSt3__19allocatorINS_8functionIFNS_10unique_ptrI12SweetToppingNS_14default_deleteIS3_EEEEvEEEE7destroyB8ue170006EPS8_, symObjAddr: 0x961C, symBinAddr: 0x10000C4FC, symSize: 0x28 }
  - { offsetInCU: 0x3B7A6, offset: 0x3B7A6, size: 0x8, addend: 0x0, symName: __ZNSt3__119__to_address_helperINS_16reverse_iteratorINS1_IPNS_8functionIFNS_10unique_ptrI12SweetToppingNS_14default_deleteIS4_EEEEvEEEEEEEvE6__callB8ue170006ERKSC_, symObjAddr: 0x9644, symBinAddr: 0x10000C524, symSize: 0x38 }
  - { offsetInCU: 0x3B7C9, offset: 0x3B7C9, size: 0x8, addend: 0x0, symName: __ZNKSt3__116reverse_iteratorINS0_IPNS_8functionIFNS_10unique_ptrI12SweetToppingNS_14default_deleteIS3_EEEEvEEEEEEptB8ue170006Ev, symObjAddr: 0x967C, symBinAddr: 0x10000C55C, symSize: 0x24 }
  - { offsetInCU: 0x3B7EF, offset: 0x3B7EF, size: 0x8, addend: 0x0, symName: __ZNKSt3__116reverse_iteratorINS0_IPNS_8functionIFNS_10unique_ptrI12SweetToppingNS_14default_deleteIS3_EEEEvEEEEEEdeB8ue170006Ev, symObjAddr: 0x96A0, symBinAddr: 0x10000C580, symSize: 0x34 }
  - { offsetInCU: 0x3B823, offset: 0x3B823, size: 0x8, addend: 0x0, symName: __ZNSt3__116reverse_iteratorIPNS_8functionIFNS_10unique_ptrI12SweetToppingNS_14default_deleteIS3_EEEEvEEEEmmB8ue170006Ev, symObjAddr: 0x96D4, symBinAddr: 0x10000C5B4, symSize: 0x20 }
  - { offsetInCU: 0x3B849, offset: 0x3B849, size: 0x8, addend: 0x0, symName: __ZNSt3__116reverse_iteratorINS0_IPNS_8functionIFNS_10unique_ptrI12SweetToppingNS_14default_deleteIS3_EEEEvEEEEEEC2B8ue170006ESA_, symObjAddr: 0x96F4, symBinAddr: 0x10000C5D4, symSize: 0x2C }
  - { offsetInCU: 0x3B881, offset: 0x3B881, size: 0x8, addend: 0x0, symName: __ZNSt3__116reverse_iteratorIPNS_8functionIFNS_10unique_ptrI12SweetToppingNS_14default_deleteIS3_EEEEvEEEEC2B8ue170006ES9_, symObjAddr: 0x9720, symBinAddr: 0x10000C600, symSize: 0x28 }
  - { offsetInCU: 0x3B8B9, offset: 0x3B8B9, size: 0x8, addend: 0x0, symName: __ZNSt3__114__split_bufferINS_8functionIFNS_10unique_ptrI12SweetToppingNS_14default_deleteIS3_EEEEvEEERNS_9allocatorIS8_EEED2Ev, symObjAddr: 0x9748, symBinAddr: 0x10000C628, symSize: 0x8C }
  - { offsetInCU: 0x3B8E5, offset: 0x3B8E5, size: 0x8, addend: 0x0, symName: __ZNSt3__114__split_bufferINS_8functionIFNS_10unique_ptrI12SweetToppingNS_14default_deleteIS3_EEEEvEEERNS_9allocatorIS8_EEE5clearB8ue170006Ev, symObjAddr: 0x97D4, symBinAddr: 0x10000C6B4, symSize: 0x28 }
  - { offsetInCU: 0x3B90B, offset: 0x3B90B, size: 0x8, addend: 0x0, symName: __ZNSt3__116allocator_traitsINS_9allocatorINS_8functionIFNS_10unique_ptrI12SweetToppingNS_14default_deleteIS4_EEEEvEEEEEE10deallocateB8ue170006ERSA_PS9_m, symObjAddr: 0x97FC, symBinAddr: 0x10000C6DC, symSize: 0x34 }
  - { offsetInCU: 0x3B94D, offset: 0x3B94D, size: 0x8, addend: 0x0, symName: __ZNKSt3__114__split_bufferINS_8functionIFNS_10unique_ptrI12SweetToppingNS_14default_deleteIS3_EEEEvEEERNS_9allocatorIS8_EEE8capacityB8ue170006Ev, symObjAddr: 0x9830, symBinAddr: 0x10000C710, symSize: 0x40 }
  - { offsetInCU: 0x3B973, offset: 0x3B973, size: 0x8, addend: 0x0, symName: __ZNSt3__114__split_bufferINS_8functionIFNS_10unique_ptrI12SweetToppingNS_14default_deleteIS3_EEEEvEEERNS_9allocatorIS8_EEE17__destruct_at_endB8ue170006EPS8_, symObjAddr: 0x9870, symBinAddr: 0x10000C750, symSize: 0x2C }
  - { offsetInCU: 0x3B9A7, offset: 0x3B9A7, size: 0x8, addend: 0x0, symName: __ZNSt3__114__split_bufferINS_8functionIFNS_10unique_ptrI12SweetToppingNS_14default_deleteIS3_EEEEvEEERNS_9allocatorIS8_EEE17__destruct_at_endB8ue170006EPS8_NS_17integral_constantIbLb0EEE, symObjAddr: 0x989C, symBinAddr: 0x10000C77C, symSize: 0x80 }
  - { offsetInCU: 0x3B9E7, offset: 0x3B9E7, size: 0x8, addend: 0x0, symName: __ZNSt3__19allocatorINS_8functionIFNS_10unique_ptrI12SweetToppingNS_14default_deleteIS3_EEEEvEEEE10deallocateB8ue170006EPS8_m, symObjAddr: 0x991C, symBinAddr: 0x10000C7FC, symSize: 0x40 }
  - { offsetInCU: 0x3BA29, offset: 0x3BA29, size: 0x8, addend: 0x0, symName: __ZNKSt3__114__split_bufferINS_8functionIFNS_10unique_ptrI12SweetToppingNS_14default_deleteIS3_EEEEvEEERNS_9allocatorIS8_EEE9__end_capB8ue170006Ev, symObjAddr: 0x995C, symBinAddr: 0x10000C83C, symSize: 0x28 }
  - { offsetInCU: 0x3BA4F, offset: 0x3BA4F, size: 0x8, addend: 0x0, symName: __ZNKSt3__117__compressed_pairIPNS_8functionIFNS_10unique_ptrI12SweetToppingNS_14default_deleteIS3_EEEEvEEERNS_9allocatorIS8_EEE5firstB8ue170006Ev, symObjAddr: 0x9984, symBinAddr: 0x10000C864, symSize: 0x24 }
  - { offsetInCU: 0x3BA75, offset: 0x3BA75, size: 0x8, addend: 0x0, symName: __ZNSt3__18functionIFNS_10unique_ptrI12SweetToppingNS_14default_deleteIS2_EEEEvEEC2IZN11ToppingListC1EvEUlvE1_vEET_, symObjAddr: 0x99A8, symBinAddr: 0x10000C888, symSize: 0x30 }
  - { offsetInCU: 0x3BABA, offset: 0x3BABA, size: 0x8, addend: 0x0, symName: __ZNSt3__110__function12__value_funcIFNS_10unique_ptrI12SweetToppingNS_14default_deleteIS3_EEEEvEEC1B8ue170006IZN11ToppingListC1EvEUlvE1_vEEOT_, symObjAddr: 0x99D8, symBinAddr: 0x10000C8B8, symSize: 0x50 }
  - { offsetInCU: 0x3BAFD, offset: 0x3BAFD, size: 0x8, addend: 0x0, symName: __ZNSt3__19allocatorIZN11ToppingListC1EvEUlvE1_EC1B8ue170006Ev, symObjAddr: 0x9A28, symBinAddr: 0x10000C908, symSize: 0x2C }
  - { offsetInCU: 0x3BB27, offset: 0x3BB27, size: 0x8, addend: 0x0, symName: __ZNSt3__110__function12__value_funcIFNS_10unique_ptrI12SweetToppingNS_14default_deleteIS3_EEEEvEEC1B8ue170006IZN11ToppingListC1EvEUlvE1_NS_9allocatorISB_EEEEOT_RKT0_, symObjAddr: 0x9A54, symBinAddr: 0x10000C934, symSize: 0x3C }
  - { offsetInCU: 0x3BB81, offset: 0x3BB81, size: 0x8, addend: 0x0, symName: __ZNSt3__19allocatorIZN11ToppingListC1EvEUlvE1_EC2B8ue170006Ev, symObjAddr: 0x9A90, symBinAddr: 0x10000C970, symSize: 0x2C }
  - { offsetInCU: 0x3BBAB, offset: 0x3BBAB, size: 0x8, addend: 0x0, symName: __ZNSt3__116__non_trivial_ifILb1ENS_9allocatorIZN11ToppingListC1EvEUlvE1_EEEC2B8ue170006Ev, symObjAddr: 0x9ABC, symBinAddr: 0x10000C99C, symSize: 0x14 }
  - { offsetInCU: 0x3BBD5, offset: 0x3BBD5, size: 0x8, addend: 0x0, symName: __ZNSt3__110__function12__value_funcIFNS_10unique_ptrI12SweetToppingNS_14default_deleteIS3_EEEEvEEC2B8ue170006IZN11ToppingListC1EvEUlvE1_NS_9allocatorISB_EEEEOT_RKT0_, symObjAddr: 0x9AD0, symBinAddr: 0x10000C9B0, symSize: 0x94 }
  - { offsetInCU: 0x3BC82, offset: 0x3BC82, size: 0x8, addend: 0x0, symName: __ZNSt3__19allocatorINS_10__function6__funcIZN11ToppingListC1EvEUlvE1_NS0_IS4_EEFNS_10unique_ptrI12SweetToppingNS_14default_deleteIS7_EEEEvEEEEC1B8ue170006IS4_EERKNS0_IT_EE, symObjAddr: 0x9B7C, symBinAddr: 0x10000CA5C, symSize: 0x34 }
  - { offsetInCU: 0x3BCC5, offset: 0x3BCC5, size: 0x8, addend: 0x0, symName: __ZNSt3__19allocatorIZN11ToppingListC1EvEUlvE1_EC1B8ue170006INS_10__function6__funcIS2_S3_FNS_10unique_ptrI12SweetToppingNS_14default_deleteIS8_EEEEvEEEEERKNS0_IT_EE, symObjAddr: 0x9BB0, symBinAddr: 0x10000CA90, symSize: 0x34 }
  - { offsetInCU: 0x3BD02, offset: 0x3BD02, size: 0x8, addend: 0x0, symName: __ZNSt3__110__function6__funcIZN11ToppingListC1EvEUlvE1_NS_9allocatorIS3_EEFNS_10unique_ptrI12SweetToppingNS_14default_deleteIS7_EEEEvEEC1B8ue170006EOS3_OS5_, symObjAddr: 0x9BE4, symBinAddr: 0x10000CAC4, symSize: 0x3C }
  - { offsetInCU: 0x3BD4A, offset: 0x3BD4A, size: 0x8, addend: 0x0, symName: __ZNSt3__19allocatorINS_10__function6__funcIZN11ToppingListC1EvEUlvE1_NS0_IS4_EEFNS_10unique_ptrI12SweetToppingNS_14default_deleteIS7_EEEEvEEEEC2B8ue170006IS4_EERKNS0_IT_EE, symObjAddr: 0x9C20, symBinAddr: 0x10000CB00, symSize: 0x30 }
  - { offsetInCU: 0x3BD87, offset: 0x3BD87, size: 0x8, addend: 0x0, symName: __ZNSt3__116__non_trivial_ifILb1ENS_9allocatorINS_10__function6__funcIZN11ToppingListC1EvEUlvE1_NS1_IS5_EEFNS_10unique_ptrI12SweetToppingNS_14default_deleteIS8_EEEEvEEEEEEC2B8ue170006Ev, symObjAddr: 0x9C50, symBinAddr: 0x10000CB30, symSize: 0x14 }
  - { offsetInCU: 0x3BDB1, offset: 0x3BDB1, size: 0x8, addend: 0x0, symName: __ZNSt3__19allocatorIZN11ToppingListC1EvEUlvE1_EC2B8ue170006INS_10__function6__funcIS2_S3_FNS_10unique_ptrI12SweetToppingNS_14default_deleteIS8_EEEEvEEEEERKNS0_IT_EE, symObjAddr: 0x9C64, symBinAddr: 0x10000CB44, symSize: 0x30 }
  - { offsetInCU: 0x3BDEE, offset: 0x3BDEE, size: 0x8, addend: 0x0, symName: __ZNSt3__110__function6__funcIZN11ToppingListC1EvEUlvE1_NS_9allocatorIS3_EEFNS_10unique_ptrI12SweetToppingNS_14default_deleteIS7_EEEEvEEC2B8ue170006EOS3_OS5_, symObjAddr: 0x9C94, symBinAddr: 0x10000CB74, symSize: 0x88 }
  - { offsetInCU: 0x3BE36, offset: 0x3BE36, size: 0x8, addend: 0x0, symName: __ZNSt3__110__function6__baseIFNS_10unique_ptrI12SweetToppingNS_14default_deleteIS3_EEEEvEEC2B8ue170006Ev, symObjAddr: 0x9D1C, symBinAddr: 0x10000CBFC, symSize: 0x24 }
  - { offsetInCU: 0x3BE60, offset: 0x3BE60, size: 0x8, addend: 0x0, symName: __ZNSt3__110__function12__alloc_funcIZN11ToppingListC1EvEUlvE1_NS_9allocatorIS3_EEFNS_10unique_ptrI12SweetToppingNS_14default_deleteIS7_EEEEvEEC1B8ue170006EOS3_OS5_, symObjAddr: 0x9D40, symBinAddr: 0x10000CC20, symSize: 0x3C }
  - { offsetInCU: 0x3BEA6, offset: 0x3BEA6, size: 0x8, addend: 0x0, symName: __ZNSt3__110__function6__baseIFNS_10unique_ptrI12SweetToppingNS_14default_deleteIS3_EEEEvEED2Ev, symObjAddr: 0x9D7C, symBinAddr: 0x10000CC5C, symSize: 0x14 }
  - { offsetInCU: 0x3BED0, offset: 0x3BED0, size: 0x8, addend: 0x0, symName: __ZNSt3__110__function6__funcIZN11ToppingListC1EvEUlvE1_NS_9allocatorIS3_EEFNS_10unique_ptrI12SweetToppingNS_14default_deleteIS7_EEEEvEED1Ev, symObjAddr: 0x9D90, symBinAddr: 0x10000CC70, symSize: 0x2C }
  - { offsetInCU: 0x3BEFD, offset: 0x3BEFD, size: 0x8, addend: 0x0, symName: __ZNSt3__110__function6__funcIZN11ToppingListC1EvEUlvE1_NS_9allocatorIS3_EEFNS_10unique_ptrI12SweetToppingNS_14default_deleteIS7_EEEEvEED0Ev, symObjAddr: 0x9DBC, symBinAddr: 0x10000CC9C, symSize: 0x30 }
  - { offsetInCU: 0x3BF2A, offset: 0x3BF2A, size: 0x8, addend: 0x0, symName: __ZNKSt3__110__function6__funcIZN11ToppingListC1EvEUlvE1_NS_9allocatorIS3_EEFNS_10unique_ptrI12SweetToppingNS_14default_deleteIS7_EEEEvEE7__cloneEv, symObjAddr: 0x9DEC, symBinAddr: 0x10000CCCC, symSize: 0xFC }
  - { offsetInCU: 0x3BF7C, offset: 0x3BF7C, size: 0x8, addend: 0x0, symName: __ZNKSt3__110__function6__funcIZN11ToppingListC1EvEUlvE1_NS_9allocatorIS3_EEFNS_10unique_ptrI12SweetToppingNS_14default_deleteIS7_EEEEvEE7__cloneEPNS0_6__baseISB_EE, symObjAddr: 0x9EE8, symBinAddr: 0x10000CDC8, symSize: 0x58 }
  - { offsetInCU: 0x3BFB3, offset: 0x3BFB3, size: 0x8, addend: 0x0, symName: __ZNSt3__110__function6__funcIZN11ToppingListC1EvEUlvE1_NS_9allocatorIS3_EEFNS_10unique_ptrI12SweetToppingNS_14default_deleteIS7_EEEEvEE7destroyEv, symObjAddr: 0x9F40, symBinAddr: 0x10000CE20, symSize: 0x28 }
  - { offsetInCU: 0x3BFDB, offset: 0x3BFDB, size: 0x8, addend: 0x0, symName: __ZNSt3__110__function6__funcIZN11ToppingListC1EvEUlvE1_NS_9allocatorIS3_EEFNS_10unique_ptrI12SweetToppingNS_14default_deleteIS7_EEEEvEE18destroy_deallocateEv, symObjAddr: 0x9F68, symBinAddr: 0x10000CE48, symSize: 0x58 }
  - { offsetInCU: 0x3C01E, offset: 0x3C01E, size: 0x8, addend: 0x0, symName: __ZNSt3__110__function6__funcIZN11ToppingListC1EvEUlvE1_NS_9allocatorIS3_EEFNS_10unique_ptrI12SweetToppingNS_14default_deleteIS7_EEEEvEEclEv, symObjAddr: 0x9FC0, symBinAddr: 0x10000CEA0, symSize: 0x30 }
  - { offsetInCU: 0x3C046, offset: 0x3C046, size: 0x8, addend: 0x0, symName: __ZNKSt3__110__function6__funcIZN11ToppingListC1EvEUlvE1_NS_9allocatorIS3_EEFNS_10unique_ptrI12SweetToppingNS_14default_deleteIS7_EEEEvEE6targetERKSt9type_info, symObjAddr: 0x9FF0, symBinAddr: 0x10000CED0, symSize: 0x60 }
  - { offsetInCU: 0x3C07D, offset: 0x3C07D, size: 0x8, addend: 0x0, symName: __ZNKSt3__110__function6__funcIZN11ToppingListC1EvEUlvE1_NS_9allocatorIS3_EEFNS_10unique_ptrI12SweetToppingNS_14default_deleteIS7_EEEEvEE11target_typeEv, symObjAddr: 0xA050, symBinAddr: 0x10000CF30, symSize: 0x18 }
  - { offsetInCU: 0x3C0A5, offset: 0x3C0A5, size: 0x8, addend: 0x0, symName: __ZNSt3__110__function6__baseIFNS_10unique_ptrI12SweetToppingNS_14default_deleteIS3_EEEEvEED1Ev, symObjAddr: 0xA068, symBinAddr: 0x10000CF48, symSize: 0x14 }
  - { offsetInCU: 0x3C0CF, offset: 0x3C0CF, size: 0x8, addend: 0x0, symName: __ZNSt3__110__function6__baseIFNS_10unique_ptrI12SweetToppingNS_14default_deleteIS3_EEEEvEED0Ev, symObjAddr: 0xA07C, symBinAddr: 0x10000CF5C, symSize: 0xC }
  - { offsetInCU: 0x3C0F9, offset: 0x3C0F9, size: 0x8, addend: 0x0, symName: __ZNSt3__110__function12__alloc_funcIZN11ToppingListC1EvEUlvE1_NS_9allocatorIS3_EEFNS_10unique_ptrI12SweetToppingNS_14default_deleteIS7_EEEEvEEC2B8ue170006EOS3_OS5_, symObjAddr: 0xA088, symBinAddr: 0x10000CF68, symSize: 0x5C }
  - { offsetInCU: 0x3C13F, offset: 0x3C13F, size: 0x8, addend: 0x0, symName: __ZNSt3__117__compressed_pairIZN11ToppingListC1EvEUlvE1_NS_9allocatorIS2_EEEC1B8ue170006IJOS2_EJOS4_EEENS_21piecewise_construct_tENS_5tupleIJDpT_EEENSA_IJDpT0_EEE, symObjAddr: 0xA13C, symBinAddr: 0x10000D01C, symSize: 0x3C }
  - { offsetInCU: 0x3C1A9, offset: 0x3C1A9, size: 0x8, addend: 0x0, symName: __ZNSt3__15tupleIJOZN11ToppingListC1EvEUlvE1_EEC1B8ue170006IJS2_ELi0EEEDpOT_, symObjAddr: 0xA178, symBinAddr: 0x10000D058, symSize: 0x34 }
  - { offsetInCU: 0x3C1F3, offset: 0x3C1F3, size: 0x8, addend: 0x0, symName: __ZNSt3__15tupleIJOZN11ToppingListC1EvEUlvE1_EEC2B8ue170006IJS2_ELi0EEEDpOT_, symObjAddr: 0xA1AC, symBinAddr: 0x10000D08C, symSize: 0x34 }
  - { offsetInCU: 0x3C23D, offset: 0x3C23D, size: 0x8, addend: 0x0, symName: __ZNSt3__112__tuple_implINS_15__tuple_indicesIJLm0EEEEJOZN11ToppingListC1EvEUlvE1_EEC1B8ue170006IJLm0EEJS5_EJEJEJS4_EEENS1_IJXspT_EEEENS_13__tuple_typesIJDpT0_EEENS1_IJXspT1_EEEENS9_IJDpT2_EEEDpOT3_, symObjAddr: 0xA1E0, symBinAddr: 0x10000D0C0, symSize: 0x34 }
  - { offsetInCU: 0x3C2D2, offset: 0x3C2D2, size: 0x8, addend: 0x0, symName: __ZNSt3__112__tuple_implINS_15__tuple_indicesIJLm0EEEEJOZN11ToppingListC1EvEUlvE1_EEC2B8ue170006IJLm0EEJS5_EJEJEJS4_EEENS1_IJXspT_EEEENS_13__tuple_typesIJDpT0_EEENS1_IJXspT1_EEEENS9_IJDpT2_EEEDpOT3_, symObjAddr: 0xA214, symBinAddr: 0x10000D0F4, symSize: 0x34 }
  - { offsetInCU: 0x3C367, offset: 0x3C367, size: 0x8, addend: 0x0, symName: __ZNSt3__112__tuple_leafILm0EOZN11ToppingListC1EvEUlvE1_Lb0EEC2B8ue170006IS2_vEEOT_, symObjAddr: 0xA248, symBinAddr: 0x10000D128, symSize: 0x20 }
  - { offsetInCU: 0x3C3AA, offset: 0x3C3AA, size: 0x8, addend: 0x0, symName: __ZNSt3__15tupleIJONS_9allocatorIZN11ToppingListC1EvEUlvE1_EEEEC1B8ue170006IJS4_ELi0EEEDpOT_, symObjAddr: 0xA268, symBinAddr: 0x10000D148, symSize: 0x34 }
  - { offsetInCU: 0x3C3F4, offset: 0x3C3F4, size: 0x8, addend: 0x0, symName: __ZNSt3__15tupleIJONS_9allocatorIZN11ToppingListC1EvEUlvE1_EEEEC2B8ue170006IJS4_ELi0EEEDpOT_, symObjAddr: 0xA29C, symBinAddr: 0x10000D17C, symSize: 0x34 }
  - { offsetInCU: 0x3C43E, offset: 0x3C43E, size: 0x8, addend: 0x0, symName: __ZNSt3__112__tuple_implINS_15__tuple_indicesIJLm0EEEEJONS_9allocatorIZN11ToppingListC1EvEUlvE1_EEEEC1B8ue170006IJLm0EEJS7_EJEJEJS6_EEENS1_IJXspT_EEEENS_13__tuple_typesIJDpT0_EEENS1_IJXspT1_EEEENSB_IJDpT2_EEEDpOT3_, symObjAddr: 0xA2D0, symBinAddr: 0x10000D1B0, symSize: 0x34 }
  - { offsetInCU: 0x3C4D3, offset: 0x3C4D3, size: 0x8, addend: 0x0, symName: __ZNSt3__112__tuple_implINS_15__tuple_indicesIJLm0EEEEJONS_9allocatorIZN11ToppingListC1EvEUlvE1_EEEEC2B8ue170006IJLm0EEJS7_EJEJEJS6_EEENS1_IJXspT_EEEENS_13__tuple_typesIJDpT0_EEENS1_IJXspT1_EEEENSB_IJDpT2_EEEDpOT3_, symObjAddr: 0xA304, symBinAddr: 0x10000D1E4, symSize: 0x34 }
  - { offsetInCU: 0x3C568, offset: 0x3C568, size: 0x8, addend: 0x0, symName: __ZNSt3__112__tuple_leafILm0EONS_9allocatorIZN11ToppingListC1EvEUlvE1_EELb0EEC2B8ue170006IS4_vEEOT_, symObjAddr: 0xA338, symBinAddr: 0x10000D218, symSize: 0x20 }
  - { offsetInCU: 0x3C5AB, offset: 0x3C5AB, size: 0x8, addend: 0x0, symName: __ZNSt3__117__compressed_pairIZN11ToppingListC1EvEUlvE1_NS_9allocatorIS2_EEEC2B8ue170006IJOS2_EJOS4_EEENS_21piecewise_construct_tENS_5tupleIJDpT_EEENSA_IJDpT0_EEE, symObjAddr: 0xA358, symBinAddr: 0x10000D238, symSize: 0x54 }
  - { offsetInCU: 0x3C615, offset: 0x3C615, size: 0x8, addend: 0x0, symName: __ZNSt3__122__compressed_pair_elemIZN11ToppingListC1EvEUlvE1_Li0ELb1EEC2B8ue170006IJOS2_EJLm0EEEENS_21piecewise_construct_tENS_5tupleIJDpT_EEENS_15__tuple_indicesIJXspT0_EEEE, symObjAddr: 0xA3AC, symBinAddr: 0x10000D28C, symSize: 0x38 }
  - { offsetInCU: 0x3C678, offset: 0x3C678, size: 0x8, addend: 0x0, symName: __ZNSt3__122__compressed_pair_elemINS_9allocatorIZN11ToppingListC1EvEUlvE1_EELi1ELb1EEC2B8ue170006IJOS4_EJLm0EEEENS_21piecewise_construct_tENS_5tupleIJDpT_EEENS_15__tuple_indicesIJXspT0_EEEE, symObjAddr: 0xA3E4, symBinAddr: 0x10000D2C4, symSize: 0x38 }
  - { offsetInCU: 0x3C6DB, offset: 0x3C6DB, size: 0x8, addend: 0x0, symName: __ZNSt3__112__tuple_leafILm0EOZN11ToppingListC1EvEUlvE1_Lb0EE3getB8ue170006Ev, symObjAddr: 0xA440, symBinAddr: 0x10000D320, symSize: 0x18 }
  - { offsetInCU: 0x3C701, offset: 0x3C701, size: 0x8, addend: 0x0, symName: __ZNSt3__112__tuple_leafILm0EONS_9allocatorIZN11ToppingListC1EvEUlvE1_EELb0EE3getB8ue170006Ev, symObjAddr: 0xA47C, symBinAddr: 0x10000D35C, symSize: 0x18 }
  - { offsetInCU: 0x3C727, offset: 0x3C727, size: 0x8, addend: 0x0, symName: __ZNSt3__110__function6__funcIZN11ToppingListC1EvEUlvE1_NS_9allocatorIS3_EEFNS_10unique_ptrI12SweetToppingNS_14default_deleteIS7_EEEEvEED2Ev, symObjAddr: 0xA494, symBinAddr: 0x10000D374, symSize: 0x2C }
  - { offsetInCU: 0x3C754, offset: 0x3C754, size: 0x8, addend: 0x0, symName: __ZNKSt3__110__function12__alloc_funcIZN11ToppingListC1EvEUlvE1_NS_9allocatorIS3_EEFNS_10unique_ptrI12SweetToppingNS_14default_deleteIS7_EEEEvEE15__get_allocatorB8ue170006Ev, symObjAddr: 0xA4C0, symBinAddr: 0x10000D3A0, symSize: 0x24 }
  - { offsetInCU: 0x3C77A, offset: 0x3C77A, size: 0x8, addend: 0x0, symName: __ZNSt3__19allocatorINS_10__function6__funcIZN11ToppingListC1EvEUlvE1_NS0_IS4_EEFNS_10unique_ptrI12SweetToppingNS_14default_deleteIS7_EEEEvEEEE8allocateB8ue170006Em, symObjAddr: 0xA4E4, symBinAddr: 0x10000D3C4, symSize: 0x58 }
  - { offsetInCU: 0x3C7C0, offset: 0x3C7C0, size: 0x8, addend: 0x0, symName: __ZNSt3__122__allocator_destructorINS_9allocatorINS_10__function6__funcIZN11ToppingListC1EvEUlvE1_NS1_IS5_EEFNS_10unique_ptrI12SweetToppingNS_14default_deleteIS8_EEEEvEEEEEEC1B8ue170006ERSE_m, symObjAddr: 0xA53C, symBinAddr: 0x10000D41C, symSize: 0x3C }
  - { offsetInCU: 0x3C8AE, offset: 0x3C8AE, size: 0x8, addend: 0x0, symName: __ZNSt3__110unique_ptrINS_10__function6__funcIZN11ToppingListC1EvEUlvE1_NS_9allocatorIS4_EEFNS0_I12SweetToppingNS_14default_deleteIS7_EEEEvEEENS_22__allocator_destructorINS5_ISC_EEEEEC1B8ue170006ILb1EvEEPSC_NS_16__dependent_typeINS_27__unique_ptr_deleter_sfinaeISF_EEXT_EE20__good_rval_ref_typeE, symObjAddr: 0xA578, symBinAddr: 0x10000D458, symSize: 0x3C }
  - { offsetInCU: 0x3C8FF, offset: 0x3C8FF, size: 0x8, addend: 0x0, symName: __ZNKSt3__110unique_ptrINS_10__function6__funcIZN11ToppingListC1EvEUlvE1_NS_9allocatorIS4_EEFNS0_I12SweetToppingNS_14default_deleteIS7_EEEEvEEENS_22__allocator_destructorINS5_ISC_EEEEE3getB8ue170006Ev, symObjAddr: 0xA5B4, symBinAddr: 0x10000D494, symSize: 0x28 }
  - { offsetInCU: 0x3C925, offset: 0x3C925, size: 0x8, addend: 0x0, symName: __ZNKSt3__110__function12__alloc_funcIZN11ToppingListC1EvEUlvE1_NS_9allocatorIS3_EEFNS_10unique_ptrI12SweetToppingNS_14default_deleteIS7_EEEEvEE8__targetB8ue170006Ev, symObjAddr: 0xA5DC, symBinAddr: 0x10000D4BC, symSize: 0x24 }
  - { offsetInCU: 0x3C94B, offset: 0x3C94B, size: 0x8, addend: 0x0, symName: __ZNSt3__110__function6__funcIZN11ToppingListC1EvEUlvE1_NS_9allocatorIS3_EEFNS_10unique_ptrI12SweetToppingNS_14default_deleteIS7_EEEEvEEC1B8ue170006ERKS3_OS5_, symObjAddr: 0xA600, symBinAddr: 0x10000D4E0, symSize: 0x3C }
  - { offsetInCU: 0x3C993, offset: 0x3C993, size: 0x8, addend: 0x0, symName: __ZNSt3__110unique_ptrINS_10__function6__funcIZN11ToppingListC1EvEUlvE1_NS_9allocatorIS4_EEFNS0_I12SweetToppingNS_14default_deleteIS7_EEEEvEEENS_22__allocator_destructorINS5_ISC_EEEEE7releaseB8ue170006Ev, symObjAddr: 0xA63C, symBinAddr: 0x10000D51C, symSize: 0x44 }
  - { offsetInCU: 0x3C9C8, offset: 0x3C9C8, size: 0x8, addend: 0x0, symName: __ZNSt3__110unique_ptrINS_10__function6__funcIZN11ToppingListC1EvEUlvE1_NS_9allocatorIS4_EEFNS0_I12SweetToppingNS_14default_deleteIS7_EEEEvEEENS_22__allocator_destructorINS5_ISC_EEEEED1B8ue170006Ev, symObjAddr: 0xA680, symBinAddr: 0x10000D560, symSize: 0x2C }
  - { offsetInCU: 0x3C9F2, offset: 0x3C9F2, size: 0x8, addend: 0x0, symName: __ZNKSt3__117__compressed_pairIZN11ToppingListC1EvEUlvE1_NS_9allocatorIS2_EEE6secondB8ue170006Ev, symObjAddr: 0xA6AC, symBinAddr: 0x10000D58C, symSize: 0x24 }
  - { offsetInCU: 0x3CA18, offset: 0x3CA18, size: 0x8, addend: 0x0, symName: __ZNKSt3__122__compressed_pair_elemINS_9allocatorIZN11ToppingListC1EvEUlvE1_EELi1ELb1EE5__getB8ue170006Ev, symObjAddr: 0xA6D0, symBinAddr: 0x10000D5B0, symSize: 0x14 }
  - { offsetInCU: 0x3CA4A, offset: 0x3CA4A, size: 0x8, addend: 0x0, symName: __ZNSt3__116allocator_traitsINS_9allocatorINS_10__function6__funcIZN11ToppingListC1EvEUlvE1_NS1_IS5_EEFNS_10unique_ptrI12SweetToppingNS_14default_deleteIS8_EEEEvEEEEEE8max_sizeB8ue170006ISE_vEEmRKSE_, symObjAddr: 0xA6E4, symBinAddr: 0x10000D5C4, symSize: 0x24 }
  - { offsetInCU: 0x3CA78, offset: 0x3CA78, size: 0x8, addend: 0x0, symName: __ZNKSt3__19allocatorINS_10__function6__funcIZN11ToppingListC1EvEUlvE1_NS0_IS4_EEFNS_10unique_ptrI12SweetToppingNS_14default_deleteIS7_EEEEvEEEE8max_sizeB8ue170006Ev, symObjAddr: 0xA708, symBinAddr: 0x10000D5E8, symSize: 0x14 }
  - { offsetInCU: 0x3CA9E, offset: 0x3CA9E, size: 0x8, addend: 0x0, symName: __ZNSt3__122__allocator_destructorINS_9allocatorINS_10__function6__funcIZN11ToppingListC1EvEUlvE1_NS1_IS5_EEFNS_10unique_ptrI12SweetToppingNS_14default_deleteIS8_EEEEvEEEEEEC2B8ue170006ERSE_m, symObjAddr: 0xA71C, symBinAddr: 0x10000D5FC, symSize: 0x2C }
  - { offsetInCU: 0x3CAE4, offset: 0x3CAE4, size: 0x8, addend: 0x0, symName: __ZNSt3__110unique_ptrINS_10__function6__funcIZN11ToppingListC1EvEUlvE1_NS_9allocatorIS4_EEFNS0_I12SweetToppingNS_14default_deleteIS7_EEEEvEEENS_22__allocator_destructorINS5_ISC_EEEEEC2B8ue170006ILb1EvEEPSC_NS_16__dependent_typeINS_27__unique_ptr_deleter_sfinaeISF_EEXT_EE20__good_rval_ref_typeE, symObjAddr: 0xA748, symBinAddr: 0x10000D628, symSize: 0x48 }
  - { offsetInCU: 0x3CB35, offset: 0x3CB35, size: 0x8, addend: 0x0, symName: __ZNSt3__117__compressed_pairIPNS_10__function6__funcIZN11ToppingListC1EvEUlvE1_NS_9allocatorIS4_EEFNS_10unique_ptrI12SweetToppingNS_14default_deleteIS8_EEEEvEEENS_22__allocator_destructorINS5_ISD_EEEEEC1B8ue170006IRSE_SH_EEOT_OT0_, symObjAddr: 0xA790, symBinAddr: 0x10000D670, symSize: 0x3C }
  - { offsetInCU: 0x3CB8D, offset: 0x3CB8D, size: 0x8, addend: 0x0, symName: __ZNSt3__117__compressed_pairIPNS_10__function6__funcIZN11ToppingListC1EvEUlvE1_NS_9allocatorIS4_EEFNS_10unique_ptrI12SweetToppingNS_14default_deleteIS8_EEEEvEEENS_22__allocator_destructorINS5_ISD_EEEEEC2B8ue170006IRSE_SH_EEOT_OT0_, symObjAddr: 0xA7CC, symBinAddr: 0x10000D6AC, symSize: 0x48 }
  - { offsetInCU: 0x3CBE5, offset: 0x3CBE5, size: 0x8, addend: 0x0, symName: __ZNSt3__122__compressed_pair_elemIPNS_10__function6__funcIZN11ToppingListC1EvEUlvE1_NS_9allocatorIS4_EEFNS_10unique_ptrI12SweetToppingNS_14default_deleteIS8_EEEEvEEELi0ELb0EEC2B8ue170006IRSE_vEEOT_, symObjAddr: 0xA814, symBinAddr: 0x10000D6F4, symSize: 0x24 }
  - { offsetInCU: 0x3CC27, offset: 0x3CC27, size: 0x8, addend: 0x0, symName: __ZNSt3__122__compressed_pair_elemINS_22__allocator_destructorINS_9allocatorINS_10__function6__funcIZN11ToppingListC1EvEUlvE1_NS2_IS6_EEFNS_10unique_ptrI12SweetToppingNS_14default_deleteIS9_EEEEvEEEEEEELi1ELb0EEC2B8ue170006ISG_vEEOT_, symObjAddr: 0xA838, symBinAddr: 0x10000D718, symSize: 0x24 }
  - { offsetInCU: 0x3CC69, offset: 0x3CC69, size: 0x8, addend: 0x0, symName: __ZNKSt3__117__compressed_pairIPNS_10__function6__funcIZN11ToppingListC1EvEUlvE1_NS_9allocatorIS4_EEFNS_10unique_ptrI12SweetToppingNS_14default_deleteIS8_EEEEvEEENS_22__allocator_destructorINS5_ISD_EEEEE5firstB8ue170006Ev, symObjAddr: 0xA85C, symBinAddr: 0x10000D73C, symSize: 0x24 }
  - { offsetInCU: 0x3CC8F, offset: 0x3CC8F, size: 0x8, addend: 0x0, symName: __ZNKSt3__122__compressed_pair_elemIPNS_10__function6__funcIZN11ToppingListC1EvEUlvE1_NS_9allocatorIS4_EEFNS_10unique_ptrI12SweetToppingNS_14default_deleteIS8_EEEEvEEELi0ELb0EE5__getB8ue170006Ev, symObjAddr: 0xA880, symBinAddr: 0x10000D760, symSize: 0x14 }
  - { offsetInCU: 0x3CCB5, offset: 0x3CCB5, size: 0x8, addend: 0x0, symName: __ZNKSt3__117__compressed_pairIZN11ToppingListC1EvEUlvE1_NS_9allocatorIS2_EEE5firstB8ue170006Ev, symObjAddr: 0xA894, symBinAddr: 0x10000D774, symSize: 0x24 }
  - { offsetInCU: 0x3CCDB, offset: 0x3CCDB, size: 0x8, addend: 0x0, symName: __ZNKSt3__122__compressed_pair_elemIZN11ToppingListC1EvEUlvE1_Li0ELb1EE5__getB8ue170006Ev, symObjAddr: 0xA8B8, symBinAddr: 0x10000D798, symSize: 0x14 }
  - { offsetInCU: 0x3CD01, offset: 0x3CD01, size: 0x8, addend: 0x0, symName: __ZNSt3__110__function6__funcIZN11ToppingListC1EvEUlvE1_NS_9allocatorIS3_EEFNS_10unique_ptrI12SweetToppingNS_14default_deleteIS7_EEEEvEEC2B8ue170006ERKS3_OS5_, symObjAddr: 0xA8CC, symBinAddr: 0x10000D7AC, symSize: 0x88 }
  - { offsetInCU: 0x3CD49, offset: 0x3CD49, size: 0x8, addend: 0x0, symName: __ZNSt3__110__function12__alloc_funcIZN11ToppingListC1EvEUlvE1_NS_9allocatorIS3_EEFNS_10unique_ptrI12SweetToppingNS_14default_deleteIS7_EEEEvEEC1B8ue170006ERKS3_OS5_, symObjAddr: 0xA954, symBinAddr: 0x10000D834, symSize: 0x3C }
  - { offsetInCU: 0x3CD8F, offset: 0x3CD8F, size: 0x8, addend: 0x0, symName: __ZNSt3__110__function12__alloc_funcIZN11ToppingListC1EvEUlvE1_NS_9allocatorIS3_EEFNS_10unique_ptrI12SweetToppingNS_14default_deleteIS7_EEEEvEEC2B8ue170006ERKS3_OS5_, symObjAddr: 0xA990, symBinAddr: 0x10000D870, symSize: 0x5C }
  - { offsetInCU: 0x3CDD5, offset: 0x3CDD5, size: 0x8, addend: 0x0, symName: __ZNSt3__117__compressed_pairIZN11ToppingListC1EvEUlvE1_NS_9allocatorIS2_EEEC1B8ue170006IJRKS2_EJOS4_EEENS_21piecewise_construct_tENS_5tupleIJDpT_EEENSB_IJDpT0_EEE, symObjAddr: 0xAA18, symBinAddr: 0x10000D8F8, symSize: 0x3C }
  - { offsetInCU: 0x3CE3F, offset: 0x3CE3F, size: 0x8, addend: 0x0, symName: __ZNSt3__15tupleIJRKZN11ToppingListC1EvEUlvE1_EEC1B8ue170006INS_4_AndELi0EEES4_, symObjAddr: 0xAA54, symBinAddr: 0x10000D934, symSize: 0x34 }
  - { offsetInCU: 0x3CE87, offset: 0x3CE87, size: 0x8, addend: 0x0, symName: __ZNSt3__15tupleIJRKZN11ToppingListC1EvEUlvE1_EEC2B8ue170006INS_4_AndELi0EEES4_, symObjAddr: 0xAA88, symBinAddr: 0x10000D968, symSize: 0x34 }
  - { offsetInCU: 0x3CECF, offset: 0x3CECF, size: 0x8, addend: 0x0, symName: __ZNSt3__112__tuple_implINS_15__tuple_indicesIJLm0EEEEJRKZN11ToppingListC1EvEUlvE1_EEC1B8ue170006IJLm0EEJS6_EJEJEJS6_EEENS1_IJXspT_EEEENS_13__tuple_typesIJDpT0_EEENS1_IJXspT1_EEEENSA_IJDpT2_EEEDpOT3_, symObjAddr: 0xAABC, symBinAddr: 0x10000D99C, symSize: 0x34 }
  - { offsetInCU: 0x3CF64, offset: 0x3CF64, size: 0x8, addend: 0x0, symName: __ZNSt3__112__tuple_implINS_15__tuple_indicesIJLm0EEEEJRKZN11ToppingListC1EvEUlvE1_EEC2B8ue170006IJLm0EEJS6_EJEJEJS6_EEENS1_IJXspT_EEEENS_13__tuple_typesIJDpT0_EEENS1_IJXspT1_EEEENSA_IJDpT2_EEEDpOT3_, symObjAddr: 0xAAF0, symBinAddr: 0x10000D9D0, symSize: 0x34 }
  - { offsetInCU: 0x3CFF9, offset: 0x3CFF9, size: 0x8, addend: 0x0, symName: __ZNSt3__112__tuple_leafILm0ERKZN11ToppingListC1EvEUlvE1_Lb0EEC2B8ue170006IS4_vEEOT_, symObjAddr: 0xAB24, symBinAddr: 0x10000DA04, symSize: 0x20 }
  - { offsetInCU: 0x3D03C, offset: 0x3D03C, size: 0x8, addend: 0x0, symName: __ZNSt3__117__compressed_pairIZN11ToppingListC1EvEUlvE1_NS_9allocatorIS2_EEEC2B8ue170006IJRKS2_EJOS4_EEENS_21piecewise_construct_tENS_5tupleIJDpT_EEENSB_IJDpT0_EEE, symObjAddr: 0xAB44, symBinAddr: 0x10000DA24, symSize: 0x54 }
  - { offsetInCU: 0x3D0A6, offset: 0x3D0A6, size: 0x8, addend: 0x0, symName: __ZNSt3__122__compressed_pair_elemIZN11ToppingListC1EvEUlvE1_Li0ELb1EEC2B8ue170006IJRKS2_EJLm0EEEENS_21piecewise_construct_tENS_5tupleIJDpT_EEENS_15__tuple_indicesIJXspT0_EEEE, symObjAddr: 0xAB98, symBinAddr: 0x10000DA78, symSize: 0x38 }
  - { offsetInCU: 0x3D109, offset: 0x3D109, size: 0x8, addend: 0x0, symName: __ZNSt3__112__tuple_leafILm0ERKZN11ToppingListC1EvEUlvE1_Lb0EE3getB8ue170006Ev, symObjAddr: 0xABF4, symBinAddr: 0x10000DAD4, symSize: 0x18 }
  - { offsetInCU: 0x3D12F, offset: 0x3D12F, size: 0x8, addend: 0x0, symName: __ZNSt3__117__compressed_pairIPNS_10__function6__funcIZN11ToppingListC1EvEUlvE1_NS_9allocatorIS4_EEFNS_10unique_ptrI12SweetToppingNS_14default_deleteIS8_EEEEvEEENS_22__allocator_destructorINS5_ISD_EEEEE5firstB8ue170006Ev, symObjAddr: 0xAC0C, symBinAddr: 0x10000DAEC, symSize: 0x24 }
  - { offsetInCU: 0x3D155, offset: 0x3D155, size: 0x8, addend: 0x0, symName: __ZNSt3__122__compressed_pair_elemIPNS_10__function6__funcIZN11ToppingListC1EvEUlvE1_NS_9allocatorIS4_EEFNS_10unique_ptrI12SweetToppingNS_14default_deleteIS8_EEEEvEEELi0ELb0EE5__getB8ue170006Ev, symObjAddr: 0xAC30, symBinAddr: 0x10000DB10, symSize: 0x14 }
  - { offsetInCU: 0x3D17B, offset: 0x3D17B, size: 0x8, addend: 0x0, symName: __ZNSt3__110unique_ptrINS_10__function6__funcIZN11ToppingListC1EvEUlvE1_NS_9allocatorIS4_EEFNS0_I12SweetToppingNS_14default_deleteIS7_EEEEvEEENS_22__allocator_destructorINS5_ISC_EEEEED2B8ue170006Ev, symObjAddr: 0xAC44, symBinAddr: 0x10000DB24, symSize: 0x30 }
  - { offsetInCU: 0x3D1A5, offset: 0x3D1A5, size: 0x8, addend: 0x0, symName: __ZNSt3__110unique_ptrINS_10__function6__funcIZN11ToppingListC1EvEUlvE1_NS_9allocatorIS4_EEFNS0_I12SweetToppingNS_14default_deleteIS7_EEEEvEEENS_22__allocator_destructorINS5_ISC_EEEEE5resetB8ue170006EPSC_, symObjAddr: 0xAC74, symBinAddr: 0x10000DB54, symSize: 0x78 }
  - { offsetInCU: 0x3D1E9, offset: 0x3D1E9, size: 0x8, addend: 0x0, symName: __ZNSt3__117__compressed_pairIPNS_10__function6__funcIZN11ToppingListC1EvEUlvE1_NS_9allocatorIS4_EEFNS_10unique_ptrI12SweetToppingNS_14default_deleteIS8_EEEEvEEENS_22__allocator_destructorINS5_ISD_EEEEE6secondB8ue170006Ev, symObjAddr: 0xACEC, symBinAddr: 0x10000DBCC, symSize: 0x28 }
  - { offsetInCU: 0x3D20F, offset: 0x3D20F, size: 0x8, addend: 0x0, symName: __ZNSt3__122__allocator_destructorINS_9allocatorINS_10__function6__funcIZN11ToppingListC1EvEUlvE1_NS1_IS5_EEFNS_10unique_ptrI12SweetToppingNS_14default_deleteIS8_EEEEvEEEEEEclB8ue170006EPSD_, symObjAddr: 0xAD14, symBinAddr: 0x10000DBF4, symSize: 0x34 }
  - { offsetInCU: 0x3D243, offset: 0x3D243, size: 0x8, addend: 0x0, symName: __ZNSt3__122__compressed_pair_elemINS_22__allocator_destructorINS_9allocatorINS_10__function6__funcIZN11ToppingListC1EvEUlvE1_NS2_IS6_EEFNS_10unique_ptrI12SweetToppingNS_14default_deleteIS9_EEEEvEEEEEEELi1ELb0EE5__getB8ue170006Ev, symObjAddr: 0xAD48, symBinAddr: 0x10000DC28, symSize: 0x14 }
  - { offsetInCU: 0x3D269, offset: 0x3D269, size: 0x8, addend: 0x0, symName: __ZNSt3__116allocator_traitsINS_9allocatorINS_10__function6__funcIZN11ToppingListC1EvEUlvE1_NS1_IS5_EEFNS_10unique_ptrI12SweetToppingNS_14default_deleteIS8_EEEEvEEEEEE10deallocateB8ue170006ERSE_PSD_m, symObjAddr: 0xAD5C, symBinAddr: 0x10000DC3C, symSize: 0x34 }
  - { offsetInCU: 0x3D2AB, offset: 0x3D2AB, size: 0x8, addend: 0x0, symName: __ZNSt3__19allocatorINS_10__function6__funcIZN11ToppingListC1EvEUlvE1_NS0_IS4_EEFNS_10unique_ptrI12SweetToppingNS_14default_deleteIS7_EEEEvEEEE10deallocateB8ue170006EPSC_m, symObjAddr: 0xAD90, symBinAddr: 0x10000DC70, symSize: 0x40 }
  - { offsetInCU: 0x3D2ED, offset: 0x3D2ED, size: 0x8, addend: 0x0, symName: __ZNSt3__110__function6__funcIZN11ToppingListC1EvEUlvE1_NS_9allocatorIS3_EEFNS_10unique_ptrI12SweetToppingNS_14default_deleteIS7_EEEEvEEC1B8ue170006ERKS3_RKS5_, symObjAddr: 0xADD0, symBinAddr: 0x10000DCB0, symSize: 0x3C }
  - { offsetInCU: 0x3D335, offset: 0x3D335, size: 0x8, addend: 0x0, symName: __ZNSt3__110__function6__funcIZN11ToppingListC1EvEUlvE1_NS_9allocatorIS3_EEFNS_10unique_ptrI12SweetToppingNS_14default_deleteIS7_EEEEvEEC2B8ue170006ERKS3_RKS5_, symObjAddr: 0xAE0C, symBinAddr: 0x10000DCEC, symSize: 0x88 }
  - { offsetInCU: 0x3D37D, offset: 0x3D37D, size: 0x8, addend: 0x0, symName: __ZNSt3__110__function12__alloc_funcIZN11ToppingListC1EvEUlvE1_NS_9allocatorIS3_EEFNS_10unique_ptrI12SweetToppingNS_14default_deleteIS7_EEEEvEEC1B8ue170006ERKS3_RKS5_, symObjAddr: 0xAE94, symBinAddr: 0x10000DD74, symSize: 0x3C }
  - { offsetInCU: 0x3D3C3, offset: 0x3D3C3, size: 0x8, addend: 0x0, symName: __ZNSt3__110__function12__alloc_funcIZN11ToppingListC1EvEUlvE1_NS_9allocatorIS3_EEFNS_10unique_ptrI12SweetToppingNS_14default_deleteIS7_EEEEvEEC2B8ue170006ERKS3_RKS5_, symObjAddr: 0xAED0, symBinAddr: 0x10000DDB0, symSize: 0x5C }
  - { offsetInCU: 0x3D409, offset: 0x3D409, size: 0x8, addend: 0x0, symName: __ZNSt3__117__compressed_pairIZN11ToppingListC1EvEUlvE1_NS_9allocatorIS2_EEEC1B8ue170006IJRKS2_EJRKS4_EEENS_21piecewise_construct_tENS_5tupleIJDpT_EEENSC_IJDpT0_EEE, symObjAddr: 0xAF58, symBinAddr: 0x10000DE38, symSize: 0x3C }
  - { offsetInCU: 0x3D473, offset: 0x3D473, size: 0x8, addend: 0x0, symName: __ZNSt3__15tupleIJRKNS_9allocatorIZN11ToppingListC1EvEUlvE1_EEEEC1B8ue170006INS_4_AndELi0EEES6_, symObjAddr: 0xAF94, symBinAddr: 0x10000DE74, symSize: 0x34 }
  - { offsetInCU: 0x3D4BB, offset: 0x3D4BB, size: 0x8, addend: 0x0, symName: __ZNSt3__15tupleIJRKNS_9allocatorIZN11ToppingListC1EvEUlvE1_EEEEC2B8ue170006INS_4_AndELi0EEES6_, symObjAddr: 0xAFC8, symBinAddr: 0x10000DEA8, symSize: 0x34 }
  - { offsetInCU: 0x3D503, offset: 0x3D503, size: 0x8, addend: 0x0, symName: __ZNSt3__112__tuple_implINS_15__tuple_indicesIJLm0EEEEJRKNS_9allocatorIZN11ToppingListC1EvEUlvE1_EEEEC1B8ue170006IJLm0EEJS8_EJEJEJS8_EEENS1_IJXspT_EEEENS_13__tuple_typesIJDpT0_EEENS1_IJXspT1_EEEENSC_IJDpT2_EEEDpOT3_, symObjAddr: 0xAFFC, symBinAddr: 0x10000DEDC, symSize: 0x34 }
  - { offsetInCU: 0x3D598, offset: 0x3D598, size: 0x8, addend: 0x0, symName: __ZNSt3__112__tuple_implINS_15__tuple_indicesIJLm0EEEEJRKNS_9allocatorIZN11ToppingListC1EvEUlvE1_EEEEC2B8ue170006IJLm0EEJS8_EJEJEJS8_EEENS1_IJXspT_EEEENS_13__tuple_typesIJDpT0_EEENS1_IJXspT1_EEEENSC_IJDpT2_EEEDpOT3_, symObjAddr: 0xB030, symBinAddr: 0x10000DF10, symSize: 0x34 }
  - { offsetInCU: 0x3D62D, offset: 0x3D62D, size: 0x8, addend: 0x0, symName: __ZNSt3__112__tuple_leafILm0ERKNS_9allocatorIZN11ToppingListC1EvEUlvE1_EELb0EEC2B8ue170006IS6_vEEOT_, symObjAddr: 0xB064, symBinAddr: 0x10000DF44, symSize: 0x20 }
  - { offsetInCU: 0x3D670, offset: 0x3D670, size: 0x8, addend: 0x0, symName: __ZNSt3__117__compressed_pairIZN11ToppingListC1EvEUlvE1_NS_9allocatorIS2_EEEC2B8ue170006IJRKS2_EJRKS4_EEENS_21piecewise_construct_tENS_5tupleIJDpT_EEENSC_IJDpT0_EEE, symObjAddr: 0xB084, symBinAddr: 0x10000DF64, symSize: 0x54 }
  - { offsetInCU: 0x3D6DA, offset: 0x3D6DA, size: 0x8, addend: 0x0, symName: __ZNSt3__122__compressed_pair_elemINS_9allocatorIZN11ToppingListC1EvEUlvE1_EELi1ELb1EEC2B8ue170006IJRKS4_EJLm0EEEENS_21piecewise_construct_tENS_5tupleIJDpT_EEENS_15__tuple_indicesIJXspT0_EEEE, symObjAddr: 0xB0D8, symBinAddr: 0x10000DFB8, symSize: 0x38 }
  - { offsetInCU: 0x3D73D, offset: 0x3D73D, size: 0x8, addend: 0x0, symName: __ZNSt3__112__tuple_leafILm0ERKNS_9allocatorIZN11ToppingListC1EvEUlvE1_EELb0EE3getB8ue170006Ev, symObjAddr: 0xB134, symBinAddr: 0x10000E014, symSize: 0x18 }
  - { offsetInCU: 0x3D763, offset: 0x3D763, size: 0x8, addend: 0x0, symName: __ZNSt3__110__function12__alloc_funcIZN11ToppingListC1EvEUlvE1_NS_9allocatorIS3_EEFNS_10unique_ptrI12SweetToppingNS_14default_deleteIS7_EEEEvEE7destroyB8ue170006Ev, symObjAddr: 0xB14C, symBinAddr: 0x10000E02C, symSize: 0x10 }
  - { offsetInCU: 0x3D789, offset: 0x3D789, size: 0x8, addend: 0x0, symName: __ZNSt3__110__function12__alloc_funcIZN11ToppingListC1EvEUlvE1_NS_9allocatorIS3_EEFNS_10unique_ptrI12SweetToppingNS_14default_deleteIS7_EEEEvEEclB8ue170006Ev, symObjAddr: 0xB15C, symBinAddr: 0x10000E03C, symSize: 0x34 }
  - { offsetInCU: 0x3D7AF, offset: 0x3D7AF, size: 0x8, addend: 0x0, symName: __ZNSt3__128__invoke_void_return_wrapperINS_10unique_ptrI12SweetToppingNS_14default_deleteIS2_EEEELb0EE6__callB8ue170006IJRZN11ToppingListC1EvEUlvE1_EEES5_DpOT_, symObjAddr: 0xB190, symBinAddr: 0x10000E070, symSize: 0x2C }
  - { offsetInCU: 0x3D7DE, offset: 0x3D7DE, size: 0x8, addend: 0x0, symName: __ZNSt3__117__compressed_pairIZN11ToppingListC1EvEUlvE1_NS_9allocatorIS2_EEE5firstB8ue170006Ev, symObjAddr: 0xB1BC, symBinAddr: 0x10000E09C, symSize: 0x24 }
  - { offsetInCU: 0x3D80A, offset: 0x3D80A, size: 0x8, addend: 0x0, symName: __ZZN11ToppingListC1EvENKUlvE1_clEv, symObjAddr: 0xB20C, symBinAddr: 0x10000E0EC, symSize: 0x3C }
  - { offsetInCU: 0x3D834, offset: 0x3D834, size: 0x8, addend: 0x0, symName: __ZN12SweetToppingC1ENSt3__112basic_stringIcNS0_11char_traitsIcEENS0_9allocatorIcEEEEi, symObjAddr: 0xB324, symBinAddr: 0x10000E204, symSize: 0x3C }
  - { offsetInCU: 0x3D87B, offset: 0x3D87B, size: 0x8, addend: 0x0, symName: __ZNSt3__110unique_ptrI12SweetToppingNS_14default_deleteIS1_EEEC1B8ue170006ILb1EvEEPS1_, symObjAddr: 0xB360, symBinAddr: 0x10000E240, symSize: 0x34 }
  - { offsetInCU: 0x3D8BE, offset: 0x3D8BE, size: 0x8, addend: 0x0, symName: __ZN12SweetToppingC2ENSt3__112basic_stringIcNS0_11char_traitsIcEENS0_9allocatorIcEEEEi, symObjAddr: 0xB394, symBinAddr: 0x10000E274, symSize: 0x8C }
  - { offsetInCU: 0x3D905, offset: 0x3D905, size: 0x8, addend: 0x0, symName: __ZNK12SweetTopping7getNameEv, symObjAddr: 0xB420, symBinAddr: 0x10000E300, symSize: 0x3C }
  - { offsetInCU: 0x3D92B, offset: 0x3D92B, size: 0x8, addend: 0x0, symName: __ZNK12SweetTopping7getTypeEv, symObjAddr: 0xB45C, symBinAddr: 0x10000E33C, symSize: 0x3C }
  - { offsetInCU: 0x3D951, offset: 0x3D951, size: 0x8, addend: 0x0, symName: __ZN12SweetToppingD1Ev, symObjAddr: 0xB498, symBinAddr: 0x10000E378, symSize: 0x2C }
  - { offsetInCU: 0x3D97D, offset: 0x3D97D, size: 0x8, addend: 0x0, symName: __ZN12SweetToppingD0Ev, symObjAddr: 0xB4C4, symBinAddr: 0x10000E3A4, symSize: 0x30 }
  - { offsetInCU: 0x3D9A9, offset: 0x3D9A9, size: 0x8, addend: 0x0, symName: __ZN12SweetToppingD2Ev, symObjAddr: 0xB4F4, symBinAddr: 0x10000E3D4, symSize: 0x48 }
  - { offsetInCU: 0x3D9D5, offset: 0x3D9D5, size: 0x8, addend: 0x0, symName: __ZNSt3__110unique_ptrI12SweetToppingNS_14default_deleteIS1_EEEC2B8ue170006ILb1EvEEPS1_, symObjAddr: 0xB53C, symBinAddr: 0x10000E41C, symSize: 0x44 }
  - { offsetInCU: 0x3DA18, offset: 0x3DA18, size: 0x8, addend: 0x0, symName: __ZNSt3__117__compressed_pairIP12SweetToppingNS_14default_deleteIS1_EEEC1B8ue170006IRS2_NS_16__value_init_tagEEEOT_OT0_, symObjAddr: 0xB580, symBinAddr: 0x10000E460, symSize: 0x3C }
  - { offsetInCU: 0x3DA70, offset: 0x3DA70, size: 0x8, addend: 0x0, symName: __ZNSt3__117__compressed_pairIP12SweetToppingNS_14default_deleteIS1_EEEC2B8ue170006IRS2_NS_16__value_init_tagEEEOT_OT0_, symObjAddr: 0xB5BC, symBinAddr: 0x10000E49C, symSize: 0x40 }
  - { offsetInCU: 0x3DAC8, offset: 0x3DAC8, size: 0x8, addend: 0x0, symName: __ZNSt3__122__compressed_pair_elemIP12SweetToppingLi0ELb0EEC2B8ue170006IRS2_vEEOT_, symObjAddr: 0xB5FC, symBinAddr: 0x10000E4DC, symSize: 0x24 }
  - { offsetInCU: 0x3DB0A, offset: 0x3DB0A, size: 0x8, addend: 0x0, symName: __ZNSt3__122__compressed_pair_elemINS_14default_deleteI12SweetToppingEELi1ELb1EEC2B8ue170006ENS_16__value_init_tagE, symObjAddr: 0xB620, symBinAddr: 0x10000E500, symSize: 0x14 }
  - { offsetInCU: 0x3DB3E, offset: 0x3DB3E, size: 0x8, addend: 0x0, symName: __ZNSt3__122__compressed_pair_elemIZN11ToppingListC1EvEUlvE1_Li0ELb1EE5__getB8ue170006Ev, symObjAddr: 0xB634, symBinAddr: 0x10000E514, symSize: 0x14 }
  - { offsetInCU: 0x3DB64, offset: 0x3DB64, size: 0x8, addend: 0x0, symName: __ZNSt3__18functionIFNS_10unique_ptrI12SweetToppingNS_14default_deleteIS2_EEEEvEED2Ev, symObjAddr: 0xB648, symBinAddr: 0x10000E528, symSize: 0x2C }
  - { offsetInCU: 0x3DB90, offset: 0x3DB90, size: 0x8, addend: 0x0, symName: __ZNSt3__110__function12__value_funcIFNS_10unique_ptrI12SweetToppingNS_14default_deleteIS3_EEEEvEED1B8ue170006Ev, symObjAddr: 0xB674, symBinAddr: 0x10000E554, symSize: 0x2C }
  - { offsetInCU: 0x3DBBA, offset: 0x3DBBA, size: 0x8, addend: 0x0, symName: __ZNSt3__110__function12__value_funcIFNS_10unique_ptrI12SweetToppingNS_14default_deleteIS3_EEEEvEED2B8ue170006Ev, symObjAddr: 0xB6A0, symBinAddr: 0x10000E580, symSize: 0x90 }
  - { offsetInCU: 0x3DBE4, offset: 0x3DBE4, size: 0x8, addend: 0x0, symName: __ZNSt3__18functionIFNS_10unique_ptrI12SweetToppingNS_14default_deleteIS2_EEEEvEEC2IZN11ToppingListC1EvEUlvE2_vEET_, symObjAddr: 0xB730, symBinAddr: 0x10000E610, symSize: 0x30 }
  - { offsetInCU: 0x3DC29, offset: 0x3DC29, size: 0x8, addend: 0x0, symName: __ZNSt3__110__function12__value_funcIFNS_10unique_ptrI12SweetToppingNS_14default_deleteIS3_EEEEvEEC1B8ue170006IZN11ToppingListC1EvEUlvE2_vEEOT_, symObjAddr: 0xB760, symBinAddr: 0x10000E640, symSize: 0x50 }
  - { offsetInCU: 0x3DC6C, offset: 0x3DC6C, size: 0x8, addend: 0x0, symName: __ZNSt3__19allocatorIZN11ToppingListC1EvEUlvE2_EC1B8ue170006Ev, symObjAddr: 0xB7B0, symBinAddr: 0x10000E690, symSize: 0x2C }
  - { offsetInCU: 0x3DC96, offset: 0x3DC96, size: 0x8, addend: 0x0, symName: __ZNSt3__110__function12__value_funcIFNS_10unique_ptrI12SweetToppingNS_14default_deleteIS3_EEEEvEEC1B8ue170006IZN11ToppingListC1EvEUlvE2_NS_9allocatorISB_EEEEOT_RKT0_, symObjAddr: 0xB7DC, symBinAddr: 0x10000E6BC, symSize: 0x3C }
  - { offsetInCU: 0x3DCF0, offset: 0x3DCF0, size: 0x8, addend: 0x0, symName: __ZNSt3__19allocatorIZN11ToppingListC1EvEUlvE2_EC2B8ue170006Ev, symObjAddr: 0xB818, symBinAddr: 0x10000E6F8, symSize: 0x2C }
  - { offsetInCU: 0x3DD1A, offset: 0x3DD1A, size: 0x8, addend: 0x0, symName: __ZNSt3__116__non_trivial_ifILb1ENS_9allocatorIZN11ToppingListC1EvEUlvE2_EEEC2B8ue170006Ev, symObjAddr: 0xB844, symBinAddr: 0x10000E724, symSize: 0x14 }
  - { offsetInCU: 0x3DD44, offset: 0x3DD44, size: 0x8, addend: 0x0, symName: __ZNSt3__110__function12__value_funcIFNS_10unique_ptrI12SweetToppingNS_14default_deleteIS3_EEEEvEEC2B8ue170006IZN11ToppingListC1EvEUlvE2_NS_9allocatorISB_EEEEOT_RKT0_, symObjAddr: 0xB858, symBinAddr: 0x10000E738, symSize: 0x94 }
  - { offsetInCU: 0x3DDF1, offset: 0x3DDF1, size: 0x8, addend: 0x0, symName: __ZNSt3__19allocatorINS_10__function6__funcIZN11ToppingListC1EvEUlvE2_NS0_IS4_EEFNS_10unique_ptrI12SweetToppingNS_14default_deleteIS7_EEEEvEEEEC1B8ue170006IS4_EERKNS0_IT_EE, symObjAddr: 0xB904, symBinAddr: 0x10000E7E4, symSize: 0x34 }
  - { offsetInCU: 0x3DE34, offset: 0x3DE34, size: 0x8, addend: 0x0, symName: __ZNSt3__19allocatorIZN11ToppingListC1EvEUlvE2_EC1B8ue170006INS_10__function6__funcIS2_S3_FNS_10unique_ptrI12SweetToppingNS_14default_deleteIS8_EEEEvEEEEERKNS0_IT_EE, symObjAddr: 0xB938, symBinAddr: 0x10000E818, symSize: 0x34 }
  - { offsetInCU: 0x3DE71, offset: 0x3DE71, size: 0x8, addend: 0x0, symName: __ZNSt3__110__function6__funcIZN11ToppingListC1EvEUlvE2_NS_9allocatorIS3_EEFNS_10unique_ptrI12SweetToppingNS_14default_deleteIS7_EEEEvEEC1B8ue170006EOS3_OS5_, symObjAddr: 0xB96C, symBinAddr: 0x10000E84C, symSize: 0x3C }
  - { offsetInCU: 0x3DEB9, offset: 0x3DEB9, size: 0x8, addend: 0x0, symName: __ZNSt3__19allocatorINS_10__function6__funcIZN11ToppingListC1EvEUlvE2_NS0_IS4_EEFNS_10unique_ptrI12SweetToppingNS_14default_deleteIS7_EEEEvEEEEC2B8ue170006IS4_EERKNS0_IT_EE, symObjAddr: 0xB9A8, symBinAddr: 0x10000E888, symSize: 0x30 }
  - { offsetInCU: 0x3DEF6, offset: 0x3DEF6, size: 0x8, addend: 0x0, symName: __ZNSt3__116__non_trivial_ifILb1ENS_9allocatorINS_10__function6__funcIZN11ToppingListC1EvEUlvE2_NS1_IS5_EEFNS_10unique_ptrI12SweetToppingNS_14default_deleteIS8_EEEEvEEEEEEC2B8ue170006Ev, symObjAddr: 0xB9D8, symBinAddr: 0x10000E8B8, symSize: 0x14 }
  - { offsetInCU: 0x3DF20, offset: 0x3DF20, size: 0x8, addend: 0x0, symName: __ZNSt3__19allocatorIZN11ToppingListC1EvEUlvE2_EC2B8ue170006INS_10__function6__funcIS2_S3_FNS_10unique_ptrI12SweetToppingNS_14default_deleteIS8_EEEEvEEEEERKNS0_IT_EE, symObjAddr: 0xB9EC, symBinAddr: 0x10000E8CC, symSize: 0x30 }
  - { offsetInCU: 0x3DF5D, offset: 0x3DF5D, size: 0x8, addend: 0x0, symName: __ZNSt3__110__function6__funcIZN11ToppingListC1EvEUlvE2_NS_9allocatorIS3_EEFNS_10unique_ptrI12SweetToppingNS_14default_deleteIS7_EEEEvEEC2B8ue170006EOS3_OS5_, symObjAddr: 0xBA1C, symBinAddr: 0x10000E8FC, symSize: 0x88 }
  - { offsetInCU: 0x3DFA5, offset: 0x3DFA5, size: 0x8, addend: 0x0, symName: __ZNSt3__110__function12__alloc_funcIZN11ToppingListC1EvEUlvE2_NS_9allocatorIS3_EEFNS_10unique_ptrI12SweetToppingNS_14default_deleteIS7_EEEEvEEC1B8ue170006EOS3_OS5_, symObjAddr: 0xBAA4, symBinAddr: 0x10000E984, symSize: 0x3C }
  - { offsetInCU: 0x3DFEB, offset: 0x3DFEB, size: 0x8, addend: 0x0, symName: __ZNSt3__110__function6__funcIZN11ToppingListC1EvEUlvE2_NS_9allocatorIS3_EEFNS_10unique_ptrI12SweetToppingNS_14default_deleteIS7_EEEEvEED1Ev, symObjAddr: 0xBAE0, symBinAddr: 0x10000E9C0, symSize: 0x2C }
  - { offsetInCU: 0x3E018, offset: 0x3E018, size: 0x8, addend: 0x0, symName: __ZNSt3__110__function6__funcIZN11ToppingListC1EvEUlvE2_NS_9allocatorIS3_EEFNS_10unique_ptrI12SweetToppingNS_14default_deleteIS7_EEEEvEED0Ev, symObjAddr: 0xBB0C, symBinAddr: 0x10000E9EC, symSize: 0x30 }
  - { offsetInCU: 0x3E045, offset: 0x3E045, size: 0x8, addend: 0x0, symName: __ZNKSt3__110__function6__funcIZN11ToppingListC1EvEUlvE2_NS_9allocatorIS3_EEFNS_10unique_ptrI12SweetToppingNS_14default_deleteIS7_EEEEvEE7__cloneEv, symObjAddr: 0xBB3C, symBinAddr: 0x10000EA1C, symSize: 0xFC }
  - { offsetInCU: 0x3E097, offset: 0x3E097, size: 0x8, addend: 0x0, symName: __ZNKSt3__110__function6__funcIZN11ToppingListC1EvEUlvE2_NS_9allocatorIS3_EEFNS_10unique_ptrI12SweetToppingNS_14default_deleteIS7_EEEEvEE7__cloneEPNS0_6__baseISB_EE, symObjAddr: 0xBC38, symBinAddr: 0x10000EB18, symSize: 0x58 }
  - { offsetInCU: 0x3E0CE, offset: 0x3E0CE, size: 0x8, addend: 0x0, symName: __ZNSt3__110__function6__funcIZN11ToppingListC1EvEUlvE2_NS_9allocatorIS3_EEFNS_10unique_ptrI12SweetToppingNS_14default_deleteIS7_EEEEvEE7destroyEv, symObjAddr: 0xBC90, symBinAddr: 0x10000EB70, symSize: 0x28 }
  - { offsetInCU: 0x3E0F6, offset: 0x3E0F6, size: 0x8, addend: 0x0, symName: __ZNSt3__110__function6__funcIZN11ToppingListC1EvEUlvE2_NS_9allocatorIS3_EEFNS_10unique_ptrI12SweetToppingNS_14default_deleteIS7_EEEEvEE18destroy_deallocateEv, symObjAddr: 0xBCB8, symBinAddr: 0x10000EB98, symSize: 0x58 }
  - { offsetInCU: 0x3E139, offset: 0x3E139, size: 0x8, addend: 0x0, symName: __ZNSt3__110__function6__funcIZN11ToppingListC1EvEUlvE2_NS_9allocatorIS3_EEFNS_10unique_ptrI12SweetToppingNS_14default_deleteIS7_EEEEvEEclEv, symObjAddr: 0xBD10, symBinAddr: 0x10000EBF0, symSize: 0x30 }
  - { offsetInCU: 0x3E161, offset: 0x3E161, size: 0x8, addend: 0x0, symName: __ZNKSt3__110__function6__funcIZN11ToppingListC1EvEUlvE2_NS_9allocatorIS3_EEFNS_10unique_ptrI12SweetToppingNS_14default_deleteIS7_EEEEvEE6targetERKSt9type_info, symObjAddr: 0xBD40, symBinAddr: 0x10000EC20, symSize: 0x60 }
  - { offsetInCU: 0x3E198, offset: 0x3E198, size: 0x8, addend: 0x0, symName: __ZNKSt3__110__function6__funcIZN11ToppingListC1EvEUlvE2_NS_9allocatorIS3_EEFNS_10unique_ptrI12SweetToppingNS_14default_deleteIS7_EEEEvEE11target_typeEv, symObjAddr: 0xBDA0, symBinAddr: 0x10000EC80, symSize: 0x18 }
  - { offsetInCU: 0x3E1C0, offset: 0x3E1C0, size: 0x8, addend: 0x0, symName: __ZNSt3__110__function12__alloc_funcIZN11ToppingListC1EvEUlvE2_NS_9allocatorIS3_EEFNS_10unique_ptrI12SweetToppingNS_14default_deleteIS7_EEEEvEEC2B8ue170006EOS3_OS5_, symObjAddr: 0xBDB8, symBinAddr: 0x10000EC98, symSize: 0x5C }
  - { offsetInCU: 0x3E206, offset: 0x3E206, size: 0x8, addend: 0x0, symName: __ZNSt3__117__compressed_pairIZN11ToppingListC1EvEUlvE2_NS_9allocatorIS2_EEEC1B8ue170006IJOS2_EJOS4_EEENS_21piecewise_construct_tENS_5tupleIJDpT_EEENSA_IJDpT0_EEE, symObjAddr: 0xBE6C, symBinAddr: 0x10000ED4C, symSize: 0x3C }
  - { offsetInCU: 0x3E270, offset: 0x3E270, size: 0x8, addend: 0x0, symName: __ZNSt3__15tupleIJOZN11ToppingListC1EvEUlvE2_EEC1B8ue170006IJS2_ELi0EEEDpOT_, symObjAddr: 0xBEA8, symBinAddr: 0x10000ED88, symSize: 0x34 }
  - { offsetInCU: 0x3E2BA, offset: 0x3E2BA, size: 0x8, addend: 0x0, symName: __ZNSt3__15tupleIJOZN11ToppingListC1EvEUlvE2_EEC2B8ue170006IJS2_ELi0EEEDpOT_, symObjAddr: 0xBEDC, symBinAddr: 0x10000EDBC, symSize: 0x34 }
  - { offsetInCU: 0x3E304, offset: 0x3E304, size: 0x8, addend: 0x0, symName: __ZNSt3__112__tuple_implINS_15__tuple_indicesIJLm0EEEEJOZN11ToppingListC1EvEUlvE2_EEC1B8ue170006IJLm0EEJS5_EJEJEJS4_EEENS1_IJXspT_EEEENS_13__tuple_typesIJDpT0_EEENS1_IJXspT1_EEEENS9_IJDpT2_EEEDpOT3_, symObjAddr: 0xBF10, symBinAddr: 0x10000EDF0, symSize: 0x34 }
  - { offsetInCU: 0x3E399, offset: 0x3E399, size: 0x8, addend: 0x0, symName: __ZNSt3__112__tuple_implINS_15__tuple_indicesIJLm0EEEEJOZN11ToppingListC1EvEUlvE2_EEC2B8ue170006IJLm0EEJS5_EJEJEJS4_EEENS1_IJXspT_EEEENS_13__tuple_typesIJDpT0_EEENS1_IJXspT1_EEEENS9_IJDpT2_EEEDpOT3_, symObjAddr: 0xBF44, symBinAddr: 0x10000EE24, symSize: 0x34 }
  - { offsetInCU: 0x3E42E, offset: 0x3E42E, size: 0x8, addend: 0x0, symName: __ZNSt3__112__tuple_leafILm0EOZN11ToppingListC1EvEUlvE2_Lb0EEC2B8ue170006IS2_vEEOT_, symObjAddr: 0xBF78, symBinAddr: 0x10000EE58, symSize: 0x20 }
  - { offsetInCU: 0x3E471, offset: 0x3E471, size: 0x8, addend: 0x0, symName: __ZNSt3__15tupleIJONS_9allocatorIZN11ToppingListC1EvEUlvE2_EEEEC1B8ue170006IJS4_ELi0EEEDpOT_, symObjAddr: 0xBF98, symBinAddr: 0x10000EE78, symSize: 0x34 }
  - { offsetInCU: 0x3E4BB, offset: 0x3E4BB, size: 0x8, addend: 0x0, symName: __ZNSt3__15tupleIJONS_9allocatorIZN11ToppingListC1EvEUlvE2_EEEEC2B8ue170006IJS4_ELi0EEEDpOT_, symObjAddr: 0xBFCC, symBinAddr: 0x10000EEAC, symSize: 0x34 }
  - { offsetInCU: 0x3E505, offset: 0x3E505, size: 0x8, addend: 0x0, symName: __ZNSt3__112__tuple_implINS_15__tuple_indicesIJLm0EEEEJONS_9allocatorIZN11ToppingListC1EvEUlvE2_EEEEC1B8ue170006IJLm0EEJS7_EJEJEJS6_EEENS1_IJXspT_EEEENS_13__tuple_typesIJDpT0_EEENS1_IJXspT1_EEEENSB_IJDpT2_EEEDpOT3_, symObjAddr: 0xC000, symBinAddr: 0x10000EEE0, symSize: 0x34 }
  - { offsetInCU: 0x3E59A, offset: 0x3E59A, size: 0x8, addend: 0x0, symName: __ZNSt3__112__tuple_implINS_15__tuple_indicesIJLm0EEEEJONS_9allocatorIZN11ToppingListC1EvEUlvE2_EEEEC2B8ue170006IJLm0EEJS7_EJEJEJS6_EEENS1_IJXspT_EEEENS_13__tuple_typesIJDpT0_EEENS1_IJXspT1_EEEENSB_IJDpT2_EEEDpOT3_, symObjAddr: 0xC034, symBinAddr: 0x10000EF14, symSize: 0x34 }
  - { offsetInCU: 0x3E62F, offset: 0x3E62F, size: 0x8, addend: 0x0, symName: __ZNSt3__112__tuple_leafILm0EONS_9allocatorIZN11ToppingListC1EvEUlvE2_EELb0EEC2B8ue170006IS4_vEEOT_, symObjAddr: 0xC068, symBinAddr: 0x10000EF48, symSize: 0x20 }
  - { offsetInCU: 0x3E672, offset: 0x3E672, size: 0x8, addend: 0x0, symName: __ZNSt3__117__compressed_pairIZN11ToppingListC1EvEUlvE2_NS_9allocatorIS2_EEEC2B8ue170006IJOS2_EJOS4_EEENS_21piecewise_construct_tENS_5tupleIJDpT_EEENSA_IJDpT0_EEE, symObjAddr: 0xC088, symBinAddr: 0x10000EF68, symSize: 0x54 }
  - { offsetInCU: 0x3E6DC, offset: 0x3E6DC, size: 0x8, addend: 0x0, symName: __ZNSt3__122__compressed_pair_elemIZN11ToppingListC1EvEUlvE2_Li0ELb1EEC2B8ue170006IJOS2_EJLm0EEEENS_21piecewise_construct_tENS_5tupleIJDpT_EEENS_15__tuple_indicesIJXspT0_EEEE, symObjAddr: 0xC0DC, symBinAddr: 0x10000EFBC, symSize: 0x38 }
  - { offsetInCU: 0x3E73F, offset: 0x3E73F, size: 0x8, addend: 0x0, symName: __ZNSt3__122__compressed_pair_elemINS_9allocatorIZN11ToppingListC1EvEUlvE2_EELi1ELb1EEC2B8ue170006IJOS4_EJLm0EEEENS_21piecewise_construct_tENS_5tupleIJDpT_EEENS_15__tuple_indicesIJXspT0_EEEE, symObjAddr: 0xC114, symBinAddr: 0x10000EFF4, symSize: 0x38 }
  - { offsetInCU: 0x3E7A2, offset: 0x3E7A2, size: 0x8, addend: 0x0, symName: __ZNSt3__112__tuple_leafILm0EOZN11ToppingListC1EvEUlvE2_Lb0EE3getB8ue170006Ev, symObjAddr: 0xC170, symBinAddr: 0x10000F050, symSize: 0x18 }
  - { offsetInCU: 0x3E7C8, offset: 0x3E7C8, size: 0x8, addend: 0x0, symName: __ZNSt3__112__tuple_leafILm0EONS_9allocatorIZN11ToppingListC1EvEUlvE2_EELb0EE3getB8ue170006Ev, symObjAddr: 0xC1AC, symBinAddr: 0x10000F08C, symSize: 0x18 }
  - { offsetInCU: 0x3E7EE, offset: 0x3E7EE, size: 0x8, addend: 0x0, symName: __ZNSt3__110__function6__funcIZN11ToppingListC1EvEUlvE2_NS_9allocatorIS3_EEFNS_10unique_ptrI12SweetToppingNS_14default_deleteIS7_EEEEvEED2Ev, symObjAddr: 0xC1C4, symBinAddr: 0x10000F0A4, symSize: 0x2C }
  - { offsetInCU: 0x3E81B, offset: 0x3E81B, size: 0x8, addend: 0x0, symName: __ZNKSt3__110__function12__alloc_funcIZN11ToppingListC1EvEUlvE2_NS_9allocatorIS3_EEFNS_10unique_ptrI12SweetToppingNS_14default_deleteIS7_EEEEvEE15__get_allocatorB8ue170006Ev, symObjAddr: 0xC1F0, symBinAddr: 0x10000F0D0, symSize: 0x24 }
  - { offsetInCU: 0x3E841, offset: 0x3E841, size: 0x8, addend: 0x0, symName: __ZNSt3__19allocatorINS_10__function6__funcIZN11ToppingListC1EvEUlvE2_NS0_IS4_EEFNS_10unique_ptrI12SweetToppingNS_14default_deleteIS7_EEEEvEEEE8allocateB8ue170006Em, symObjAddr: 0xC214, symBinAddr: 0x10000F0F4, symSize: 0x58 }
  - { offsetInCU: 0x3E887, offset: 0x3E887, size: 0x8, addend: 0x0, symName: __ZNSt3__122__allocator_destructorINS_9allocatorINS_10__function6__funcIZN11ToppingListC1EvEUlvE2_NS1_IS5_EEFNS_10unique_ptrI12SweetToppingNS_14default_deleteIS8_EEEEvEEEEEEC1B8ue170006ERSE_m, symObjAddr: 0xC26C, symBinAddr: 0x10000F14C, symSize: 0x3C }
  - { offsetInCU: 0x3E975, offset: 0x3E975, size: 0x8, addend: 0x0, symName: __ZNSt3__110unique_ptrINS_10__function6__funcIZN11ToppingListC1EvEUlvE2_NS_9allocatorIS4_EEFNS0_I12SweetToppingNS_14default_deleteIS7_EEEEvEEENS_22__allocator_destructorINS5_ISC_EEEEEC1B8ue170006ILb1EvEEPSC_NS_16__dependent_typeINS_27__unique_ptr_deleter_sfinaeISF_EEXT_EE20__good_rval_ref_typeE, symObjAddr: 0xC2A8, symBinAddr: 0x10000F188, symSize: 0x3C }
  - { offsetInCU: 0x3E9C6, offset: 0x3E9C6, size: 0x8, addend: 0x0, symName: __ZNKSt3__110unique_ptrINS_10__function6__funcIZN11ToppingListC1EvEUlvE2_NS_9allocatorIS4_EEFNS0_I12SweetToppingNS_14default_deleteIS7_EEEEvEEENS_22__allocator_destructorINS5_ISC_EEEEE3getB8ue170006Ev, symObjAddr: 0xC2E4, symBinAddr: 0x10000F1C4, symSize: 0x28 }
  - { offsetInCU: 0x3E9EC, offset: 0x3E9EC, size: 0x8, addend: 0x0, symName: __ZNKSt3__110__function12__alloc_funcIZN11ToppingListC1EvEUlvE2_NS_9allocatorIS3_EEFNS_10unique_ptrI12SweetToppingNS_14default_deleteIS7_EEEEvEE8__targetB8ue170006Ev, symObjAddr: 0xC30C, symBinAddr: 0x10000F1EC, symSize: 0x24 }
  - { offsetInCU: 0x3EA12, offset: 0x3EA12, size: 0x8, addend: 0x0, symName: __ZNSt3__110__function6__funcIZN11ToppingListC1EvEUlvE2_NS_9allocatorIS3_EEFNS_10unique_ptrI12SweetToppingNS_14default_deleteIS7_EEEEvEEC1B8ue170006ERKS3_OS5_, symObjAddr: 0xC330, symBinAddr: 0x10000F210, symSize: 0x3C }
  - { offsetInCU: 0x3EA5A, offset: 0x3EA5A, size: 0x8, addend: 0x0, symName: __ZNSt3__110unique_ptrINS_10__function6__funcIZN11ToppingListC1EvEUlvE2_NS_9allocatorIS4_EEFNS0_I12SweetToppingNS_14default_deleteIS7_EEEEvEEENS_22__allocator_destructorINS5_ISC_EEEEE7releaseB8ue170006Ev, symObjAddr: 0xC36C, symBinAddr: 0x10000F24C, symSize: 0x44 }
  - { offsetInCU: 0x3EA8F, offset: 0x3EA8F, size: 0x8, addend: 0x0, symName: __ZNSt3__110unique_ptrINS_10__function6__funcIZN11ToppingListC1EvEUlvE2_NS_9allocatorIS4_EEFNS0_I12SweetToppingNS_14default_deleteIS7_EEEEvEEENS_22__allocator_destructorINS5_ISC_EEEEED1B8ue170006Ev, symObjAddr: 0xC3B0, symBinAddr: 0x10000F290, symSize: 0x2C }
  - { offsetInCU: 0x3EAB9, offset: 0x3EAB9, size: 0x8, addend: 0x0, symName: __ZNKSt3__117__compressed_pairIZN11ToppingListC1EvEUlvE2_NS_9allocatorIS2_EEE6secondB8ue170006Ev, symObjAddr: 0xC3DC, symBinAddr: 0x10000F2BC, symSize: 0x24 }
  - { offsetInCU: 0x3EADF, offset: 0x3EADF, size: 0x8, addend: 0x0, symName: __ZNKSt3__122__compressed_pair_elemINS_9allocatorIZN11ToppingListC1EvEUlvE2_EELi1ELb1EE5__getB8ue170006Ev, symObjAddr: 0xC400, symBinAddr: 0x10000F2E0, symSize: 0x14 }
  - { offsetInCU: 0x3EB11, offset: 0x3EB11, size: 0x8, addend: 0x0, symName: __ZNSt3__116allocator_traitsINS_9allocatorINS_10__function6__funcIZN11ToppingListC1EvEUlvE2_NS1_IS5_EEFNS_10unique_ptrI12SweetToppingNS_14default_deleteIS8_EEEEvEEEEEE8max_sizeB8ue170006ISE_vEEmRKSE_, symObjAddr: 0xC414, symBinAddr: 0x10000F2F4, symSize: 0x24 }
  - { offsetInCU: 0x3EB3F, offset: 0x3EB3F, size: 0x8, addend: 0x0, symName: __ZNKSt3__19allocatorINS_10__function6__funcIZN11ToppingListC1EvEUlvE2_NS0_IS4_EEFNS_10unique_ptrI12SweetToppingNS_14default_deleteIS7_EEEEvEEEE8max_sizeB8ue170006Ev, symObjAddr: 0xC438, symBinAddr: 0x10000F318, symSize: 0x14 }
  - { offsetInCU: 0x3EB65, offset: 0x3EB65, size: 0x8, addend: 0x0, symName: __ZNSt3__122__allocator_destructorINS_9allocatorINS_10__function6__funcIZN11ToppingListC1EvEUlvE2_NS1_IS5_EEFNS_10unique_ptrI12SweetToppingNS_14default_deleteIS8_EEEEvEEEEEEC2B8ue170006ERSE_m, symObjAddr: 0xC44C, symBinAddr: 0x10000F32C, symSize: 0x2C }
  - { offsetInCU: 0x3EBAB, offset: 0x3EBAB, size: 0x8, addend: 0x0, symName: __ZNSt3__110unique_ptrINS_10__function6__funcIZN11ToppingListC1EvEUlvE2_NS_9allocatorIS4_EEFNS0_I12SweetToppingNS_14default_deleteIS7_EEEEvEEENS_22__allocator_destructorINS5_ISC_EEEEEC2B8ue170006ILb1EvEEPSC_NS_16__dependent_typeINS_27__unique_ptr_deleter_sfinaeISF_EEXT_EE20__good_rval_ref_typeE, symObjAddr: 0xC478, symBinAddr: 0x10000F358, symSize: 0x48 }
  - { offsetInCU: 0x3EBFC, offset: 0x3EBFC, size: 0x8, addend: 0x0, symName: __ZNSt3__117__compressed_pairIPNS_10__function6__funcIZN11ToppingListC1EvEUlvE2_NS_9allocatorIS4_EEFNS_10unique_ptrI12SweetToppingNS_14default_deleteIS8_EEEEvEEENS_22__allocator_destructorINS5_ISD_EEEEEC1B8ue170006IRSE_SH_EEOT_OT0_, symObjAddr: 0xC4C0, symBinAddr: 0x10000F3A0, symSize: 0x3C }
  - { offsetInCU: 0x3EC54, offset: 0x3EC54, size: 0x8, addend: 0x0, symName: __ZNSt3__117__compressed_pairIPNS_10__function6__funcIZN11ToppingListC1EvEUlvE2_NS_9allocatorIS4_EEFNS_10unique_ptrI12SweetToppingNS_14default_deleteIS8_EEEEvEEENS_22__allocator_destructorINS5_ISD_EEEEEC2B8ue170006IRSE_SH_EEOT_OT0_, symObjAddr: 0xC4FC, symBinAddr: 0x10000F3DC, symSize: 0x48 }
  - { offsetInCU: 0x3ECAC, offset: 0x3ECAC, size: 0x8, addend: 0x0, symName: __ZNSt3__122__compressed_pair_elemIPNS_10__function6__funcIZN11ToppingListC1EvEUlvE2_NS_9allocatorIS4_EEFNS_10unique_ptrI12SweetToppingNS_14default_deleteIS8_EEEEvEEELi0ELb0EEC2B8ue170006IRSE_vEEOT_, symObjAddr: 0xC544, symBinAddr: 0x10000F424, symSize: 0x24 }
  - { offsetInCU: 0x3ECEE, offset: 0x3ECEE, size: 0x8, addend: 0x0, symName: __ZNSt3__122__compressed_pair_elemINS_22__allocator_destructorINS_9allocatorINS_10__function6__funcIZN11ToppingListC1EvEUlvE2_NS2_IS6_EEFNS_10unique_ptrI12SweetToppingNS_14default_deleteIS9_EEEEvEEEEEEELi1ELb0EEC2B8ue170006ISG_vEEOT_, symObjAddr: 0xC568, symBinAddr: 0x10000F448, symSize: 0x24 }
  - { offsetInCU: 0x3ED30, offset: 0x3ED30, size: 0x8, addend: 0x0, symName: __ZNKSt3__117__compressed_pairIPNS_10__function6__funcIZN11ToppingListC1EvEUlvE2_NS_9allocatorIS4_EEFNS_10unique_ptrI12SweetToppingNS_14default_deleteIS8_EEEEvEEENS_22__allocator_destructorINS5_ISD_EEEEE5firstB8ue170006Ev, symObjAddr: 0xC58C, symBinAddr: 0x10000F46C, symSize: 0x24 }
  - { offsetInCU: 0x3ED56, offset: 0x3ED56, size: 0x8, addend: 0x0, symName: __ZNKSt3__122__compressed_pair_elemIPNS_10__function6__funcIZN11ToppingListC1EvEUlvE2_NS_9allocatorIS4_EEFNS_10unique_ptrI12SweetToppingNS_14default_deleteIS8_EEEEvEEELi0ELb0EE5__getB8ue170006Ev, symObjAddr: 0xC5B0, symBinAddr: 0x10000F490, symSize: 0x14 }
  - { offsetInCU: 0x3ED7C, offset: 0x3ED7C, size: 0x8, addend: 0x0, symName: __ZNKSt3__117__compressed_pairIZN11ToppingListC1EvEUlvE2_NS_9allocatorIS2_EEE5firstB8ue170006Ev, symObjAddr: 0xC5C4, symBinAddr: 0x10000F4A4, symSize: 0x24 }
  - { offsetInCU: 0x3EDA2, offset: 0x3EDA2, size: 0x8, addend: 0x0, symName: __ZNKSt3__122__compressed_pair_elemIZN11ToppingListC1EvEUlvE2_Li0ELb1EE5__getB8ue170006Ev, symObjAddr: 0xC5E8, symBinAddr: 0x10000F4C8, symSize: 0x14 }
  - { offsetInCU: 0x3EDC8, offset: 0x3EDC8, size: 0x8, addend: 0x0, symName: __ZNSt3__110__function6__funcIZN11ToppingListC1EvEUlvE2_NS_9allocatorIS3_EEFNS_10unique_ptrI12SweetToppingNS_14default_deleteIS7_EEEEvEEC2B8ue170006ERKS3_OS5_, symObjAddr: 0xC5FC, symBinAddr: 0x10000F4DC, symSize: 0x88 }
  - { offsetInCU: 0x3EE10, offset: 0x3EE10, size: 0x8, addend: 0x0, symName: __ZNSt3__110__function12__alloc_funcIZN11ToppingListC1EvEUlvE2_NS_9allocatorIS3_EEFNS_10unique_ptrI12SweetToppingNS_14default_deleteIS7_EEEEvEEC1B8ue170006ERKS3_OS5_, symObjAddr: 0xC684, symBinAddr: 0x10000F564, symSize: 0x3C }
  - { offsetInCU: 0x3EE56, offset: 0x3EE56, size: 0x8, addend: 0x0, symName: __ZNSt3__110__function12__alloc_funcIZN11ToppingListC1EvEUlvE2_NS_9allocatorIS3_EEFNS_10unique_ptrI12SweetToppingNS_14default_deleteIS7_EEEEvEEC2B8ue170006ERKS3_OS5_, symObjAddr: 0xC6C0, symBinAddr: 0x10000F5A0, symSize: 0x5C }
  - { offsetInCU: 0x3EE9C, offset: 0x3EE9C, size: 0x8, addend: 0x0, symName: __ZNSt3__117__compressed_pairIZN11ToppingListC1EvEUlvE2_NS_9allocatorIS2_EEEC1B8ue170006IJRKS2_EJOS4_EEENS_21piecewise_construct_tENS_5tupleIJDpT_EEENSB_IJDpT0_EEE, symObjAddr: 0xC748, symBinAddr: 0x10000F628, symSize: 0x3C }
  - { offsetInCU: 0x3EF06, offset: 0x3EF06, size: 0x8, addend: 0x0, symName: __ZNSt3__15tupleIJRKZN11ToppingListC1EvEUlvE2_EEC1B8ue170006INS_4_AndELi0EEES4_, symObjAddr: 0xC784, symBinAddr: 0x10000F664, symSize: 0x34 }
  - { offsetInCU: 0x3EF4E, offset: 0x3EF4E, size: 0x8, addend: 0x0, symName: __ZNSt3__15tupleIJRKZN11ToppingListC1EvEUlvE2_EEC2B8ue170006INS_4_AndELi0EEES4_, symObjAddr: 0xC7B8, symBinAddr: 0x10000F698, symSize: 0x34 }
  - { offsetInCU: 0x3EF96, offset: 0x3EF96, size: 0x8, addend: 0x0, symName: __ZNSt3__112__tuple_implINS_15__tuple_indicesIJLm0EEEEJRKZN11ToppingListC1EvEUlvE2_EEC1B8ue170006IJLm0EEJS6_EJEJEJS6_EEENS1_IJXspT_EEEENS_13__tuple_typesIJDpT0_EEENS1_IJXspT1_EEEENSA_IJDpT2_EEEDpOT3_, symObjAddr: 0xC7EC, symBinAddr: 0x10000F6CC, symSize: 0x34 }
  - { offsetInCU: 0x3F02B, offset: 0x3F02B, size: 0x8, addend: 0x0, symName: __ZNSt3__112__tuple_implINS_15__tuple_indicesIJLm0EEEEJRKZN11ToppingListC1EvEUlvE2_EEC2B8ue170006IJLm0EEJS6_EJEJEJS6_EEENS1_IJXspT_EEEENS_13__tuple_typesIJDpT0_EEENS1_IJXspT1_EEEENSA_IJDpT2_EEEDpOT3_, symObjAddr: 0xC820, symBinAddr: 0x10000F700, symSize: 0x34 }
  - { offsetInCU: 0x3F0C0, offset: 0x3F0C0, size: 0x8, addend: 0x0, symName: __ZNSt3__112__tuple_leafILm0ERKZN11ToppingListC1EvEUlvE2_Lb0EEC2B8ue170006IS4_vEEOT_, symObjAddr: 0xC854, symBinAddr: 0x10000F734, symSize: 0x20 }
  - { offsetInCU: 0x3F103, offset: 0x3F103, size: 0x8, addend: 0x0, symName: __ZNSt3__117__compressed_pairIZN11ToppingListC1EvEUlvE2_NS_9allocatorIS2_EEEC2B8ue170006IJRKS2_EJOS4_EEENS_21piecewise_construct_tENS_5tupleIJDpT_EEENSB_IJDpT0_EEE, symObjAddr: 0xC874, symBinAddr: 0x10000F754, symSize: 0x54 }
  - { offsetInCU: 0x3F16D, offset: 0x3F16D, size: 0x8, addend: 0x0, symName: __ZNSt3__122__compressed_pair_elemIZN11ToppingListC1EvEUlvE2_Li0ELb1EEC2B8ue170006IJRKS2_EJLm0EEEENS_21piecewise_construct_tENS_5tupleIJDpT_EEENS_15__tuple_indicesIJXspT0_EEEE, symObjAddr: 0xC8C8, symBinAddr: 0x10000F7A8, symSize: 0x38 }
  - { offsetInCU: 0x3F1D0, offset: 0x3F1D0, size: 0x8, addend: 0x0, symName: __ZNSt3__112__tuple_leafILm0ERKZN11ToppingListC1EvEUlvE2_Lb0EE3getB8ue170006Ev, symObjAddr: 0xC924, symBinAddr: 0x10000F804, symSize: 0x18 }
  - { offsetInCU: 0x3F1F6, offset: 0x3F1F6, size: 0x8, addend: 0x0, symName: __ZNSt3__117__compressed_pairIPNS_10__function6__funcIZN11ToppingListC1EvEUlvE2_NS_9allocatorIS4_EEFNS_10unique_ptrI12SweetToppingNS_14default_deleteIS8_EEEEvEEENS_22__allocator_destructorINS5_ISD_EEEEE5firstB8ue170006Ev, symObjAddr: 0xC93C, symBinAddr: 0x10000F81C, symSize: 0x24 }
  - { offsetInCU: 0x3F21C, offset: 0x3F21C, size: 0x8, addend: 0x0, symName: __ZNSt3__122__compressed_pair_elemIPNS_10__function6__funcIZN11ToppingListC1EvEUlvE2_NS_9allocatorIS4_EEFNS_10unique_ptrI12SweetToppingNS_14default_deleteIS8_EEEEvEEELi0ELb0EE5__getB8ue170006Ev, symObjAddr: 0xC960, symBinAddr: 0x10000F840, symSize: 0x14 }
  - { offsetInCU: 0x3F242, offset: 0x3F242, size: 0x8, addend: 0x0, symName: __ZNSt3__110unique_ptrINS_10__function6__funcIZN11ToppingListC1EvEUlvE2_NS_9allocatorIS4_EEFNS0_I12SweetToppingNS_14default_deleteIS7_EEEEvEEENS_22__allocator_destructorINS5_ISC_EEEEED2B8ue170006Ev, symObjAddr: 0xC974, symBinAddr: 0x10000F854, symSize: 0x30 }
  - { offsetInCU: 0x3F26C, offset: 0x3F26C, size: 0x8, addend: 0x0, symName: __ZNSt3__110unique_ptrINS_10__function6__funcIZN11ToppingListC1EvEUlvE2_NS_9allocatorIS4_EEFNS0_I12SweetToppingNS_14default_deleteIS7_EEEEvEEENS_22__allocator_destructorINS5_ISC_EEEEE5resetB8ue170006EPSC_, symObjAddr: 0xC9A4, symBinAddr: 0x10000F884, symSize: 0x78 }
  - { offsetInCU: 0x3F2B0, offset: 0x3F2B0, size: 0x8, addend: 0x0, symName: __ZNSt3__117__compressed_pairIPNS_10__function6__funcIZN11ToppingListC1EvEUlvE2_NS_9allocatorIS4_EEFNS_10unique_ptrI12SweetToppingNS_14default_deleteIS8_EEEEvEEENS_22__allocator_destructorINS5_ISD_EEEEE6secondB8ue170006Ev, symObjAddr: 0xCA1C, symBinAddr: 0x10000F8FC, symSize: 0x28 }
  - { offsetInCU: 0x3F2D6, offset: 0x3F2D6, size: 0x8, addend: 0x0, symName: __ZNSt3__122__allocator_destructorINS_9allocatorINS_10__function6__funcIZN11ToppingListC1EvEUlvE2_NS1_IS5_EEFNS_10unique_ptrI12SweetToppingNS_14default_deleteIS8_EEEEvEEEEEEclB8ue170006EPSD_, symObjAddr: 0xCA44, symBinAddr: 0x10000F924, symSize: 0x34 }
  - { offsetInCU: 0x3F30A, offset: 0x3F30A, size: 0x8, addend: 0x0, symName: __ZNSt3__122__compressed_pair_elemINS_22__allocator_destructorINS_9allocatorINS_10__function6__funcIZN11ToppingListC1EvEUlvE2_NS2_IS6_EEFNS_10unique_ptrI12SweetToppingNS_14default_deleteIS9_EEEEvEEEEEEELi1ELb0EE5__getB8ue170006Ev, symObjAddr: 0xCA78, symBinAddr: 0x10000F958, symSize: 0x14 }
  - { offsetInCU: 0x3F330, offset: 0x3F330, size: 0x8, addend: 0x0, symName: __ZNSt3__116allocator_traitsINS_9allocatorINS_10__function6__funcIZN11ToppingListC1EvEUlvE2_NS1_IS5_EEFNS_10unique_ptrI12SweetToppingNS_14default_deleteIS8_EEEEvEEEEEE10deallocateB8ue170006ERSE_PSD_m, symObjAddr: 0xCA8C, symBinAddr: 0x10000F96C, symSize: 0x34 }
  - { offsetInCU: 0x3F372, offset: 0x3F372, size: 0x8, addend: 0x0, symName: __ZNSt3__19allocatorINS_10__function6__funcIZN11ToppingListC1EvEUlvE2_NS0_IS4_EEFNS_10unique_ptrI12SweetToppingNS_14default_deleteIS7_EEEEvEEEE10deallocateB8ue170006EPSC_m, symObjAddr: 0xCAC0, symBinAddr: 0x10000F9A0, symSize: 0x40 }
  - { offsetInCU: 0x3F3B4, offset: 0x3F3B4, size: 0x8, addend: 0x0, symName: __ZNSt3__110__function6__funcIZN11ToppingListC1EvEUlvE2_NS_9allocatorIS3_EEFNS_10unique_ptrI12SweetToppingNS_14default_deleteIS7_EEEEvEEC1B8ue170006ERKS3_RKS5_, symObjAddr: 0xCB00, symBinAddr: 0x10000F9E0, symSize: 0x3C }
  - { offsetInCU: 0x3F3FC, offset: 0x3F3FC, size: 0x8, addend: 0x0, symName: __ZNSt3__110__function6__funcIZN11ToppingListC1EvEUlvE2_NS_9allocatorIS3_EEFNS_10unique_ptrI12SweetToppingNS_14default_deleteIS7_EEEEvEEC2B8ue170006ERKS3_RKS5_, symObjAddr: 0xCB3C, symBinAddr: 0x10000FA1C, symSize: 0x88 }
  - { offsetInCU: 0x3F444, offset: 0x3F444, size: 0x8, addend: 0x0, symName: __ZNSt3__110__function12__alloc_funcIZN11ToppingListC1EvEUlvE2_NS_9allocatorIS3_EEFNS_10unique_ptrI12SweetToppingNS_14default_deleteIS7_EEEEvEEC1B8ue170006ERKS3_RKS5_, symObjAddr: 0xCBC4, symBinAddr: 0x10000FAA4, symSize: 0x3C }
  - { offsetInCU: 0x3F48A, offset: 0x3F48A, size: 0x8, addend: 0x0, symName: __ZNSt3__110__function12__alloc_funcIZN11ToppingListC1EvEUlvE2_NS_9allocatorIS3_EEFNS_10unique_ptrI12SweetToppingNS_14default_deleteIS7_EEEEvEEC2B8ue170006ERKS3_RKS5_, symObjAddr: 0xCC00, symBinAddr: 0x10000FAE0, symSize: 0x5C }
  - { offsetInCU: 0x3F4D0, offset: 0x3F4D0, size: 0x8, addend: 0x0, symName: __ZNSt3__117__compressed_pairIZN11ToppingListC1EvEUlvE2_NS_9allocatorIS2_EEEC1B8ue170006IJRKS2_EJRKS4_EEENS_21piecewise_construct_tENS_5tupleIJDpT_EEENSC_IJDpT0_EEE, symObjAddr: 0xCC88, symBinAddr: 0x10000FB68, symSize: 0x3C }
  - { offsetInCU: 0x3F53A, offset: 0x3F53A, size: 0x8, addend: 0x0, symName: __ZNSt3__15tupleIJRKNS_9allocatorIZN11ToppingListC1EvEUlvE2_EEEEC1B8ue170006INS_4_AndELi0EEES6_, symObjAddr: 0xCCC4, symBinAddr: 0x10000FBA4, symSize: 0x34 }
  - { offsetInCU: 0x3F582, offset: 0x3F582, size: 0x8, addend: 0x0, symName: __ZNSt3__15tupleIJRKNS_9allocatorIZN11ToppingListC1EvEUlvE2_EEEEC2B8ue170006INS_4_AndELi0EEES6_, symObjAddr: 0xCCF8, symBinAddr: 0x10000FBD8, symSize: 0x34 }
  - { offsetInCU: 0x3F5CA, offset: 0x3F5CA, size: 0x8, addend: 0x0, symName: __ZNSt3__112__tuple_implINS_15__tuple_indicesIJLm0EEEEJRKNS_9allocatorIZN11ToppingListC1EvEUlvE2_EEEEC1B8ue170006IJLm0EEJS8_EJEJEJS8_EEENS1_IJXspT_EEEENS_13__tuple_typesIJDpT0_EEENS1_IJXspT1_EEEENSC_IJDpT2_EEEDpOT3_, symObjAddr: 0xCD2C, symBinAddr: 0x10000FC0C, symSize: 0x34 }
  - { offsetInCU: 0x3F65F, offset: 0x3F65F, size: 0x8, addend: 0x0, symName: __ZNSt3__112__tuple_implINS_15__tuple_indicesIJLm0EEEEJRKNS_9allocatorIZN11ToppingListC1EvEUlvE2_EEEEC2B8ue170006IJLm0EEJS8_EJEJEJS8_EEENS1_IJXspT_EEEENS_13__tuple_typesIJDpT0_EEENS1_IJXspT1_EEEENSC_IJDpT2_EEEDpOT3_, symObjAddr: 0xCD60, symBinAddr: 0x10000FC40, symSize: 0x34 }
  - { offsetInCU: 0x3F6F4, offset: 0x3F6F4, size: 0x8, addend: 0x0, symName: __ZNSt3__112__tuple_leafILm0ERKNS_9allocatorIZN11ToppingListC1EvEUlvE2_EELb0EEC2B8ue170006IS6_vEEOT_, symObjAddr: 0xCD94, symBinAddr: 0x10000FC74, symSize: 0x20 }
  - { offsetInCU: 0x3F737, offset: 0x3F737, size: 0x8, addend: 0x0, symName: __ZNSt3__117__compressed_pairIZN11ToppingListC1EvEUlvE2_NS_9allocatorIS2_EEEC2B8ue170006IJRKS2_EJRKS4_EEENS_21piecewise_construct_tENS_5tupleIJDpT_EEENSC_IJDpT0_EEE, symObjAddr: 0xCDB4, symBinAddr: 0x10000FC94, symSize: 0x54 }
  - { offsetInCU: 0x3F7A1, offset: 0x3F7A1, size: 0x8, addend: 0x0, symName: __ZNSt3__122__compressed_pair_elemINS_9allocatorIZN11ToppingListC1EvEUlvE2_EELi1ELb1EEC2B8ue170006IJRKS4_EJLm0EEEENS_21piecewise_construct_tENS_5tupleIJDpT_EEENS_15__tuple_indicesIJXspT0_EEEE, symObjAddr: 0xCE08, symBinAddr: 0x10000FCE8, symSize: 0x38 }
  - { offsetInCU: 0x3F804, offset: 0x3F804, size: 0x8, addend: 0x0, symName: __ZNSt3__112__tuple_leafILm0ERKNS_9allocatorIZN11ToppingListC1EvEUlvE2_EELb0EE3getB8ue170006Ev, symObjAddr: 0xCE64, symBinAddr: 0x10000FD44, symSize: 0x18 }
  - { offsetInCU: 0x3F82A, offset: 0x3F82A, size: 0x8, addend: 0x0, symName: __ZNSt3__110__function12__alloc_funcIZN11ToppingListC1EvEUlvE2_NS_9allocatorIS3_EEFNS_10unique_ptrI12SweetToppingNS_14default_deleteIS7_EEEEvEE7destroyB8ue170006Ev, symObjAddr: 0xCE7C, symBinAddr: 0x10000FD5C, symSize: 0x10 }
  - { offsetInCU: 0x3F850, offset: 0x3F850, size: 0x8, addend: 0x0, symName: __ZNSt3__110__function12__alloc_funcIZN11ToppingListC1EvEUlvE2_NS_9allocatorIS3_EEFNS_10unique_ptrI12SweetToppingNS_14default_deleteIS7_EEEEvEEclB8ue170006Ev, symObjAddr: 0xCE8C, symBinAddr: 0x10000FD6C, symSize: 0x34 }
  - { offsetInCU: 0x3F876, offset: 0x3F876, size: 0x8, addend: 0x0, symName: __ZNSt3__128__invoke_void_return_wrapperINS_10unique_ptrI12SweetToppingNS_14default_deleteIS2_EEEELb0EE6__callB8ue170006IJRZN11ToppingListC1EvEUlvE2_EEES5_DpOT_, symObjAddr: 0xCEC0, symBinAddr: 0x10000FDA0, symSize: 0x2C }
  - { offsetInCU: 0x3F8A5, offset: 0x3F8A5, size: 0x8, addend: 0x0, symName: __ZNSt3__117__compressed_pairIZN11ToppingListC1EvEUlvE2_NS_9allocatorIS2_EEE5firstB8ue170006Ev, symObjAddr: 0xCEEC, symBinAddr: 0x10000FDCC, symSize: 0x24 }
  - { offsetInCU: 0x3F8D1, offset: 0x3F8D1, size: 0x8, addend: 0x0, symName: __ZZN11ToppingListC1EvENKUlvE2_clEv, symObjAddr: 0xCF3C, symBinAddr: 0x10000FE1C, symSize: 0x3C }
  - { offsetInCU: 0x3F8FB, offset: 0x3F8FB, size: 0x8, addend: 0x0, symName: __ZNSt3__122__compressed_pair_elemIZN11ToppingListC1EvEUlvE2_Li0ELb1EE5__getB8ue170006Ev, symObjAddr: 0xD054, symBinAddr: 0x10000FF34, symSize: 0x14 }
  - { offsetInCU: 0x3F921, offset: 0x3F921, size: 0x8, addend: 0x0, symName: __ZNSt3__18functionIFNS_10unique_ptrI12SweetToppingNS_14default_deleteIS2_EEEEvEEC2IZN11ToppingListC1EvEUlvE3_vEET_, symObjAddr: 0xD068, symBinAddr: 0x10000FF48, symSize: 0x30 }
  - { offsetInCU: 0x3F966, offset: 0x3F966, size: 0x8, addend: 0x0, symName: __ZNSt3__110__function12__value_funcIFNS_10unique_ptrI12SweetToppingNS_14default_deleteIS3_EEEEvEEC1B8ue170006IZN11ToppingListC1EvEUlvE3_vEEOT_, symObjAddr: 0xD098, symBinAddr: 0x10000FF78, symSize: 0x50 }
  - { offsetInCU: 0x3F9A9, offset: 0x3F9A9, size: 0x8, addend: 0x0, symName: __ZNSt3__19allocatorIZN11ToppingListC1EvEUlvE3_EC1B8ue170006Ev, symObjAddr: 0xD0E8, symBinAddr: 0x10000FFC8, symSize: 0x2C }
  - { offsetInCU: 0x3F9D3, offset: 0x3F9D3, size: 0x8, addend: 0x0, symName: __ZNSt3__110__function12__value_funcIFNS_10unique_ptrI12SweetToppingNS_14default_deleteIS3_EEEEvEEC1B8ue170006IZN11ToppingListC1EvEUlvE3_NS_9allocatorISB_EEEEOT_RKT0_, symObjAddr: 0xD114, symBinAddr: 0x10000FFF4, symSize: 0x3C }
  - { offsetInCU: 0x3FA2D, offset: 0x3FA2D, size: 0x8, addend: 0x0, symName: __ZNSt3__19allocatorIZN11ToppingListC1EvEUlvE3_EC2B8ue170006Ev, symObjAddr: 0xD150, symBinAddr: 0x100010030, symSize: 0x2C }
  - { offsetInCU: 0x3FA57, offset: 0x3FA57, size: 0x8, addend: 0x0, symName: __ZNSt3__116__non_trivial_ifILb1ENS_9allocatorIZN11ToppingListC1EvEUlvE3_EEEC2B8ue170006Ev, symObjAddr: 0xD17C, symBinAddr: 0x10001005C, symSize: 0x14 }
  - { offsetInCU: 0x3FA81, offset: 0x3FA81, size: 0x8, addend: 0x0, symName: __ZNSt3__110__function12__value_funcIFNS_10unique_ptrI12SweetToppingNS_14default_deleteIS3_EEEEvEEC2B8ue170006IZN11ToppingListC1EvEUlvE3_NS_9allocatorISB_EEEEOT_RKT0_, symObjAddr: 0xD190, symBinAddr: 0x100010070, symSize: 0x94 }
  - { offsetInCU: 0x3FB2E, offset: 0x3FB2E, size: 0x8, addend: 0x0, symName: __ZNSt3__19allocatorINS_10__function6__funcIZN11ToppingListC1EvEUlvE3_NS0_IS4_EEFNS_10unique_ptrI12SweetToppingNS_14default_deleteIS7_EEEEvEEEEC1B8ue170006IS4_EERKNS0_IT_EE, symObjAddr: 0xD23C, symBinAddr: 0x10001011C, symSize: 0x34 }
  - { offsetInCU: 0x3FB71, offset: 0x3FB71, size: 0x8, addend: 0x0, symName: __ZNSt3__19allocatorIZN11ToppingListC1EvEUlvE3_EC1B8ue170006INS_10__function6__funcIS2_S3_FNS_10unique_ptrI12SweetToppingNS_14default_deleteIS8_EEEEvEEEEERKNS0_IT_EE, symObjAddr: 0xD270, symBinAddr: 0x100010150, symSize: 0x34 }
  - { offsetInCU: 0x3FBAE, offset: 0x3FBAE, size: 0x8, addend: 0x0, symName: __ZNSt3__110__function6__funcIZN11ToppingListC1EvEUlvE3_NS_9allocatorIS3_EEFNS_10unique_ptrI12SweetToppingNS_14default_deleteIS7_EEEEvEEC1B8ue170006EOS3_OS5_, symObjAddr: 0xD2A4, symBinAddr: 0x100010184, symSize: 0x3C }
  - { offsetInCU: 0x3FBF6, offset: 0x3FBF6, size: 0x8, addend: 0x0, symName: __ZNSt3__19allocatorINS_10__function6__funcIZN11ToppingListC1EvEUlvE3_NS0_IS4_EEFNS_10unique_ptrI12SweetToppingNS_14default_deleteIS7_EEEEvEEEEC2B8ue170006IS4_EERKNS0_IT_EE, symObjAddr: 0xD2E0, symBinAddr: 0x1000101C0, symSize: 0x30 }
  - { offsetInCU: 0x3FC33, offset: 0x3FC33, size: 0x8, addend: 0x0, symName: __ZNSt3__116__non_trivial_ifILb1ENS_9allocatorINS_10__function6__funcIZN11ToppingListC1EvEUlvE3_NS1_IS5_EEFNS_10unique_ptrI12SweetToppingNS_14default_deleteIS8_EEEEvEEEEEEC2B8ue170006Ev, symObjAddr: 0xD310, symBinAddr: 0x1000101F0, symSize: 0x14 }
  - { offsetInCU: 0x3FC5D, offset: 0x3FC5D, size: 0x8, addend: 0x0, symName: __ZNSt3__19allocatorIZN11ToppingListC1EvEUlvE3_EC2B8ue170006INS_10__function6__funcIS2_S3_FNS_10unique_ptrI12SweetToppingNS_14default_deleteIS8_EEEEvEEEEERKNS0_IT_EE, symObjAddr: 0xD324, symBinAddr: 0x100010204, symSize: 0x30 }
  - { offsetInCU: 0x3FC9A, offset: 0x3FC9A, size: 0x8, addend: 0x0, symName: __ZNSt3__110__function6__funcIZN11ToppingListC1EvEUlvE3_NS_9allocatorIS3_EEFNS_10unique_ptrI12SweetToppingNS_14default_deleteIS7_EEEEvEEC2B8ue170006EOS3_OS5_, symObjAddr: 0xD354, symBinAddr: 0x100010234, symSize: 0x88 }
  - { offsetInCU: 0x3FCE2, offset: 0x3FCE2, size: 0x8, addend: 0x0, symName: __ZNSt3__110__function12__alloc_funcIZN11ToppingListC1EvEUlvE3_NS_9allocatorIS3_EEFNS_10unique_ptrI12SweetToppingNS_14default_deleteIS7_EEEEvEEC1B8ue170006EOS3_OS5_, symObjAddr: 0xD3DC, symBinAddr: 0x1000102BC, symSize: 0x3C }
  - { offsetInCU: 0x3FD28, offset: 0x3FD28, size: 0x8, addend: 0x0, symName: __ZNSt3__110__function6__funcIZN11ToppingListC1EvEUlvE3_NS_9allocatorIS3_EEFNS_10unique_ptrI12SweetToppingNS_14default_deleteIS7_EEEEvEED1Ev, symObjAddr: 0xD418, symBinAddr: 0x1000102F8, symSize: 0x2C }
  - { offsetInCU: 0x3FD55, offset: 0x3FD55, size: 0x8, addend: 0x0, symName: __ZNSt3__110__function6__funcIZN11ToppingListC1EvEUlvE3_NS_9allocatorIS3_EEFNS_10unique_ptrI12SweetToppingNS_14default_deleteIS7_EEEEvEED0Ev, symObjAddr: 0xD444, symBinAddr: 0x100010324, symSize: 0x30 }
  - { offsetInCU: 0x3FD82, offset: 0x3FD82, size: 0x8, addend: 0x0, symName: __ZNKSt3__110__function6__funcIZN11ToppingListC1EvEUlvE3_NS_9allocatorIS3_EEFNS_10unique_ptrI12SweetToppingNS_14default_deleteIS7_EEEEvEE7__cloneEv, symObjAddr: 0xD474, symBinAddr: 0x100010354, symSize: 0xFC }
  - { offsetInCU: 0x3FDD4, offset: 0x3FDD4, size: 0x8, addend: 0x0, symName: __ZNKSt3__110__function6__funcIZN11ToppingListC1EvEUlvE3_NS_9allocatorIS3_EEFNS_10unique_ptrI12SweetToppingNS_14default_deleteIS7_EEEEvEE7__cloneEPNS0_6__baseISB_EE, symObjAddr: 0xD570, symBinAddr: 0x100010450, symSize: 0x58 }
  - { offsetInCU: 0x3FE0B, offset: 0x3FE0B, size: 0x8, addend: 0x0, symName: __ZNSt3__110__function6__funcIZN11ToppingListC1EvEUlvE3_NS_9allocatorIS3_EEFNS_10unique_ptrI12SweetToppingNS_14default_deleteIS7_EEEEvEE7destroyEv, symObjAddr: 0xD5C8, symBinAddr: 0x1000104A8, symSize: 0x28 }
  - { offsetInCU: 0x3FE33, offset: 0x3FE33, size: 0x8, addend: 0x0, symName: __ZNSt3__110__function6__funcIZN11ToppingListC1EvEUlvE3_NS_9allocatorIS3_EEFNS_10unique_ptrI12SweetToppingNS_14default_deleteIS7_EEEEvEE18destroy_deallocateEv, symObjAddr: 0xD5F0, symBinAddr: 0x1000104D0, symSize: 0x58 }
  - { offsetInCU: 0x3FE76, offset: 0x3FE76, size: 0x8, addend: 0x0, symName: __ZNSt3__110__function6__funcIZN11ToppingListC1EvEUlvE3_NS_9allocatorIS3_EEFNS_10unique_ptrI12SweetToppingNS_14default_deleteIS7_EEEEvEEclEv, symObjAddr: 0xD648, symBinAddr: 0x100010528, symSize: 0x30 }
  - { offsetInCU: 0x3FE9E, offset: 0x3FE9E, size: 0x8, addend: 0x0, symName: __ZNKSt3__110__function6__funcIZN11ToppingListC1EvEUlvE3_NS_9allocatorIS3_EEFNS_10unique_ptrI12SweetToppingNS_14default_deleteIS7_EEEEvEE6targetERKSt9type_info, symObjAddr: 0xD678, symBinAddr: 0x100010558, symSize: 0x60 }
  - { offsetInCU: 0x3FED5, offset: 0x3FED5, size: 0x8, addend: 0x0, symName: __ZNKSt3__110__function6__funcIZN11ToppingListC1EvEUlvE3_NS_9allocatorIS3_EEFNS_10unique_ptrI12SweetToppingNS_14default_deleteIS7_EEEEvEE11target_typeEv, symObjAddr: 0xD6D8, symBinAddr: 0x1000105B8, symSize: 0x18 }
  - { offsetInCU: 0x3FEFD, offset: 0x3FEFD, size: 0x8, addend: 0x0, symName: __ZNSt3__110__function12__alloc_funcIZN11ToppingListC1EvEUlvE3_NS_9allocatorIS3_EEFNS_10unique_ptrI12SweetToppingNS_14default_deleteIS7_EEEEvEEC2B8ue170006EOS3_OS5_, symObjAddr: 0xD6F0, symBinAddr: 0x1000105D0, symSize: 0x5C }
  - { offsetInCU: 0x3FF43, offset: 0x3FF43, size: 0x8, addend: 0x0, symName: __ZNSt3__117__compressed_pairIZN11ToppingListC1EvEUlvE3_NS_9allocatorIS2_EEEC1B8ue170006IJOS2_EJOS4_EEENS_21piecewise_construct_tENS_5tupleIJDpT_EEENSA_IJDpT0_EEE, symObjAddr: 0xD7A4, symBinAddr: 0x100010684, symSize: 0x3C }
  - { offsetInCU: 0x3FFAD, offset: 0x3FFAD, size: 0x8, addend: 0x0, symName: __ZNSt3__15tupleIJOZN11ToppingListC1EvEUlvE3_EEC1B8ue170006IJS2_ELi0EEEDpOT_, symObjAddr: 0xD7E0, symBinAddr: 0x1000106C0, symSize: 0x34 }
  - { offsetInCU: 0x3FFF7, offset: 0x3FFF7, size: 0x8, addend: 0x0, symName: __ZNSt3__15tupleIJOZN11ToppingListC1EvEUlvE3_EEC2B8ue170006IJS2_ELi0EEEDpOT_, symObjAddr: 0xD814, symBinAddr: 0x1000106F4, symSize: 0x34 }
  - { offsetInCU: 0x40041, offset: 0x40041, size: 0x8, addend: 0x0, symName: __ZNSt3__112__tuple_implINS_15__tuple_indicesIJLm0EEEEJOZN11ToppingListC1EvEUlvE3_EEC1B8ue170006IJLm0EEJS5_EJEJEJS4_EEENS1_IJXspT_EEEENS_13__tuple_typesIJDpT0_EEENS1_IJXspT1_EEEENS9_IJDpT2_EEEDpOT3_, symObjAddr: 0xD848, symBinAddr: 0x100010728, symSize: 0x34 }
  - { offsetInCU: 0x400D6, offset: 0x400D6, size: 0x8, addend: 0x0, symName: __ZNSt3__112__tuple_implINS_15__tuple_indicesIJLm0EEEEJOZN11ToppingListC1EvEUlvE3_EEC2B8ue170006IJLm0EEJS5_EJEJEJS4_EEENS1_IJXspT_EEEENS_13__tuple_typesIJDpT0_EEENS1_IJXspT1_EEEENS9_IJDpT2_EEEDpOT3_, symObjAddr: 0xD87C, symBinAddr: 0x10001075C, symSize: 0x34 }
  - { offsetInCU: 0x4016B, offset: 0x4016B, size: 0x8, addend: 0x0, symName: __ZNSt3__112__tuple_leafILm0EOZN11ToppingListC1EvEUlvE3_Lb0EEC2B8ue170006IS2_vEEOT_, symObjAddr: 0xD8B0, symBinAddr: 0x100010790, symSize: 0x20 }
  - { offsetInCU: 0x401AE, offset: 0x401AE, size: 0x8, addend: 0x0, symName: __ZNSt3__15tupleIJONS_9allocatorIZN11ToppingListC1EvEUlvE3_EEEEC1B8ue170006IJS4_ELi0EEEDpOT_, symObjAddr: 0xD8D0, symBinAddr: 0x1000107B0, symSize: 0x34 }
  - { offsetInCU: 0x401F8, offset: 0x401F8, size: 0x8, addend: 0x0, symName: __ZNSt3__15tupleIJONS_9allocatorIZN11ToppingListC1EvEUlvE3_EEEEC2B8ue170006IJS4_ELi0EEEDpOT_, symObjAddr: 0xD904, symBinAddr: 0x1000107E4, symSize: 0x34 }
  - { offsetInCU: 0x40242, offset: 0x40242, size: 0x8, addend: 0x0, symName: __ZNSt3__112__tuple_implINS_15__tuple_indicesIJLm0EEEEJONS_9allocatorIZN11ToppingListC1EvEUlvE3_EEEEC1B8ue170006IJLm0EEJS7_EJEJEJS6_EEENS1_IJXspT_EEEENS_13__tuple_typesIJDpT0_EEENS1_IJXspT1_EEEENSB_IJDpT2_EEEDpOT3_, symObjAddr: 0xD938, symBinAddr: 0x100010818, symSize: 0x34 }
  - { offsetInCU: 0x402D7, offset: 0x402D7, size: 0x8, addend: 0x0, symName: __ZNSt3__112__tuple_implINS_15__tuple_indicesIJLm0EEEEJONS_9allocatorIZN11ToppingListC1EvEUlvE3_EEEEC2B8ue170006IJLm0EEJS7_EJEJEJS6_EEENS1_IJXspT_EEEENS_13__tuple_typesIJDpT0_EEENS1_IJXspT1_EEEENSB_IJDpT2_EEEDpOT3_, symObjAddr: 0xD96C, symBinAddr: 0x10001084C, symSize: 0x34 }
  - { offsetInCU: 0x4036C, offset: 0x4036C, size: 0x8, addend: 0x0, symName: __ZNSt3__112__tuple_leafILm0EONS_9allocatorIZN11ToppingListC1EvEUlvE3_EELb0EEC2B8ue170006IS4_vEEOT_, symObjAddr: 0xD9A0, symBinAddr: 0x100010880, symSize: 0x20 }
  - { offsetInCU: 0x403AF, offset: 0x403AF, size: 0x8, addend: 0x0, symName: __ZNSt3__117__compressed_pairIZN11ToppingListC1EvEUlvE3_NS_9allocatorIS2_EEEC2B8ue170006IJOS2_EJOS4_EEENS_21piecewise_construct_tENS_5tupleIJDpT_EEENSA_IJDpT0_EEE, symObjAddr: 0xD9C0, symBinAddr: 0x1000108A0, symSize: 0x54 }
  - { offsetInCU: 0x40419, offset: 0x40419, size: 0x8, addend: 0x0, symName: __ZNSt3__122__compressed_pair_elemIZN11ToppingListC1EvEUlvE3_Li0ELb1EEC2B8ue170006IJOS2_EJLm0EEEENS_21piecewise_construct_tENS_5tupleIJDpT_EEENS_15__tuple_indicesIJXspT0_EEEE, symObjAddr: 0xDA14, symBinAddr: 0x1000108F4, symSize: 0x38 }
  - { offsetInCU: 0x4047C, offset: 0x4047C, size: 0x8, addend: 0x0, symName: __ZNSt3__122__compressed_pair_elemINS_9allocatorIZN11ToppingListC1EvEUlvE3_EELi1ELb1EEC2B8ue170006IJOS4_EJLm0EEEENS_21piecewise_construct_tENS_5tupleIJDpT_EEENS_15__tuple_indicesIJXspT0_EEEE, symObjAddr: 0xDA4C, symBinAddr: 0x10001092C, symSize: 0x38 }
  - { offsetInCU: 0x404DF, offset: 0x404DF, size: 0x8, addend: 0x0, symName: __ZNSt3__112__tuple_leafILm0EOZN11ToppingListC1EvEUlvE3_Lb0EE3getB8ue170006Ev, symObjAddr: 0xDAA8, symBinAddr: 0x100010988, symSize: 0x18 }
  - { offsetInCU: 0x40505, offset: 0x40505, size: 0x8, addend: 0x0, symName: __ZNSt3__112__tuple_leafILm0EONS_9allocatorIZN11ToppingListC1EvEUlvE3_EELb0EE3getB8ue170006Ev, symObjAddr: 0xDAE4, symBinAddr: 0x1000109C4, symSize: 0x18 }
  - { offsetInCU: 0x4052B, offset: 0x4052B, size: 0x8, addend: 0x0, symName: __ZNSt3__110__function6__funcIZN11ToppingListC1EvEUlvE3_NS_9allocatorIS3_EEFNS_10unique_ptrI12SweetToppingNS_14default_deleteIS7_EEEEvEED2Ev, symObjAddr: 0xDAFC, symBinAddr: 0x1000109DC, symSize: 0x2C }
  - { offsetInCU: 0x40558, offset: 0x40558, size: 0x8, addend: 0x0, symName: __ZNKSt3__110__function12__alloc_funcIZN11ToppingListC1EvEUlvE3_NS_9allocatorIS3_EEFNS_10unique_ptrI12SweetToppingNS_14default_deleteIS7_EEEEvEE15__get_allocatorB8ue170006Ev, symObjAddr: 0xDB28, symBinAddr: 0x100010A08, symSize: 0x24 }
  - { offsetInCU: 0x4057E, offset: 0x4057E, size: 0x8, addend: 0x0, symName: __ZNSt3__19allocatorINS_10__function6__funcIZN11ToppingListC1EvEUlvE3_NS0_IS4_EEFNS_10unique_ptrI12SweetToppingNS_14default_deleteIS7_EEEEvEEEE8allocateB8ue170006Em, symObjAddr: 0xDB4C, symBinAddr: 0x100010A2C, symSize: 0x58 }
  - { offsetInCU: 0x405C4, offset: 0x405C4, size: 0x8, addend: 0x0, symName: __ZNSt3__122__allocator_destructorINS_9allocatorINS_10__function6__funcIZN11ToppingListC1EvEUlvE3_NS1_IS5_EEFNS_10unique_ptrI12SweetToppingNS_14default_deleteIS8_EEEEvEEEEEEC1B8ue170006ERSE_m, symObjAddr: 0xDBA4, symBinAddr: 0x100010A84, symSize: 0x3C }
  - { offsetInCU: 0x406B2, offset: 0x406B2, size: 0x8, addend: 0x0, symName: __ZNSt3__110unique_ptrINS_10__function6__funcIZN11ToppingListC1EvEUlvE3_NS_9allocatorIS4_EEFNS0_I12SweetToppingNS_14default_deleteIS7_EEEEvEEENS_22__allocator_destructorINS5_ISC_EEEEEC1B8ue170006ILb1EvEEPSC_NS_16__dependent_typeINS_27__unique_ptr_deleter_sfinaeISF_EEXT_EE20__good_rval_ref_typeE, symObjAddr: 0xDBE0, symBinAddr: 0x100010AC0, symSize: 0x3C }
  - { offsetInCU: 0x40703, offset: 0x40703, size: 0x8, addend: 0x0, symName: __ZNKSt3__110unique_ptrINS_10__function6__funcIZN11ToppingListC1EvEUlvE3_NS_9allocatorIS4_EEFNS0_I12SweetToppingNS_14default_deleteIS7_EEEEvEEENS_22__allocator_destructorINS5_ISC_EEEEE3getB8ue170006Ev, symObjAddr: 0xDC1C, symBinAddr: 0x100010AFC, symSize: 0x28 }
  - { offsetInCU: 0x40729, offset: 0x40729, size: 0x8, addend: 0x0, symName: __ZNKSt3__110__function12__alloc_funcIZN11ToppingListC1EvEUlvE3_NS_9allocatorIS3_EEFNS_10unique_ptrI12SweetToppingNS_14default_deleteIS7_EEEEvEE8__targetB8ue170006Ev, symObjAddr: 0xDC44, symBinAddr: 0x100010B24, symSize: 0x24 }
  - { offsetInCU: 0x4074F, offset: 0x4074F, size: 0x8, addend: 0x0, symName: __ZNSt3__110__function6__funcIZN11ToppingListC1EvEUlvE3_NS_9allocatorIS3_EEFNS_10unique_ptrI12SweetToppingNS_14default_deleteIS7_EEEEvEEC1B8ue170006ERKS3_OS5_, symObjAddr: 0xDC68, symBinAddr: 0x100010B48, symSize: 0x3C }
  - { offsetInCU: 0x40797, offset: 0x40797, size: 0x8, addend: 0x0, symName: __ZNSt3__110unique_ptrINS_10__function6__funcIZN11ToppingListC1EvEUlvE3_NS_9allocatorIS4_EEFNS0_I12SweetToppingNS_14default_deleteIS7_EEEEvEEENS_22__allocator_destructorINS5_ISC_EEEEE7releaseB8ue170006Ev, symObjAddr: 0xDCA4, symBinAddr: 0x100010B84, symSize: 0x44 }
  - { offsetInCU: 0x407CC, offset: 0x407CC, size: 0x8, addend: 0x0, symName: __ZNSt3__110unique_ptrINS_10__function6__funcIZN11ToppingListC1EvEUlvE3_NS_9allocatorIS4_EEFNS0_I12SweetToppingNS_14default_deleteIS7_EEEEvEEENS_22__allocator_destructorINS5_ISC_EEEEED1B8ue170006Ev, symObjAddr: 0xDCE8, symBinAddr: 0x100010BC8, symSize: 0x2C }
  - { offsetInCU: 0x407F6, offset: 0x407F6, size: 0x8, addend: 0x0, symName: __ZNKSt3__117__compressed_pairIZN11ToppingListC1EvEUlvE3_NS_9allocatorIS2_EEE6secondB8ue170006Ev, symObjAddr: 0xDD14, symBinAddr: 0x100010BF4, symSize: 0x24 }
  - { offsetInCU: 0x4081C, offset: 0x4081C, size: 0x8, addend: 0x0, symName: __ZNKSt3__122__compressed_pair_elemINS_9allocatorIZN11ToppingListC1EvEUlvE3_EELi1ELb1EE5__getB8ue170006Ev, symObjAddr: 0xDD38, symBinAddr: 0x100010C18, symSize: 0x14 }
  - { offsetInCU: 0x4084E, offset: 0x4084E, size: 0x8, addend: 0x0, symName: __ZNSt3__116allocator_traitsINS_9allocatorINS_10__function6__funcIZN11ToppingListC1EvEUlvE3_NS1_IS5_EEFNS_10unique_ptrI12SweetToppingNS_14default_deleteIS8_EEEEvEEEEEE8max_sizeB8ue170006ISE_vEEmRKSE_, symObjAddr: 0xDD4C, symBinAddr: 0x100010C2C, symSize: 0x24 }
  - { offsetInCU: 0x4087C, offset: 0x4087C, size: 0x8, addend: 0x0, symName: __ZNKSt3__19allocatorINS_10__function6__funcIZN11ToppingListC1EvEUlvE3_NS0_IS4_EEFNS_10unique_ptrI12SweetToppingNS_14default_deleteIS7_EEEEvEEEE8max_sizeB8ue170006Ev, symObjAddr: 0xDD70, symBinAddr: 0x100010C50, symSize: 0x14 }
  - { offsetInCU: 0x408A2, offset: 0x408A2, size: 0x8, addend: 0x0, symName: __ZNSt3__122__allocator_destructorINS_9allocatorINS_10__function6__funcIZN11ToppingListC1EvEUlvE3_NS1_IS5_EEFNS_10unique_ptrI12SweetToppingNS_14default_deleteIS8_EEEEvEEEEEEC2B8ue170006ERSE_m, symObjAddr: 0xDD84, symBinAddr: 0x100010C64, symSize: 0x2C }
  - { offsetInCU: 0x408E8, offset: 0x408E8, size: 0x8, addend: 0x0, symName: __ZNSt3__110unique_ptrINS_10__function6__funcIZN11ToppingListC1EvEUlvE3_NS_9allocatorIS4_EEFNS0_I12SweetToppingNS_14default_deleteIS7_EEEEvEEENS_22__allocator_destructorINS5_ISC_EEEEEC2B8ue170006ILb1EvEEPSC_NS_16__dependent_typeINS_27__unique_ptr_deleter_sfinaeISF_EEXT_EE20__good_rval_ref_typeE, symObjAddr: 0xDDB0, symBinAddr: 0x100010C90, symSize: 0x48 }
  - { offsetInCU: 0x40939, offset: 0x40939, size: 0x8, addend: 0x0, symName: __ZNSt3__117__compressed_pairIPNS_10__function6__funcIZN11ToppingListC1EvEUlvE3_NS_9allocatorIS4_EEFNS_10unique_ptrI12SweetToppingNS_14default_deleteIS8_EEEEvEEENS_22__allocator_destructorINS5_ISD_EEEEEC1B8ue170006IRSE_SH_EEOT_OT0_, symObjAddr: 0xDDF8, symBinAddr: 0x100010CD8, symSize: 0x3C }
  - { offsetInCU: 0x40991, offset: 0x40991, size: 0x8, addend: 0x0, symName: __ZNSt3__117__compressed_pairIPNS_10__function6__funcIZN11ToppingListC1EvEUlvE3_NS_9allocatorIS4_EEFNS_10unique_ptrI12SweetToppingNS_14default_deleteIS8_EEEEvEEENS_22__allocator_destructorINS5_ISD_EEEEEC2B8ue170006IRSE_SH_EEOT_OT0_, symObjAddr: 0xDE34, symBinAddr: 0x100010D14, symSize: 0x48 }
  - { offsetInCU: 0x409E9, offset: 0x409E9, size: 0x8, addend: 0x0, symName: __ZNSt3__122__compressed_pair_elemIPNS_10__function6__funcIZN11ToppingListC1EvEUlvE3_NS_9allocatorIS4_EEFNS_10unique_ptrI12SweetToppingNS_14default_deleteIS8_EEEEvEEELi0ELb0EEC2B8ue170006IRSE_vEEOT_, symObjAddr: 0xDE7C, symBinAddr: 0x100010D5C, symSize: 0x24 }
  - { offsetInCU: 0x40A2B, offset: 0x40A2B, size: 0x8, addend: 0x0, symName: __ZNSt3__122__compressed_pair_elemINS_22__allocator_destructorINS_9allocatorINS_10__function6__funcIZN11ToppingListC1EvEUlvE3_NS2_IS6_EEFNS_10unique_ptrI12SweetToppingNS_14default_deleteIS9_EEEEvEEEEEEELi1ELb0EEC2B8ue170006ISG_vEEOT_, symObjAddr: 0xDEA0, symBinAddr: 0x100010D80, symSize: 0x24 }
  - { offsetInCU: 0x40A6D, offset: 0x40A6D, size: 0x8, addend: 0x0, symName: __ZNKSt3__117__compressed_pairIPNS_10__function6__funcIZN11ToppingListC1EvEUlvE3_NS_9allocatorIS4_EEFNS_10unique_ptrI12SweetToppingNS_14default_deleteIS8_EEEEvEEENS_22__allocator_destructorINS5_ISD_EEEEE5firstB8ue170006Ev, symObjAddr: 0xDEC4, symBinAddr: 0x100010DA4, symSize: 0x24 }
  - { offsetInCU: 0x40A93, offset: 0x40A93, size: 0x8, addend: 0x0, symName: __ZNKSt3__122__compressed_pair_elemIPNS_10__function6__funcIZN11ToppingListC1EvEUlvE3_NS_9allocatorIS4_EEFNS_10unique_ptrI12SweetToppingNS_14default_deleteIS8_EEEEvEEELi0ELb0EE5__getB8ue170006Ev, symObjAddr: 0xDEE8, symBinAddr: 0x100010DC8, symSize: 0x14 }
  - { offsetInCU: 0x40AB9, offset: 0x40AB9, size: 0x8, addend: 0x0, symName: __ZNKSt3__117__compressed_pairIZN11ToppingListC1EvEUlvE3_NS_9allocatorIS2_EEE5firstB8ue170006Ev, symObjAddr: 0xDEFC, symBinAddr: 0x100010DDC, symSize: 0x24 }
  - { offsetInCU: 0x40ADF, offset: 0x40ADF, size: 0x8, addend: 0x0, symName: __ZNKSt3__122__compressed_pair_elemIZN11ToppingListC1EvEUlvE3_Li0ELb1EE5__getB8ue170006Ev, symObjAddr: 0xDF20, symBinAddr: 0x100010E00, symSize: 0x14 }
  - { offsetInCU: 0x40B05, offset: 0x40B05, size: 0x8, addend: 0x0, symName: __ZNSt3__110__function6__funcIZN11ToppingListC1EvEUlvE3_NS_9allocatorIS3_EEFNS_10unique_ptrI12SweetToppingNS_14default_deleteIS7_EEEEvEEC2B8ue170006ERKS3_OS5_, symObjAddr: 0xDF34, symBinAddr: 0x100010E14, symSize: 0x88 }
  - { offsetInCU: 0x40B4D, offset: 0x40B4D, size: 0x8, addend: 0x0, symName: __ZNSt3__110__function12__alloc_funcIZN11ToppingListC1EvEUlvE3_NS_9allocatorIS3_EEFNS_10unique_ptrI12SweetToppingNS_14default_deleteIS7_EEEEvEEC1B8ue170006ERKS3_OS5_, symObjAddr: 0xDFBC, symBinAddr: 0x100010E9C, symSize: 0x3C }
  - { offsetInCU: 0x40B93, offset: 0x40B93, size: 0x8, addend: 0x0, symName: __ZNSt3__110__function12__alloc_funcIZN11ToppingListC1EvEUlvE3_NS_9allocatorIS3_EEFNS_10unique_ptrI12SweetToppingNS_14default_deleteIS7_EEEEvEEC2B8ue170006ERKS3_OS5_, symObjAddr: 0xDFF8, symBinAddr: 0x100010ED8, symSize: 0x5C }
  - { offsetInCU: 0x40BD9, offset: 0x40BD9, size: 0x8, addend: 0x0, symName: __ZNSt3__117__compressed_pairIZN11ToppingListC1EvEUlvE3_NS_9allocatorIS2_EEEC1B8ue170006IJRKS2_EJOS4_EEENS_21piecewise_construct_tENS_5tupleIJDpT_EEENSB_IJDpT0_EEE, symObjAddr: 0xE080, symBinAddr: 0x100010F60, symSize: 0x3C }
  - { offsetInCU: 0x40C43, offset: 0x40C43, size: 0x8, addend: 0x0, symName: __ZNSt3__15tupleIJRKZN11ToppingListC1EvEUlvE3_EEC1B8ue170006INS_4_AndELi0EEES4_, symObjAddr: 0xE0BC, symBinAddr: 0x100010F9C, symSize: 0x34 }
  - { offsetInCU: 0x40C8B, offset: 0x40C8B, size: 0x8, addend: 0x0, symName: __ZNSt3__15tupleIJRKZN11ToppingListC1EvEUlvE3_EEC2B8ue170006INS_4_AndELi0EEES4_, symObjAddr: 0xE0F0, symBinAddr: 0x100010FD0, symSize: 0x34 }
  - { offsetInCU: 0x40CD3, offset: 0x40CD3, size: 0x8, addend: 0x0, symName: __ZNSt3__112__tuple_implINS_15__tuple_indicesIJLm0EEEEJRKZN11ToppingListC1EvEUlvE3_EEC1B8ue170006IJLm0EEJS6_EJEJEJS6_EEENS1_IJXspT_EEEENS_13__tuple_typesIJDpT0_EEENS1_IJXspT1_EEEENSA_IJDpT2_EEEDpOT3_, symObjAddr: 0xE124, symBinAddr: 0x100011004, symSize: 0x34 }
  - { offsetInCU: 0x40D68, offset: 0x40D68, size: 0x8, addend: 0x0, symName: __ZNSt3__112__tuple_implINS_15__tuple_indicesIJLm0EEEEJRKZN11ToppingListC1EvEUlvE3_EEC2B8ue170006IJLm0EEJS6_EJEJEJS6_EEENS1_IJXspT_EEEENS_13__tuple_typesIJDpT0_EEENS1_IJXspT1_EEEENSA_IJDpT2_EEEDpOT3_, symObjAddr: 0xE158, symBinAddr: 0x100011038, symSize: 0x34 }
  - { offsetInCU: 0x40DFD, offset: 0x40DFD, size: 0x8, addend: 0x0, symName: __ZNSt3__112__tuple_leafILm0ERKZN11ToppingListC1EvEUlvE3_Lb0EEC2B8ue170006IS4_vEEOT_, symObjAddr: 0xE18C, symBinAddr: 0x10001106C, symSize: 0x20 }
  - { offsetInCU: 0x40E40, offset: 0x40E40, size: 0x8, addend: 0x0, symName: __ZNSt3__117__compressed_pairIZN11ToppingListC1EvEUlvE3_NS_9allocatorIS2_EEEC2B8ue170006IJRKS2_EJOS4_EEENS_21piecewise_construct_tENS_5tupleIJDpT_EEENSB_IJDpT0_EEE, symObjAddr: 0xE1AC, symBinAddr: 0x10001108C, symSize: 0x54 }
  - { offsetInCU: 0x40EAA, offset: 0x40EAA, size: 0x8, addend: 0x0, symName: __ZNSt3__122__compressed_pair_elemIZN11ToppingListC1EvEUlvE3_Li0ELb1EEC2B8ue170006IJRKS2_EJLm0EEEENS_21piecewise_construct_tENS_5tupleIJDpT_EEENS_15__tuple_indicesIJXspT0_EEEE, symObjAddr: 0xE200, symBinAddr: 0x1000110E0, symSize: 0x38 }
  - { offsetInCU: 0x40F0D, offset: 0x40F0D, size: 0x8, addend: 0x0, symName: __ZNSt3__112__tuple_leafILm0ERKZN11ToppingListC1EvEUlvE3_Lb0EE3getB8ue170006Ev, symObjAddr: 0xE25C, symBinAddr: 0x10001113C, symSize: 0x18 }
  - { offsetInCU: 0x40F33, offset: 0x40F33, size: 0x8, addend: 0x0, symName: __ZNSt3__117__compressed_pairIPNS_10__function6__funcIZN11ToppingListC1EvEUlvE3_NS_9allocatorIS4_EEFNS_10unique_ptrI12SweetToppingNS_14default_deleteIS8_EEEEvEEENS_22__allocator_destructorINS5_ISD_EEEEE5firstB8ue170006Ev, symObjAddr: 0xE274, symBinAddr: 0x100011154, symSize: 0x24 }
  - { offsetInCU: 0x40F59, offset: 0x40F59, size: 0x8, addend: 0x0, symName: __ZNSt3__122__compressed_pair_elemIPNS_10__function6__funcIZN11ToppingListC1EvEUlvE3_NS_9allocatorIS4_EEFNS_10unique_ptrI12SweetToppingNS_14default_deleteIS8_EEEEvEEELi0ELb0EE5__getB8ue170006Ev, symObjAddr: 0xE298, symBinAddr: 0x100011178, symSize: 0x14 }
  - { offsetInCU: 0x40F7F, offset: 0x40F7F, size: 0x8, addend: 0x0, symName: __ZNSt3__110unique_ptrINS_10__function6__funcIZN11ToppingListC1EvEUlvE3_NS_9allocatorIS4_EEFNS0_I12SweetToppingNS_14default_deleteIS7_EEEEvEEENS_22__allocator_destructorINS5_ISC_EEEEED2B8ue170006Ev, symObjAddr: 0xE2AC, symBinAddr: 0x10001118C, symSize: 0x30 }
  - { offsetInCU: 0x40FA9, offset: 0x40FA9, size: 0x8, addend: 0x0, symName: __ZNSt3__110unique_ptrINS_10__function6__funcIZN11ToppingListC1EvEUlvE3_NS_9allocatorIS4_EEFNS0_I12SweetToppingNS_14default_deleteIS7_EEEEvEEENS_22__allocator_destructorINS5_ISC_EEEEE5resetB8ue170006EPSC_, symObjAddr: 0xE2DC, symBinAddr: 0x1000111BC, symSize: 0x78 }
  - { offsetInCU: 0x40FED, offset: 0x40FED, size: 0x8, addend: 0x0, symName: __ZNSt3__117__compressed_pairIPNS_10__function6__funcIZN11ToppingListC1EvEUlvE3_NS_9allocatorIS4_EEFNS_10unique_ptrI12SweetToppingNS_14default_deleteIS8_EEEEvEEENS_22__allocator_destructorINS5_ISD_EEEEE6secondB8ue170006Ev, symObjAddr: 0xE354, symBinAddr: 0x100011234, symSize: 0x28 }
  - { offsetInCU: 0x41013, offset: 0x41013, size: 0x8, addend: 0x0, symName: __ZNSt3__122__allocator_destructorINS_9allocatorINS_10__function6__funcIZN11ToppingListC1EvEUlvE3_NS1_IS5_EEFNS_10unique_ptrI12SweetToppingNS_14default_deleteIS8_EEEEvEEEEEEclB8ue170006EPSD_, symObjAddr: 0xE37C, symBinAddr: 0x10001125C, symSize: 0x34 }
  - { offsetInCU: 0x41047, offset: 0x41047, size: 0x8, addend: 0x0, symName: __ZNSt3__122__compressed_pair_elemINS_22__allocator_destructorINS_9allocatorINS_10__function6__funcIZN11ToppingListC1EvEUlvE3_NS2_IS6_EEFNS_10unique_ptrI12SweetToppingNS_14default_deleteIS9_EEEEvEEEEEEELi1ELb0EE5__getB8ue170006Ev, symObjAddr: 0xE3B0, symBinAddr: 0x100011290, symSize: 0x14 }
  - { offsetInCU: 0x4106D, offset: 0x4106D, size: 0x8, addend: 0x0, symName: __ZNSt3__116allocator_traitsINS_9allocatorINS_10__function6__funcIZN11ToppingListC1EvEUlvE3_NS1_IS5_EEFNS_10unique_ptrI12SweetToppingNS_14default_deleteIS8_EEEEvEEEEEE10deallocateB8ue170006ERSE_PSD_m, symObjAddr: 0xE3C4, symBinAddr: 0x1000112A4, symSize: 0x34 }
  - { offsetInCU: 0x410AF, offset: 0x410AF, size: 0x8, addend: 0x0, symName: __ZNSt3__19allocatorINS_10__function6__funcIZN11ToppingListC1EvEUlvE3_NS0_IS4_EEFNS_10unique_ptrI12SweetToppingNS_14default_deleteIS7_EEEEvEEEE10deallocateB8ue170006EPSC_m, symObjAddr: 0xE3F8, symBinAddr: 0x1000112D8, symSize: 0x40 }
  - { offsetInCU: 0x410F1, offset: 0x410F1, size: 0x8, addend: 0x0, symName: __ZNSt3__110__function6__funcIZN11ToppingListC1EvEUlvE3_NS_9allocatorIS3_EEFNS_10unique_ptrI12SweetToppingNS_14default_deleteIS7_EEEEvEEC1B8ue170006ERKS3_RKS5_, symObjAddr: 0xE438, symBinAddr: 0x100011318, symSize: 0x3C }
  - { offsetInCU: 0x41139, offset: 0x41139, size: 0x8, addend: 0x0, symName: __ZNSt3__110__function6__funcIZN11ToppingListC1EvEUlvE3_NS_9allocatorIS3_EEFNS_10unique_ptrI12SweetToppingNS_14default_deleteIS7_EEEEvEEC2B8ue170006ERKS3_RKS5_, symObjAddr: 0xE474, symBinAddr: 0x100011354, symSize: 0x88 }
  - { offsetInCU: 0x41181, offset: 0x41181, size: 0x8, addend: 0x0, symName: __ZNSt3__110__function12__alloc_funcIZN11ToppingListC1EvEUlvE3_NS_9allocatorIS3_EEFNS_10unique_ptrI12SweetToppingNS_14default_deleteIS7_EEEEvEEC1B8ue170006ERKS3_RKS5_, symObjAddr: 0xE4FC, symBinAddr: 0x1000113DC, symSize: 0x3C }
  - { offsetInCU: 0x411C7, offset: 0x411C7, size: 0x8, addend: 0x0, symName: __ZNSt3__110__function12__alloc_funcIZN11ToppingListC1EvEUlvE3_NS_9allocatorIS3_EEFNS_10unique_ptrI12SweetToppingNS_14default_deleteIS7_EEEEvEEC2B8ue170006ERKS3_RKS5_, symObjAddr: 0xE538, symBinAddr: 0x100011418, symSize: 0x5C }
  - { offsetInCU: 0x4120D, offset: 0x4120D, size: 0x8, addend: 0x0, symName: __ZNSt3__117__compressed_pairIZN11ToppingListC1EvEUlvE3_NS_9allocatorIS2_EEEC1B8ue170006IJRKS2_EJRKS4_EEENS_21piecewise_construct_tENS_5tupleIJDpT_EEENSC_IJDpT0_EEE, symObjAddr: 0xE5C0, symBinAddr: 0x1000114A0, symSize: 0x3C }
  - { offsetInCU: 0x41277, offset: 0x41277, size: 0x8, addend: 0x0, symName: __ZNSt3__15tupleIJRKNS_9allocatorIZN11ToppingListC1EvEUlvE3_EEEEC1B8ue170006INS_4_AndELi0EEES6_, symObjAddr: 0xE5FC, symBinAddr: 0x1000114DC, symSize: 0x34 }
  - { offsetInCU: 0x412BF, offset: 0x412BF, size: 0x8, addend: 0x0, symName: __ZNSt3__15tupleIJRKNS_9allocatorIZN11ToppingListC1EvEUlvE3_EEEEC2B8ue170006INS_4_AndELi0EEES6_, symObjAddr: 0xE630, symBinAddr: 0x100011510, symSize: 0x34 }
  - { offsetInCU: 0x41307, offset: 0x41307, size: 0x8, addend: 0x0, symName: __ZNSt3__112__tuple_implINS_15__tuple_indicesIJLm0EEEEJRKNS_9allocatorIZN11ToppingListC1EvEUlvE3_EEEEC1B8ue170006IJLm0EEJS8_EJEJEJS8_EEENS1_IJXspT_EEEENS_13__tuple_typesIJDpT0_EEENS1_IJXspT1_EEEENSC_IJDpT2_EEEDpOT3_, symObjAddr: 0xE664, symBinAddr: 0x100011544, symSize: 0x34 }
  - { offsetInCU: 0x4139C, offset: 0x4139C, size: 0x8, addend: 0x0, symName: __ZNSt3__112__tuple_implINS_15__tuple_indicesIJLm0EEEEJRKNS_9allocatorIZN11ToppingListC1EvEUlvE3_EEEEC2B8ue170006IJLm0EEJS8_EJEJEJS8_EEENS1_IJXspT_EEEENS_13__tuple_typesIJDpT0_EEENS1_IJXspT1_EEEENSC_IJDpT2_EEEDpOT3_, symObjAddr: 0xE698, symBinAddr: 0x100011578, symSize: 0x34 }
  - { offsetInCU: 0x41431, offset: 0x41431, size: 0x8, addend: 0x0, symName: __ZNSt3__112__tuple_leafILm0ERKNS_9allocatorIZN11ToppingListC1EvEUlvE3_EELb0EEC2B8ue170006IS6_vEEOT_, symObjAddr: 0xE6CC, symBinAddr: 0x1000115AC, symSize: 0x20 }
  - { offsetInCU: 0x41474, offset: 0x41474, size: 0x8, addend: 0x0, symName: __ZNSt3__117__compressed_pairIZN11ToppingListC1EvEUlvE3_NS_9allocatorIS2_EEEC2B8ue170006IJRKS2_EJRKS4_EEENS_21piecewise_construct_tENS_5tupleIJDpT_EEENSC_IJDpT0_EEE, symObjAddr: 0xE6EC, symBinAddr: 0x1000115CC, symSize: 0x54 }
  - { offsetInCU: 0x414DE, offset: 0x414DE, size: 0x8, addend: 0x0, symName: __ZNSt3__122__compressed_pair_elemINS_9allocatorIZN11ToppingListC1EvEUlvE3_EELi1ELb1EEC2B8ue170006IJRKS4_EJLm0EEEENS_21piecewise_construct_tENS_5tupleIJDpT_EEENS_15__tuple_indicesIJXspT0_EEEE, symObjAddr: 0xE740, symBinAddr: 0x100011620, symSize: 0x38 }
  - { offsetInCU: 0x41541, offset: 0x41541, size: 0x8, addend: 0x0, symName: __ZNSt3__112__tuple_leafILm0ERKNS_9allocatorIZN11ToppingListC1EvEUlvE3_EELb0EE3getB8ue170006Ev, symObjAddr: 0xE79C, symBinAddr: 0x10001167C, symSize: 0x18 }
  - { offsetInCU: 0x41567, offset: 0x41567, size: 0x8, addend: 0x0, symName: __ZNSt3__110__function12__alloc_funcIZN11ToppingListC1EvEUlvE3_NS_9allocatorIS3_EEFNS_10unique_ptrI12SweetToppingNS_14default_deleteIS7_EEEEvEE7destroyB8ue170006Ev, symObjAddr: 0xE7B4, symBinAddr: 0x100011694, symSize: 0x10 }
  - { offsetInCU: 0x4158D, offset: 0x4158D, size: 0x8, addend: 0x0, symName: __ZNSt3__110__function12__alloc_funcIZN11ToppingListC1EvEUlvE3_NS_9allocatorIS3_EEFNS_10unique_ptrI12SweetToppingNS_14default_deleteIS7_EEEEvEEclB8ue170006Ev, symObjAddr: 0xE7C4, symBinAddr: 0x1000116A4, symSize: 0x34 }
  - { offsetInCU: 0x415B3, offset: 0x415B3, size: 0x8, addend: 0x0, symName: __ZNSt3__128__invoke_void_return_wrapperINS_10unique_ptrI12SweetToppingNS_14default_deleteIS2_EEEELb0EE6__callB8ue170006IJRZN11ToppingListC1EvEUlvE3_EEES5_DpOT_, symObjAddr: 0xE7F8, symBinAddr: 0x1000116D8, symSize: 0x2C }
  - { offsetInCU: 0x415E2, offset: 0x415E2, size: 0x8, addend: 0x0, symName: __ZNSt3__117__compressed_pairIZN11ToppingListC1EvEUlvE3_NS_9allocatorIS2_EEE5firstB8ue170006Ev, symObjAddr: 0xE824, symBinAddr: 0x100011704, symSize: 0x24 }
  - { offsetInCU: 0x4160E, offset: 0x4160E, size: 0x8, addend: 0x0, symName: __ZZN11ToppingListC1EvENKUlvE3_clEv, symObjAddr: 0xE874, symBinAddr: 0x100011754, symSize: 0x3C }
  - { offsetInCU: 0x41638, offset: 0x41638, size: 0x8, addend: 0x0, symName: __ZNSt3__122__compressed_pair_elemIZN11ToppingListC1EvEUlvE3_Li0ELb1EE5__getB8ue170006Ev, symObjAddr: 0xE98C, symBinAddr: 0x10001186C, symSize: 0x14 }
  - { offsetInCU: 0x4165E, offset: 0x4165E, size: 0x8, addend: 0x0, symName: __ZNSt3__16vectorINS_8functionIFNS_10unique_ptrI12SweetToppingNS_14default_deleteIS3_EEEEvEEENS_9allocatorIS8_EEED2B8ue170006Ev, symObjAddr: 0xE9A0, symBinAddr: 0x100011880, symSize: 0x44 }
  - { offsetInCU: 0x41688, offset: 0x41688, size: 0x8, addend: 0x0, symName: __ZNSt3__16vectorINS_8functionIFNS_10unique_ptrI12SweetToppingNS_14default_deleteIS3_EEEEvEEENS_9allocatorIS8_EEE16__destroy_vectorC1B8ue170006ERSB_, symObjAddr: 0xE9E4, symBinAddr: 0x1000118C4, symSize: 0x34 }
  - { offsetInCU: 0x416C1, offset: 0x416C1, size: 0x8, addend: 0x0, symName: __ZNSt3__16vectorINS_8functionIFNS_10unique_ptrI12SweetToppingNS_14default_deleteIS3_EEEEvEEENS_9allocatorIS8_EEE16__destroy_vectorclB8ue170006Ev, symObjAddr: 0xEA18, symBinAddr: 0x1000118F8, symSize: 0x90 }
  - { offsetInCU: 0x416E7, offset: 0x416E7, size: 0x8, addend: 0x0, symName: __ZNSt3__16vectorINS_8functionIFNS_10unique_ptrI12SweetToppingNS_14default_deleteIS3_EEEEvEEENS_9allocatorIS8_EEE16__destroy_vectorC2B8ue170006ERSB_, symObjAddr: 0xEAA8, symBinAddr: 0x100011988, symSize: 0x20 }
  - { offsetInCU: 0x41720, offset: 0x41720, size: 0x8, addend: 0x0, symName: __ZNSt3__16vectorINS_8functionIFNS_10unique_ptrI12SweetToppingNS_14default_deleteIS3_EEEEvEEENS_9allocatorIS8_EEE7__clearB8ue170006Ev, symObjAddr: 0xEAC8, symBinAddr: 0x1000119A8, symSize: 0x28 }
  - { offsetInCU: 0x41746, offset: 0x41746, size: 0x8, addend: 0x0, symName: __ZNSt3__16vectorINS_8functionIFNS_10unique_ptrI12SweetToppingNS_14default_deleteIS3_EEEEvEEENS_9allocatorIS8_EEE22__base_destruct_at_endB8ue170006EPS8_, symObjAddr: 0xEAF0, symBinAddr: 0x1000119D0, symSize: 0x8C }
  - { offsetInCU: 0x4178A, offset: 0x4178A, size: 0x8, addend: 0x0, symName: __ZNSt3__16vectorINS_8functionIFNS_10unique_ptrI12FruitToppingNS_14default_deleteIS3_EEEEvEEENS_9allocatorIS8_EEED2B8ue170006Ev, symObjAddr: 0xEB7C, symBinAddr: 0x100011A5C, symSize: 0x44 }
  - { offsetInCU: 0x417B4, offset: 0x417B4, size: 0x8, addend: 0x0, symName: __ZNSt3__16vectorINS_8functionIFNS_10unique_ptrI12FruitToppingNS_14default_deleteIS3_EEEEvEEENS_9allocatorIS8_EEE16__destroy_vectorC1B8ue170006ERSB_, symObjAddr: 0xEBC0, symBinAddr: 0x100011AA0, symSize: 0x34 }
  - { offsetInCU: 0x417ED, offset: 0x417ED, size: 0x8, addend: 0x0, symName: __ZNSt3__16vectorINS_8functionIFNS_10unique_ptrI12FruitToppingNS_14default_deleteIS3_EEEEvEEENS_9allocatorIS8_EEE16__destroy_vectorclB8ue170006Ev, symObjAddr: 0xEBF4, symBinAddr: 0x100011AD4, symSize: 0x90 }
  - { offsetInCU: 0x41813, offset: 0x41813, size: 0x8, addend: 0x0, symName: __ZNSt3__16vectorINS_8functionIFNS_10unique_ptrI12FruitToppingNS_14default_deleteIS3_EEEEvEEENS_9allocatorIS8_EEE16__destroy_vectorC2B8ue170006ERSB_, symObjAddr: 0xEC84, symBinAddr: 0x100011B64, symSize: 0x20 }
  - { offsetInCU: 0x4184C, offset: 0x4184C, size: 0x8, addend: 0x0, symName: __ZNSt3__16vectorINS_8functionIFNS_10unique_ptrI12FruitToppingNS_14default_deleteIS3_EEEEvEEENS_9allocatorIS8_EEE7__clearB8ue170006Ev, symObjAddr: 0xECA4, symBinAddr: 0x100011B84, symSize: 0x28 }
  - { offsetInCU: 0x41872, offset: 0x41872, size: 0x8, addend: 0x0, symName: __ZNSt3__16vectorINS_8functionIFNS_10unique_ptrI12FruitToppingNS_14default_deleteIS3_EEEEvEEENS_9allocatorIS8_EEE22__base_destruct_at_endB8ue170006EPS8_, symObjAddr: 0xECCC, symBinAddr: 0x100011BAC, symSize: 0x8C }
  - { offsetInCU: 0x418B6, offset: 0x418B6, size: 0x8, addend: 0x0, symName: __ZNSt3__16vectorINS_12basic_stringIcNS_11char_traitsIcEENS_9allocatorIcEEEENS4_IS6_EEED2B8ue170006Ev, symObjAddr: 0xED58, symBinAddr: 0x100011C38, symSize: 0x40 }
  - { offsetInCU: 0x41A1A, offset: 0x41A1A, size: 0x8, addend: 0x0, symName: __ZNSt3__114basic_ifstreamIcNS_11char_traitsIcEEEC1ERKNS_12basic_stringIcS2_NS_9allocatorIcEEEEj, symObjAddr: 0xED98, symBinAddr: 0x100011C78, symSize: 0x16C }
  - { offsetInCU: 0x41A64, offset: 0x41A64, size: 0x8, addend: 0x0, symName: __ZNKSt3__19basic_iosIcNS_11char_traitsIcEEEntB8ue170006Ev, symObjAddr: 0xEF04, symBinAddr: 0x100011DE4, symSize: 0x28 }
  - { offsetInCU: 0x41A8A, offset: 0x41A8A, size: 0x8, addend: 0x0, symName: __ZNSt3__111char_traitsIcE3eofB8ue170006Ev, symObjAddr: 0xEF2C, symBinAddr: 0x100011E0C, symSize: 0x8 }
  - { offsetInCU: 0x41A9E, offset: 0x41A9E, size: 0x8, addend: 0x0, symName: __ZNSt3__16vectorINS_12basic_stringIcNS_11char_traitsIcEENS_9allocatorIcEEEENS4_IS6_EEE5clearB8ue170006Ev, symObjAddr: 0xEF34, symBinAddr: 0x100011E14, symSize: 0x44 }
  - { offsetInCU: 0x41AD3, offset: 0x41AD3, size: 0x8, addend: 0x0, symName: __ZNSt3__16vectorINS_12basic_stringIcNS_11char_traitsIcEENS_9allocatorIcEEEENS4_IS6_EEE9push_backB8ue170006ERKS6_, symObjAddr: 0xEF78, symBinAddr: 0x100011E58, symSize: 0x6C }
  - { offsetInCU: 0x41B0A, offset: 0x41B0A, size: 0x8, addend: 0x0, symName: __ZN11PlayerLevelC1Eii, symObjAddr: 0xEFE4, symBinAddr: 0x100011EC4, symSize: 0x3C }
  - { offsetInCU: 0x41B56, offset: 0x41B56, size: 0x8, addend: 0x0, symName: __ZNSt3__114basic_ifstreamIcNS_11char_traitsIcEEED1Ev, symObjAddr: 0xF06C, symBinAddr: 0x100011F4C, symSize: 0x40 }
  - { offsetInCU: 0x41B83, offset: 0x41B83, size: 0x8, addend: 0x0, symName: __ZNSt3__19basic_iosIcNS_11char_traitsIcEEEC2B8ue170006Ev, symObjAddr: 0xF0AC, symBinAddr: 0x100011F8C, symSize: 0x44 }
  - { offsetInCU: 0x41BAD, offset: 0x41BAD, size: 0x8, addend: 0x0, symName: __ZNSt3__113basic_istreamIcNS_11char_traitsIcEEEC2B8ue170006EPNS_15basic_streambufIcS2_EE, symObjAddr: 0xF0F0, symBinAddr: 0x100011FD0, symSize: 0x64 }
  - { offsetInCU: 0x41BF2, offset: 0x41BF2, size: 0x8, addend: 0x0, symName: __ZNSt3__113basic_filebufIcNS_11char_traitsIcEEE4openERKNS_12basic_stringIcS2_NS_9allocatorIcEEEEj, symObjAddr: 0xF154, symBinAddr: 0x100012034, symSize: 0x44 }
  - { offsetInCU: 0x41C36, offset: 0x41C36, size: 0x8, addend: 0x0, symName: __ZNSt3__19basic_iosIcNS_11char_traitsIcEEE8setstateB8ue170006Ej, symObjAddr: 0xF198, symBinAddr: 0x100012078, symSize: 0x2C }
  - { offsetInCU: 0x41C6B, offset: 0x41C6B, size: 0x8, addend: 0x0, symName: __ZNSt3__18ios_baseC2B8ue170006Ev, symObjAddr: 0xF1C4, symBinAddr: 0x1000120A4, symSize: 0x24 }
  - { offsetInCU: 0x41C95, offset: 0x41C95, size: 0x8, addend: 0x0, symName: __ZNSt3__19basic_iosIcNS_11char_traitsIcEEE4initB8ue170006EPNS_15basic_streambufIcS2_EE, symObjAddr: 0xF1E8, symBinAddr: 0x1000120C8, symSize: 0x44 }
  - { offsetInCU: 0x41CCC, offset: 0x41CCC, size: 0x8, addend: 0x0, symName: __ZNKSt3__112basic_stringIcNS_11char_traitsIcEENS_9allocatorIcEEE5c_strB8ue170006Ev, symObjAddr: 0xF22C, symBinAddr: 0x10001210C, symSize: 0x24 }
  - { offsetInCU: 0x41CF2, offset: 0x41CF2, size: 0x8, addend: 0x0, symName: __ZNKSt3__112basic_stringIcNS_11char_traitsIcEENS_9allocatorIcEEE4dataB8ue170006Ev, symObjAddr: 0xF250, symBinAddr: 0x100012130, symSize: 0x28 }
  - { offsetInCU: 0x41D18, offset: 0x41D18, size: 0x8, addend: 0x0, symName: __ZNKSt3__112basic_stringIcNS_11char_traitsIcEENS_9allocatorIcEEE13__get_pointerB8ue170006Ev, symObjAddr: 0xF28C, symBinAddr: 0x10001216C, symSize: 0x54 }
  - { offsetInCU: 0x41D3E, offset: 0x41D3E, size: 0x8, addend: 0x0, symName: __ZNKSt3__112basic_stringIcNS_11char_traitsIcEENS_9allocatorIcEEE9__is_longB8ue170006Ev, symObjAddr: 0xF2E0, symBinAddr: 0x1000121C0, symSize: 0x38 }
  - { offsetInCU: 0x41D64, offset: 0x41D64, size: 0x8, addend: 0x0, symName: __ZNKSt3__112basic_stringIcNS_11char_traitsIcEENS_9allocatorIcEEE18__get_long_pointerB8ue170006Ev, symObjAddr: 0xF318, symBinAddr: 0x1000121F8, symSize: 0x28 }
  - { offsetInCU: 0x41D8A, offset: 0x41D8A, size: 0x8, addend: 0x0, symName: __ZNKSt3__112basic_stringIcNS_11char_traitsIcEENS_9allocatorIcEEE19__get_short_pointerB8ue170006Ev, symObjAddr: 0xF340, symBinAddr: 0x100012220, symSize: 0x28 }
  - { offsetInCU: 0x41DB0, offset: 0x41DB0, size: 0x8, addend: 0x0, symName: __ZNKSt3__117__compressed_pairINS_12basic_stringIcNS_11char_traitsIcEENS_9allocatorIcEEE5__repES5_E5firstB8ue170006Ev, symObjAddr: 0xF368, symBinAddr: 0x100012248, symSize: 0x24 }
  - { offsetInCU: 0x41DD6, offset: 0x41DD6, size: 0x8, addend: 0x0, symName: __ZNKSt3__122__compressed_pair_elemINS_12basic_stringIcNS_11char_traitsIcEENS_9allocatorIcEEE5__repELi0ELb0EE5__getB8ue170006Ev, symObjAddr: 0xF38C, symBinAddr: 0x10001226C, symSize: 0x14 }
  - { offsetInCU: 0x41DFC, offset: 0x41DFC, size: 0x8, addend: 0x0, symName: __ZNSt3__114pointer_traitsIPKcE10pointer_toB8ue170006ERS1_, symObjAddr: 0xF3A0, symBinAddr: 0x100012280, symSize: 0x14 }
  - { offsetInCU: 0x41E1F, offset: 0x41E1F, size: 0x8, addend: 0x0, symName: __ZNSt3__18ios_base8setstateB8ue170006Ej, symObjAddr: 0xF3B4, symBinAddr: 0x100012294, symSize: 0x34 }
  - { offsetInCU: 0x41E56, offset: 0x41E56, size: 0x8, addend: 0x0, symName: __ZNKSt3__19basic_iosIcNS_11char_traitsIcEEE4failB8ue170006Ev, symObjAddr: 0xF3E8, symBinAddr: 0x1000122C8, symSize: 0x28 }
  - { offsetInCU: 0x41E7C, offset: 0x41E7C, size: 0x8, addend: 0x0, symName: __ZNKSt3__18ios_base4failB8ue170006Ev, symObjAddr: 0xF410, symBinAddr: 0x1000122F0, symSize: 0x28 }
  - { offsetInCU: 0x41EA4, offset: 0x41EA4, size: 0x8, addend: 0x0, symName: __ZNKSt3__16vectorINS_12basic_stringIcNS_11char_traitsIcEENS_9allocatorIcEEEENS4_IS6_EEE17__annotate_shrinkB8ue170006Em, symObjAddr: 0xF438, symBinAddr: 0x100012318, symSize: 0xD0 }
  - { offsetInCU: 0x41ED9, offset: 0x41ED9, size: 0x8, addend: 0x0, symName: __ZNSt3__16vectorINS_12basic_stringIcNS_11char_traitsIcEENS_9allocatorIcEEEENS4_IS6_EEE22__construct_one_at_endB8ue170006IJRKS6_EEEvDpOT_, symObjAddr: 0xF508, symBinAddr: 0x1000123E8, symSize: 0x90 }
  - { offsetInCU: 0x41F28, offset: 0x41F28, size: 0x8, addend: 0x0, symName: __ZNSt3__16vectorINS_12basic_stringIcNS_11char_traitsIcEENS_9allocatorIcEEEENS4_IS6_EEE21__push_back_slow_pathIRKS6_EEvOT_, symObjAddr: 0xF598, symBinAddr: 0x100012478, symSize: 0xD8 }
  - { offsetInCU: 0x41F86, offset: 0x41F86, size: 0x8, addend: 0x0, symName: __ZNKSt3__16vectorINS_12basic_stringIcNS_11char_traitsIcEENS_9allocatorIcEEEENS4_IS6_EEE11__recommendB8ue170006Em, symObjAddr: 0xF670, symBinAddr: 0x100012550, symSize: 0xB4 }
  - { offsetInCU: 0x41FDB, offset: 0x41FDB, size: 0x8, addend: 0x0, symName: __ZNSt3__114__split_bufferINS_12basic_stringIcNS_11char_traitsIcEENS_9allocatorIcEEEERNS4_IS6_EEEC1EmmS8_, symObjAddr: 0xF724, symBinAddr: 0x100012604, symSize: 0x44 }
  - { offsetInCU: 0x42031, offset: 0x42031, size: 0x8, addend: 0x0, symName: __ZNSt3__114__split_bufferINS_12basic_stringIcNS_11char_traitsIcEENS_9allocatorIcEEEERNS4_IS6_EEED1Ev, symObjAddr: 0xF878, symBinAddr: 0x100012758, symSize: 0x2C }
  - { offsetInCU: 0x4205D, offset: 0x4205D, size: 0x8, addend: 0x0, symName: __ZNSt3__114__split_bufferINS_12basic_stringIcNS_11char_traitsIcEENS_9allocatorIcEEEERNS4_IS6_EEEC2EmmS8_, symObjAddr: 0xF8A4, symBinAddr: 0x100012784, symSize: 0xE0 }
  - { offsetInCU: 0x420D0, offset: 0x420D0, size: 0x8, addend: 0x0, symName: __ZNSt3__117__compressed_pairIPNS_12basic_stringIcNS_11char_traitsIcEENS_9allocatorIcEEEERNS4_IS6_EEEC1B8ue170006IDnS9_EEOT_OT0_, symObjAddr: 0xF984, symBinAddr: 0x100012864, symSize: 0x3C }
  - { offsetInCU: 0x42128, offset: 0x42128, size: 0x8, addend: 0x0, symName: __ZNSt3__114__split_bufferINS_12basic_stringIcNS_11char_traitsIcEENS_9allocatorIcEEEERNS4_IS6_EEE7__allocB8ue170006Ev, symObjAddr: 0xF9C0, symBinAddr: 0x1000128A0, symSize: 0x28 }
  - { offsetInCU: 0x4214E, offset: 0x4214E, size: 0x8, addend: 0x0, symName: __ZNSt3__114__split_bufferINS_12basic_stringIcNS_11char_traitsIcEENS_9allocatorIcEEEERNS4_IS6_EEE9__end_capB8ue170006Ev, symObjAddr: 0xF9E8, symBinAddr: 0x1000128C8, symSize: 0x28 }
  - { offsetInCU: 0x42174, offset: 0x42174, size: 0x8, addend: 0x0, symName: __ZNSt3__117__compressed_pairIPNS_12basic_stringIcNS_11char_traitsIcEENS_9allocatorIcEEEERNS4_IS6_EEEC2B8ue170006IDnS9_EEOT_OT0_, symObjAddr: 0xFA10, symBinAddr: 0x1000128F0, symSize: 0x48 }
  - { offsetInCU: 0x421CC, offset: 0x421CC, size: 0x8, addend: 0x0, symName: __ZNSt3__122__compressed_pair_elemIRNS_9allocatorINS_12basic_stringIcNS_11char_traitsIcEENS1_IcEEEEEELi1ELb0EEC2B8ue170006IS8_vEEOT_, symObjAddr: 0xFA58, symBinAddr: 0x100012938, symSize: 0x20 }
  - { offsetInCU: 0x4220E, offset: 0x4220E, size: 0x8, addend: 0x0, symName: __ZNSt3__117__compressed_pairIPNS_12basic_stringIcNS_11char_traitsIcEENS_9allocatorIcEEEERNS4_IS6_EEE6secondB8ue170006Ev, symObjAddr: 0xFA78, symBinAddr: 0x100012958, symSize: 0x28 }
  - { offsetInCU: 0x42234, offset: 0x42234, size: 0x8, addend: 0x0, symName: __ZNSt3__122__compressed_pair_elemIRNS_9allocatorINS_12basic_stringIcNS_11char_traitsIcEENS1_IcEEEEEELi1ELb0EE5__getB8ue170006Ev, symObjAddr: 0xFAA0, symBinAddr: 0x100012980, symSize: 0x18 }
  - { offsetInCU: 0x4225A, offset: 0x4225A, size: 0x8, addend: 0x0, symName: __ZNSt3__117__compressed_pairIPNS_12basic_stringIcNS_11char_traitsIcEENS_9allocatorIcEEEERNS4_IS6_EEE5firstB8ue170006Ev, symObjAddr: 0xFAB8, symBinAddr: 0x100012998, symSize: 0x24 }
  - { offsetInCU: 0x42280, offset: 0x42280, size: 0x8, addend: 0x0, symName: __ZNSt3__129_AllocatorDestroyRangeReverseINS_9allocatorINS_12basic_stringIcNS_11char_traitsIcEENS1_IcEEEEEENS_16reverse_iteratorIPS6_EEEC1B8ue170006ERS7_RSA_SD_, symObjAddr: 0xFC80, symBinAddr: 0x100012B60, symSize: 0x44 }
  - { offsetInCU: 0x422DD, offset: 0x422DD, size: 0x8, addend: 0x0, symName: __ZNSt3__116allocator_traitsINS_9allocatorINS_12basic_stringIcNS_11char_traitsIcEENS1_IcEEEEEEE9constructB8ue170006IS6_JS6_EvEEvRS7_PT_DpOT0_, symObjAddr: 0xFCC4, symBinAddr: 0x100012BA4, symSize: 0x34 }
  - { offsetInCU: 0x42334, offset: 0x42334, size: 0x8, addend: 0x0, symName: __ZNSt3__128__exception_guard_exceptionsINS_29_AllocatorDestroyRangeReverseINS_9allocatorINS_12basic_stringIcNS_11char_traitsIcEENS2_IcEEEEEENS_16reverse_iteratorIPS7_EEEEE10__completeB8ue170006Ev, symObjAddr: 0xFCF8, symBinAddr: 0x100012BD8, symSize: 0x1C }
  - { offsetInCU: 0x4235A, offset: 0x4235A, size: 0x8, addend: 0x0, symName: __ZNSt3__128__exception_guard_exceptionsINS_29_AllocatorDestroyRangeReverseINS_9allocatorINS_12basic_stringIcNS_11char_traitsIcEENS2_IcEEEEEENS_16reverse_iteratorIPS7_EEEEED1B8ue170006Ev, symObjAddr: 0xFD14, symBinAddr: 0x100012BF4, symSize: 0x2C }
  - { offsetInCU: 0x42384, offset: 0x42384, size: 0x8, addend: 0x0, symName: __ZNSt3__128__exception_guard_exceptionsINS_29_AllocatorDestroyRangeReverseINS_9allocatorINS_12basic_stringIcNS_11char_traitsIcEENS2_IcEEEEEENS_16reverse_iteratorIPS7_EEEEEC1B8ue170006ESC_, symObjAddr: 0xFD40, symBinAddr: 0x100012C20, symSize: 0x34 }
  - { offsetInCU: 0x423BD, offset: 0x423BD, size: 0x8, addend: 0x0, symName: __ZNSt3__128__exception_guard_exceptionsINS_29_AllocatorDestroyRangeReverseINS_9allocatorINS_12basic_stringIcNS_11char_traitsIcEENS2_IcEEEEEENS_16reverse_iteratorIPS7_EEEEEC2B8ue170006ESC_, symObjAddr: 0xFD74, symBinAddr: 0x100012C54, symSize: 0x30 }
  - { offsetInCU: 0x423F6, offset: 0x423F6, size: 0x8, addend: 0x0, symName: __ZNSt3__129_AllocatorDestroyRangeReverseINS_9allocatorINS_12basic_stringIcNS_11char_traitsIcEENS1_IcEEEEEENS_16reverse_iteratorIPS6_EEEC2B8ue170006ERS7_RSA_SD_, symObjAddr: 0xFDA4, symBinAddr: 0x100012C84, symSize: 0x38 }
  - { offsetInCU: 0x4244D, offset: 0x4244D, size: 0x8, addend: 0x0, symName: __ZNSt3__19allocatorINS_12basic_stringIcNS_11char_traitsIcEENS0_IcEEEEE9constructB8ue170006IS5_JS5_EEEvPT_DpOT0_, symObjAddr: 0xFDDC, symBinAddr: 0x100012CBC, symSize: 0x30 }
  - { offsetInCU: 0x424A3, offset: 0x424A3, size: 0x8, addend: 0x0, symName: __ZNSt3__112basic_stringIcNS_11char_traitsIcEENS_9allocatorIcEEEC1B8ue170006EOS5_, symObjAddr: 0xFE0C, symBinAddr: 0x100012CEC, symSize: 0x34 }
  - { offsetInCU: 0x424DC, offset: 0x424DC, size: 0x8, addend: 0x0, symName: __ZNSt3__112basic_stringIcNS_11char_traitsIcEENS_9allocatorIcEEEC2B8ue170006EOS5_, symObjAddr: 0xFE40, symBinAddr: 0x100012D20, symSize: 0x50 }
  - { offsetInCU: 0x42515, offset: 0x42515, size: 0x8, addend: 0x0, symName: __ZNSt3__112basic_stringIcNS_11char_traitsIcEENS_9allocatorIcEEE14__default_initB8ue170006Ev, symObjAddr: 0xFE90, symBinAddr: 0x100012D70, symSize: 0x40 }
  - { offsetInCU: 0x4253B, offset: 0x4253B, size: 0x8, addend: 0x0, symName: __ZNSt3__117__compressed_pairINS_12basic_stringIcNS_11char_traitsIcEENS_9allocatorIcEEE5__repES5_E5firstB8ue170006Ev, symObjAddr: 0xFED0, symBinAddr: 0x100012DB0, symSize: 0x24 }
  - { offsetInCU: 0x42561, offset: 0x42561, size: 0x8, addend: 0x0, symName: __ZNSt3__122__compressed_pair_elemINS_12basic_stringIcNS_11char_traitsIcEENS_9allocatorIcEEE5__repELi0ELb0EE5__getB8ue170006Ev, symObjAddr: 0xFEF4, symBinAddr: 0x100012DD4, symSize: 0x14 }
  - { offsetInCU: 0x42587, offset: 0x42587, size: 0x8, addend: 0x0, symName: __ZNSt3__128__exception_guard_exceptionsINS_29_AllocatorDestroyRangeReverseINS_9allocatorINS_12basic_stringIcNS_11char_traitsIcEENS2_IcEEEEEENS_16reverse_iteratorIPS7_EEEEED2B8ue170006Ev, symObjAddr: 0xFF08, symBinAddr: 0x100012DE8, symSize: 0x50 }
  - { offsetInCU: 0x425B1, offset: 0x425B1, size: 0x8, addend: 0x0, symName: __ZNKSt3__129_AllocatorDestroyRangeReverseINS_9allocatorINS_12basic_stringIcNS_11char_traitsIcEENS1_IcEEEEEENS_16reverse_iteratorIPS6_EEEclB8ue170006Ev, symObjAddr: 0xFF58, symBinAddr: 0x100012E38, symSize: 0xB4 }
  - { offsetInCU: 0x425D8, offset: 0x425D8, size: 0x8, addend: 0x0, symName: __ZNSt3__116reverse_iteratorINS0_IPNS_12basic_stringIcNS_11char_traitsIcEENS_9allocatorIcEEEEEEEC1B8ue170006ES8_, symObjAddr: 0x1007C, symBinAddr: 0x100012F5C, symSize: 0x3C }
  - { offsetInCU: 0x42610, offset: 0x42610, size: 0x8, addend: 0x0, symName: __ZNSt3__116reverse_iteratorINS0_IPNS_12basic_stringIcNS_11char_traitsIcEENS_9allocatorIcEEEEEEEppB8ue170006Ev, symObjAddr: 0x1013C, symBinAddr: 0x10001301C, symSize: 0x30 }
  - { offsetInCU: 0x42636, offset: 0x42636, size: 0x8, addend: 0x0, symName: __ZNKSt3__116reverse_iteratorINS0_IPNS_12basic_stringIcNS_11char_traitsIcEENS_9allocatorIcEEEEEEE4baseB8ue170006Ev, symObjAddr: 0x1016C, symBinAddr: 0x10001304C, symSize: 0x24 }
  - { offsetInCU: 0x42662, offset: 0x42662, size: 0x8, addend: 0x0, symName: __ZNSt3__119__to_address_helperINS_16reverse_iteratorINS1_IPNS_12basic_stringIcNS_11char_traitsIcEENS_9allocatorIcEEEEEEEEvE6__callB8ue170006ERKSA_, symObjAddr: 0x10190, symBinAddr: 0x100013070, symSize: 0x38 }
  - { offsetInCU: 0x42685, offset: 0x42685, size: 0x8, addend: 0x0, symName: __ZNKSt3__116reverse_iteratorINS0_IPNS_12basic_stringIcNS_11char_traitsIcEENS_9allocatorIcEEEEEEEptB8ue170006Ev, symObjAddr: 0x101C8, symBinAddr: 0x1000130A8, symSize: 0x24 }
  - { offsetInCU: 0x426AB, offset: 0x426AB, size: 0x8, addend: 0x0, symName: __ZNKSt3__116reverse_iteratorINS0_IPNS_12basic_stringIcNS_11char_traitsIcEENS_9allocatorIcEEEEEEEdeB8ue170006Ev, symObjAddr: 0x101EC, symBinAddr: 0x1000130CC, symSize: 0x34 }
  - { offsetInCU: 0x426DF, offset: 0x426DF, size: 0x8, addend: 0x0, symName: __ZNSt3__116reverse_iteratorIPNS_12basic_stringIcNS_11char_traitsIcEENS_9allocatorIcEEEEEmmB8ue170006Ev, symObjAddr: 0x10220, symBinAddr: 0x100013100, symSize: 0x20 }
  - { offsetInCU: 0x42705, offset: 0x42705, size: 0x8, addend: 0x0, symName: __ZNSt3__116reverse_iteratorINS0_IPNS_12basic_stringIcNS_11char_traitsIcEENS_9allocatorIcEEEEEEEC2B8ue170006ES8_, symObjAddr: 0x10240, symBinAddr: 0x100013120, symSize: 0x2C }
  - { offsetInCU: 0x4273D, offset: 0x4273D, size: 0x8, addend: 0x0, symName: __ZNSt3__114__split_bufferINS_12basic_stringIcNS_11char_traitsIcEENS_9allocatorIcEEEERNS4_IS6_EEED2Ev, symObjAddr: 0x1026C, symBinAddr: 0x10001314C, symSize: 0x8C }
  - { offsetInCU: 0x42769, offset: 0x42769, size: 0x8, addend: 0x0, symName: __ZNSt3__114__split_bufferINS_12basic_stringIcNS_11char_traitsIcEENS_9allocatorIcEEEERNS4_IS6_EEE5clearB8ue170006Ev, symObjAddr: 0x102F8, symBinAddr: 0x1000131D8, symSize: 0x28 }
  - { offsetInCU: 0x4278F, offset: 0x4278F, size: 0x8, addend: 0x0, symName: __ZNKSt3__114__split_bufferINS_12basic_stringIcNS_11char_traitsIcEENS_9allocatorIcEEEERNS4_IS6_EEE8capacityB8ue170006Ev, symObjAddr: 0x10320, symBinAddr: 0x100013200, symSize: 0x40 }
  - { offsetInCU: 0x427B5, offset: 0x427B5, size: 0x8, addend: 0x0, symName: __ZNSt3__114__split_bufferINS_12basic_stringIcNS_11char_traitsIcEENS_9allocatorIcEEEERNS4_IS6_EEE17__destruct_at_endB8ue170006EPS6_, symObjAddr: 0x10360, symBinAddr: 0x100013240, symSize: 0x2C }
  - { offsetInCU: 0x427E9, offset: 0x427E9, size: 0x8, addend: 0x0, symName: __ZNSt3__114__split_bufferINS_12basic_stringIcNS_11char_traitsIcEENS_9allocatorIcEEEERNS4_IS6_EEE17__destruct_at_endB8ue170006EPS6_NS_17integral_constantIbLb0EEE, symObjAddr: 0x1038C, symBinAddr: 0x10001326C, symSize: 0x80 }
  - { offsetInCU: 0x42829, offset: 0x42829, size: 0x8, addend: 0x0, symName: __ZNKSt3__114__split_bufferINS_12basic_stringIcNS_11char_traitsIcEENS_9allocatorIcEEEERNS4_IS6_EEE9__end_capB8ue170006Ev, symObjAddr: 0x1040C, symBinAddr: 0x1000132EC, symSize: 0x28 }
  - { offsetInCU: 0x4284F, offset: 0x4284F, size: 0x8, addend: 0x0, symName: __ZNKSt3__117__compressed_pairIPNS_12basic_stringIcNS_11char_traitsIcEENS_9allocatorIcEEEERNS4_IS6_EEE5firstB8ue170006Ev, symObjAddr: 0x10434, symBinAddr: 0x100013314, symSize: 0x24 }
  - { offsetInCU: 0x42875, offset: 0x42875, size: 0x8, addend: 0x0, symName: __ZN11PlayerLevelC2Eii, symObjAddr: 0x10458, symBinAddr: 0x100013338, symSize: 0x2C }
  - { offsetInCU: 0x428BB, offset: 0x428BB, size: 0x8, addend: 0x0, symName: __ZNKSt3__112basic_stringIcNS_11char_traitsIcEENS_9allocatorIcEEE4sizeB8ue170006Ev, symObjAddr: 0x10670, symBinAddr: 0x100013550, symSize: 0x54 }
  - { offsetInCU: 0x42905, offset: 0x42905, size: 0x8, addend: 0x0, symName: __ZNKSt3__113basic_ostreamIcNS_11char_traitsIcEEE6sentrycvbB8ue170006Ev, symObjAddr: 0x106C4, symBinAddr: 0x1000135A4, symSize: 0x1C }
  - { offsetInCU: 0x4292B, offset: 0x4292B, size: 0x8, addend: 0x0, symName: __ZNSt3__119ostreambuf_iteratorIcNS_11char_traitsIcEEEC1B8ue170006ERNS_13basic_ostreamIcS2_EE, symObjAddr: 0x10920, symBinAddr: 0x100013800, symSize: 0x34 }
  - { offsetInCU: 0x42963, offset: 0x42963, size: 0x8, addend: 0x0, symName: __ZNKSt3__18ios_base5flagsB8ue170006Ev, symObjAddr: 0x10954, symBinAddr: 0x100013834, symSize: 0x18 }
  - { offsetInCU: 0x4298B, offset: 0x4298B, size: 0x8, addend: 0x0, symName: __ZNKSt3__19basic_iosIcNS_11char_traitsIcEEE4fillB8ue170006Ev, symObjAddr: 0x1096C, symBinAddr: 0x10001384C, symSize: 0x64 }
  - { offsetInCU: 0x429B3, offset: 0x429B3, size: 0x8, addend: 0x0, symName: __ZNKSt3__119ostreambuf_iteratorIcNS_11char_traitsIcEEE6failedB8ue170006Ev, symObjAddr: 0x109D0, symBinAddr: 0x1000138B0, symSize: 0x24 }
  - { offsetInCU: 0x429D9, offset: 0x429D9, size: 0x8, addend: 0x0, symName: __ZNKSt3__18ios_base5widthB8ue170006Ev, symObjAddr: 0x109F4, symBinAddr: 0x1000138D4, symSize: 0x18 }
  - { offsetInCU: 0x42A01, offset: 0x42A01, size: 0x8, addend: 0x0, symName: __ZNSt3__115basic_streambufIcNS_11char_traitsIcEEE5sputnB8ue170006EPKcl, symObjAddr: 0x10A0C, symBinAddr: 0x1000138EC, symSize: 0x3C }
  - { offsetInCU: 0x42A43, offset: 0x42A43, size: 0x8, addend: 0x0, symName: __ZNSt3__112basic_stringIcNS_11char_traitsIcEENS_9allocatorIcEEEC1B8ue170006Emc, symObjAddr: 0x10A48, symBinAddr: 0x100013928, symSize: 0x3C }
  - { offsetInCU: 0x42A8B, offset: 0x42A8B, size: 0x8, addend: 0x0, symName: __ZNSt3__112basic_stringIcNS_11char_traitsIcEENS_9allocatorIcEEE4dataB8ue170006Ev, symObjAddr: 0x10A84, symBinAddr: 0x100013964, symSize: 0x28 }
  - { offsetInCU: 0x42AB1, offset: 0x42AB1, size: 0x8, addend: 0x0, symName: __ZNSt3__18ios_base5widthB8ue170006El, symObjAddr: 0x10AAC, symBinAddr: 0x10001398C, symSize: 0x2C }
  - { offsetInCU: 0x42AF7, offset: 0x42AF7, size: 0x8, addend: 0x0, symName: __ZNSt3__112basic_stringIcNS_11char_traitsIcEENS_9allocatorIcEEEC2B8ue170006Emc, symObjAddr: 0x10AD8, symBinAddr: 0x1000139B8, symSize: 0x4C }
  - { offsetInCU: 0x42B3F, offset: 0x42B3F, size: 0x8, addend: 0x0, symName: __ZNSt3__117__compressed_pairINS_12basic_stringIcNS_11char_traitsIcEENS_9allocatorIcEEE5__repES5_EC1B8ue170006INS_18__default_init_tagESA_EEOT_OT0_, symObjAddr: 0x10B24, symBinAddr: 0x100013A04, symSize: 0x3C }
  - { offsetInCU: 0x42B97, offset: 0x42B97, size: 0x8, addend: 0x0, symName: __ZNSt3__117__compressed_pairINS_12basic_stringIcNS_11char_traitsIcEENS_9allocatorIcEEE5__repES5_EC2B8ue170006INS_18__default_init_tagESA_EEOT_OT0_, symObjAddr: 0x10B60, symBinAddr: 0x100013A40, symSize: 0x3C }
  - { offsetInCU: 0x42BEF, offset: 0x42BEF, size: 0x8, addend: 0x0, symName: __ZNSt3__122__compressed_pair_elemINS_12basic_stringIcNS_11char_traitsIcEENS_9allocatorIcEEE5__repELi0ELb0EEC2B8ue170006ENS_18__default_init_tagE, symObjAddr: 0x10B9C, symBinAddr: 0x100013A7C, symSize: 0x14 }
  - { offsetInCU: 0x42C23, offset: 0x42C23, size: 0x8, addend: 0x0, symName: __ZNSt3__122__compressed_pair_elemINS_9allocatorIcEELi1ELb1EEC2B8ue170006ENS_18__default_init_tagE, symObjAddr: 0x10BB0, symBinAddr: 0x100013A90, symSize: 0x2C }
  - { offsetInCU: 0x42C57, offset: 0x42C57, size: 0x8, addend: 0x0, symName: __ZNSt3__19allocatorIcEC2B8ue170006Ev, symObjAddr: 0x10BDC, symBinAddr: 0x100013ABC, symSize: 0x2C }
  - { offsetInCU: 0x42C81, offset: 0x42C81, size: 0x8, addend: 0x0, symName: __ZNSt3__116__non_trivial_ifILb1ENS_9allocatorIcEEEC2B8ue170006Ev, symObjAddr: 0x10C08, symBinAddr: 0x100013AE8, symSize: 0x14 }
  - { offsetInCU: 0x42CAB, offset: 0x42CAB, size: 0x8, addend: 0x0, symName: __ZNSt3__112basic_stringIcNS_11char_traitsIcEENS_9allocatorIcEEE13__get_pointerB8ue170006Ev, symObjAddr: 0x10C30, symBinAddr: 0x100013B10, symSize: 0x54 }
  - { offsetInCU: 0x42CD1, offset: 0x42CD1, size: 0x8, addend: 0x0, symName: __ZNSt3__112basic_stringIcNS_11char_traitsIcEENS_9allocatorIcEEE18__get_long_pointerB8ue170006Ev, symObjAddr: 0x10C84, symBinAddr: 0x100013B64, symSize: 0x28 }
  - { offsetInCU: 0x42CF7, offset: 0x42CF7, size: 0x8, addend: 0x0, symName: __ZNSt3__112basic_stringIcNS_11char_traitsIcEENS_9allocatorIcEEE19__get_short_pointerB8ue170006Ev, symObjAddr: 0x10CAC, symBinAddr: 0x100013B8C, symSize: 0x28 }
  - { offsetInCU: 0x42D1D, offset: 0x42D1D, size: 0x8, addend: 0x0, symName: __ZNSt3__114pointer_traitsIPcE10pointer_toB8ue170006ERc, symObjAddr: 0x10CD4, symBinAddr: 0x100013BB4, symSize: 0x14 }
  - { offsetInCU: 0x42D40, offset: 0x42D40, size: 0x8, addend: 0x0, symName: __ZNSt3__119ostreambuf_iteratorIcNS_11char_traitsIcEEEC2B8ue170006ERNS_13basic_ostreamIcS2_EE, symObjAddr: 0x10CE8, symBinAddr: 0x100013BC8, symSize: 0x54 }
  - { offsetInCU: 0x42D78, offset: 0x42D78, size: 0x8, addend: 0x0, symName: __ZNKSt3__19basic_iosIcNS_11char_traitsIcEEE5rdbufB8ue170006Ev, symObjAddr: 0x10D3C, symBinAddr: 0x100013C1C, symSize: 0x24 }
  - { offsetInCU: 0x42DA0, offset: 0x42DA0, size: 0x8, addend: 0x0, symName: __ZNKSt3__18ios_base5rdbufB8ue170006Ev, symObjAddr: 0x10D60, symBinAddr: 0x100013C40, symSize: 0x18 }
  - { offsetInCU: 0x42DC6, offset: 0x42DC6, size: 0x8, addend: 0x0, symName: __ZNSt3__111char_traitsIcE11eq_int_typeB8ue170006Eii, symObjAddr: 0x10D78, symBinAddr: 0x100013C58, symSize: 0x28 }
  - { offsetInCU: 0x42DF9, offset: 0x42DF9, size: 0x8, addend: 0x0, symName: __ZNKSt3__19basic_iosIcNS_11char_traitsIcEEE5widenB8ue170006Ec, symObjAddr: 0x10DA0, symBinAddr: 0x100013C80, symSize: 0x84 }
  - { offsetInCU: 0x42E72, offset: 0x42E72, size: 0x8, addend: 0x0, symName: __ZNKSt3__15ctypeIcE5widenB8ue170006Ec, symObjAddr: 0x10E50, symBinAddr: 0x100013D30, symSize: 0x38 }
  - { offsetInCU: 0x42EA7, offset: 0x42EA7, size: 0x8, addend: 0x0, symName: __ZNKSt3__112basic_stringIcNS_11char_traitsIcEENS_9allocatorIcEEE15__get_long_sizeB8ue170006Ev, symObjAddr: 0x10E88, symBinAddr: 0x100013D68, symSize: 0x28 }
  - { offsetInCU: 0x42ECD, offset: 0x42ECD, size: 0x8, addend: 0x0, symName: __ZNKSt3__112basic_stringIcNS_11char_traitsIcEENS_9allocatorIcEEE16__get_short_sizeB8ue170006Ev, symObjAddr: 0x10EB0, symBinAddr: 0x100013D90, symSize: 0x34 }
  - { offsetInCU: 0x42EF3, offset: 0x42EF3, size: 0x8, addend: 0x0, symName: __ZNSt3__114basic_ifstreamIcNS_11char_traitsIcEEED2Ev, symObjAddr: 0x10EE4, symBinAddr: 0x100013DC4, symSize: 0x64 }
  - { offsetInCU: 0x42F2D, offset: 0x42F2D, size: 0x8, addend: 0x0, symName: __ZTv0_n24_NSt3__114basic_ifstreamIcNS_11char_traitsIcEEED1Ev, symObjAddr: 0x10F48, symBinAddr: 0x100013E28, symSize: 0x28 }
  - { offsetInCU: 0x43007, offset: 0x43007, size: 0x8, addend: 0x0, symName: __ZN10DayManagerC1EiRKNSt3__16vectorINS0_12basic_stringIcNS0_11char_traitsIcEENS0_9allocatorIcEEEENS5_IS7_EEEERK11ToppingList, symObjAddr: 0x10F70, symBinAddr: 0x100013E50, symSize: 0x44 }
  - { offsetInCU: 0x4305B, offset: 0x4305B, size: 0x8, addend: 0x0, symName: __ZN10DayManager6runDayER11PlayerLevel, symObjAddr: 0x10FB4, symBinAddr: 0x100013E94, symSize: 0x6AC }
  - { offsetInCU: 0x4318A, offset: 0x4318A, size: 0x8, addend: 0x0, symName: __ZN10DayManagerD1Ev, symObjAddr: 0x11660, symBinAddr: 0x100014540, symSize: 0x2C }
  - { offsetInCU: 0x431B6, offset: 0x431B6, size: 0x8, addend: 0x0, symName: __ZNK11PlayerLevel8getLevelEv, symObjAddr: 0x1168C, symBinAddr: 0x10001456C, symSize: 0x18 }
  - { offsetInCU: 0x431DC, offset: 0x431DC, size: 0x8, addend: 0x0, symName: __ZN10DayManagerC2EiRKNSt3__16vectorINS0_12basic_stringIcNS0_11char_traitsIcEENS0_9allocatorIcEEEENS5_IS7_EEEERK11ToppingList, symObjAddr: 0x116A4, symBinAddr: 0x100014584, symSize: 0x88 }
  - { offsetInCU: 0x43230, offset: 0x43230, size: 0x8, addend: 0x0, symName: __ZNSt3__16vectorI8CustomerNS_9allocatorIS1_EEEC1B8ue170006Ev, symObjAddr: 0x1172C, symBinAddr: 0x10001460C, symSize: 0x2C }
  - { offsetInCU: 0x4325A, offset: 0x4325A, size: 0x8, addend: 0x0, symName: __ZNSt3__16vectorINS_12basic_stringIcNS_11char_traitsIcEENS_9allocatorIcEEEENS4_IS6_EEEC1ERKS8_, symObjAddr: 0x11758, symBinAddr: 0x100014638, symSize: 0x34 }
  - { offsetInCU: 0x43295, offset: 0x43295, size: 0x8, addend: 0x0, symName: __ZNSt3__16vectorI8CustomerNS_9allocatorIS1_EEED1B8ue170006Ev, symObjAddr: 0x1178C, symBinAddr: 0x10001466C, symSize: 0x2C }
  - { offsetInCU: 0x432BF, offset: 0x432BF, size: 0x8, addend: 0x0, symName: __ZNSt3__16vectorI8CustomerNS_9allocatorIS1_EEEC2B8ue170006Ev, symObjAddr: 0x117B8, symBinAddr: 0x100014698, symSize: 0x4C }
  - { offsetInCU: 0x432E9, offset: 0x432E9, size: 0x8, addend: 0x0, symName: __ZNSt3__117__compressed_pairIP8CustomerNS_9allocatorIS1_EEEC1B8ue170006IDnNS_18__default_init_tagEEEOT_OT0_, symObjAddr: 0x11804, symBinAddr: 0x1000146E4, symSize: 0x3C }
  - { offsetInCU: 0x43341, offset: 0x43341, size: 0x8, addend: 0x0, symName: __ZNSt3__117__compressed_pairIP8CustomerNS_9allocatorIS1_EEEC2B8ue170006IDnNS_18__default_init_tagEEEOT_OT0_, symObjAddr: 0x11840, symBinAddr: 0x100014720, symSize: 0x40 }
  - { offsetInCU: 0x43399, offset: 0x43399, size: 0x8, addend: 0x0, symName: __ZNSt3__122__compressed_pair_elemIP8CustomerLi0ELb0EEC2B8ue170006IDnvEEOT_, symObjAddr: 0x11880, symBinAddr: 0x100014760, symSize: 0x1C }
  - { offsetInCU: 0x433DB, offset: 0x433DB, size: 0x8, addend: 0x0, symName: __ZNSt3__122__compressed_pair_elemINS_9allocatorI8CustomerEELi1ELb1EEC2B8ue170006ENS_18__default_init_tagE, symObjAddr: 0x1189C, symBinAddr: 0x10001477C, symSize: 0x2C }
  - { offsetInCU: 0x4340F, offset: 0x4340F, size: 0x8, addend: 0x0, symName: __ZNSt3__19allocatorI8CustomerEC2B8ue170006Ev, symObjAddr: 0x118C8, symBinAddr: 0x1000147A8, symSize: 0x2C }
  - { offsetInCU: 0x43439, offset: 0x43439, size: 0x8, addend: 0x0, symName: __ZNSt3__116__non_trivial_ifILb1ENS_9allocatorI8CustomerEEEC2B8ue170006Ev, symObjAddr: 0x118F4, symBinAddr: 0x1000147D4, symSize: 0x14 }
  - { offsetInCU: 0x43463, offset: 0x43463, size: 0x8, addend: 0x0, symName: __ZNSt3__16vectorINS_12basic_stringIcNS_11char_traitsIcEENS_9allocatorIcEEEENS4_IS6_EEEC2ERKS8_, symObjAddr: 0x11908, symBinAddr: 0x1000147E8, symSize: 0x94 }
  - { offsetInCU: 0x4349E, offset: 0x4349E, size: 0x8, addend: 0x0, symName: __ZNSt3__116allocator_traitsINS_9allocatorINS_12basic_stringIcNS_11char_traitsIcEENS1_IcEEEEEEE37select_on_container_copy_constructionB8ue170006IS7_vvEES7_RKS7_, symObjAddr: 0x1199C, symBinAddr: 0x10001487C, symSize: 0x10 }
  - { offsetInCU: 0x434D3, offset: 0x434D3, size: 0x8, addend: 0x0, symName: __ZNSt3__117__compressed_pairIPNS_12basic_stringIcNS_11char_traitsIcEENS_9allocatorIcEEEENS4_IS6_EEEC1B8ue170006IDnS8_EEOT_OT0_, symObjAddr: 0x119AC, symBinAddr: 0x10001488C, symSize: 0x3C }
  - { offsetInCU: 0x4352B, offset: 0x4352B, size: 0x8, addend: 0x0, symName: __ZNSt3__16vectorINS_12basic_stringIcNS_11char_traitsIcEENS_9allocatorIcEEEENS4_IS6_EEE16__init_with_sizeB8ue170006IPS6_SA_EEvT_T0_m, symObjAddr: 0x119E8, symBinAddr: 0x1000148C8, symSize: 0xB8 }
  - { offsetInCU: 0x4359F, offset: 0x4359F, size: 0x8, addend: 0x0, symName: __ZNSt3__117__compressed_pairIPNS_12basic_stringIcNS_11char_traitsIcEENS_9allocatorIcEEEENS4_IS6_EEEC2B8ue170006IDnS8_EEOT_OT0_, symObjAddr: 0x11AA0, symBinAddr: 0x100014980, symSize: 0x44 }
  - { offsetInCU: 0x435F7, offset: 0x435F7, size: 0x8, addend: 0x0, symName: __ZNSt3__122__compressed_pair_elemINS_9allocatorINS_12basic_stringIcNS_11char_traitsIcEENS1_IcEEEEEELi1ELb1EEC2B8ue170006IS7_vEEOT_, symObjAddr: 0x11AE4, symBinAddr: 0x1000149C4, symSize: 0x18 }
  - { offsetInCU: 0x43639, offset: 0x43639, size: 0x8, addend: 0x0, symName: __ZNSt3__16vectorINS_12basic_stringIcNS_11char_traitsIcEENS_9allocatorIcEEEENS4_IS6_EEE18__construct_at_endIPS6_SA_EEvT_T0_m, symObjAddr: 0x11AFC, symBinAddr: 0x1000149DC, symSize: 0x8C }
  - { offsetInCU: 0x436D3, offset: 0x436D3, size: 0x8, addend: 0x0, symName: __ZNSt3__14pairIPNS_12basic_stringIcNS_11char_traitsIcEENS_9allocatorIcEEEES7_EC1B8ue170006IS7_S7_LPv0EEEOT_OT0_, symObjAddr: 0x11D94, symBinAddr: 0x100014C74, symSize: 0x3C }
  - { offsetInCU: 0x43731, offset: 0x43731, size: 0x8, addend: 0x0, symName: __ZNSt3__14pairIPNS_12basic_stringIcNS_11char_traitsIcEENS_9allocatorIcEEEES7_EC2B8ue170006IS7_S7_LPv0EEEOT_OT0_, symObjAddr: 0x11DD0, symBinAddr: 0x100014CB0, symSize: 0x34 }
  - { offsetInCU: 0x4378F, offset: 0x4378F, size: 0x8, addend: 0x0, symName: __ZNSt3__116allocator_traitsINS_9allocatorINS_12basic_stringIcNS_11char_traitsIcEENS1_IcEEEEEEE9constructB8ue170006IS6_JRS6_EvEEvRS7_PT_DpOT0_, symObjAddr: 0x11E04, symBinAddr: 0x100014CE4, symSize: 0x34 }
  - { offsetInCU: 0x437E6, offset: 0x437E6, size: 0x8, addend: 0x0, symName: __ZNSt3__19allocatorINS_12basic_stringIcNS_11char_traitsIcEENS0_IcEEEEE9constructB8ue170006IS5_JRS5_EEEvPT_DpOT0_, symObjAddr: 0x11E38, symBinAddr: 0x100014D18, symSize: 0x30 }
  - { offsetInCU: 0x4383C, offset: 0x4383C, size: 0x8, addend: 0x0, symName: __ZNSt3__16vectorI8CustomerNS_9allocatorIS1_EEED2B8ue170006Ev, symObjAddr: 0x11E68, symBinAddr: 0x100014D48, symSize: 0x44 }
  - { offsetInCU: 0x43866, offset: 0x43866, size: 0x8, addend: 0x0, symName: __ZNSt3__16vectorI8CustomerNS_9allocatorIS1_EEE16__destroy_vectorC1B8ue170006ERS4_, symObjAddr: 0x11EAC, symBinAddr: 0x100014D8C, symSize: 0x34 }
  - { offsetInCU: 0x4389F, offset: 0x4389F, size: 0x8, addend: 0x0, symName: __ZNSt3__16vectorI8CustomerNS_9allocatorIS1_EEE16__destroy_vectorclB8ue170006Ev, symObjAddr: 0x11EE0, symBinAddr: 0x100014DC0, symSize: 0x90 }
  - { offsetInCU: 0x438C5, offset: 0x438C5, size: 0x8, addend: 0x0, symName: __ZNSt3__16vectorI8CustomerNS_9allocatorIS1_EEE16__destroy_vectorC2B8ue170006ERS4_, symObjAddr: 0x11F70, symBinAddr: 0x100014E50, symSize: 0x20 }
  - { offsetInCU: 0x438FE, offset: 0x438FE, size: 0x8, addend: 0x0, symName: __ZNSt3__16vectorI8CustomerNS_9allocatorIS1_EEE7__clearB8ue170006Ev, symObjAddr: 0x11F90, symBinAddr: 0x100014E70, symSize: 0x28 }
  - { offsetInCU: 0x43924, offset: 0x43924, size: 0x8, addend: 0x0, symName: __ZNKSt3__16vectorI8CustomerNS_9allocatorIS1_EEE17__annotate_deleteB8ue170006Ev, symObjAddr: 0x11FB8, symBinAddr: 0x100014E98, symSize: 0xD4 }
  - { offsetInCU: 0x4394A, offset: 0x4394A, size: 0x8, addend: 0x0, symName: __ZNSt3__116allocator_traitsINS_9allocatorI8CustomerEEE10deallocateB8ue170006ERS3_PS2_m, symObjAddr: 0x1208C, symBinAddr: 0x100014F6C, symSize: 0x34 }
  - { offsetInCU: 0x4398C, offset: 0x4398C, size: 0x8, addend: 0x0, symName: __ZNSt3__16vectorI8CustomerNS_9allocatorIS1_EEE7__allocB8ue170006Ev, symObjAddr: 0x120C0, symBinAddr: 0x100014FA0, symSize: 0x28 }
  - { offsetInCU: 0x439B2, offset: 0x439B2, size: 0x8, addend: 0x0, symName: __ZNKSt3__16vectorI8CustomerNS_9allocatorIS1_EEE8capacityB8ue170006Ev, symObjAddr: 0x120E8, symBinAddr: 0x100014FC8, symSize: 0x40 }
  - { offsetInCU: 0x439D8, offset: 0x439D8, size: 0x8, addend: 0x0, symName: __ZNSt3__16vectorI8CustomerNS_9allocatorIS1_EEE22__base_destruct_at_endB8ue170006EPS1_, symObjAddr: 0x12128, symBinAddr: 0x100015008, symSize: 0x8C }
  - { offsetInCU: 0x43A1C, offset: 0x43A1C, size: 0x8, addend: 0x0, symName: __ZNSt3__116allocator_traitsINS_9allocatorI8CustomerEEE7destroyB8ue170006IS2_vEEvRS3_PT_, symObjAddr: 0x121B4, symBinAddr: 0x100015094, symSize: 0x2C }
  - { offsetInCU: 0x43A59, offset: 0x43A59, size: 0x8, addend: 0x0, symName: __ZNSt3__19allocatorI8CustomerE7destroyB8ue170006EPS1_, symObjAddr: 0x121F4, symBinAddr: 0x1000150D4, symSize: 0x28 }
  - { offsetInCU: 0x43A8D, offset: 0x43A8D, size: 0x8, addend: 0x0, symName: __ZN8CustomerD1Ev, symObjAddr: 0x1221C, symBinAddr: 0x1000150FC, symSize: 0x2C }
  - { offsetInCU: 0x43AB9, offset: 0x43AB9, size: 0x8, addend: 0x0, symName: __ZN8CustomerD2Ev, symObjAddr: 0x12248, symBinAddr: 0x100015128, symSize: 0x78 }
  - { offsetInCU: 0x43AE5, offset: 0x43AE5, size: 0x8, addend: 0x0, symName: __ZN11ToppingListD1Ev, symObjAddr: 0x122C0, symBinAddr: 0x1000151A0, symSize: 0x2C }
  - { offsetInCU: 0x43B11, offset: 0x43B11, size: 0x8, addend: 0x0, symName: __ZNSt3__110unique_ptrI5OrderNS_14default_deleteIS1_EEED1B8ue170006Ev, symObjAddr: 0x122EC, symBinAddr: 0x1000151CC, symSize: 0x2C }
  - { offsetInCU: 0x43B3B, offset: 0x43B3B, size: 0x8, addend: 0x0, symName: __ZN11ToppingListD2Ev, symObjAddr: 0x12318, symBinAddr: 0x1000151F8, symSize: 0x38 }
  - { offsetInCU: 0x43B67, offset: 0x43B67, size: 0x8, addend: 0x0, symName: __ZNSt3__110unique_ptrI5OrderNS_14default_deleteIS1_EEED2B8ue170006Ev, symObjAddr: 0x12350, symBinAddr: 0x100015230, symSize: 0x30 }
  - { offsetInCU: 0x43B91, offset: 0x43B91, size: 0x8, addend: 0x0, symName: __ZNSt3__110unique_ptrI5OrderNS_14default_deleteIS1_EEE5resetB8ue170006EPS1_, symObjAddr: 0x12380, symBinAddr: 0x100015260, symSize: 0x78 }
  - { offsetInCU: 0x43BD5, offset: 0x43BD5, size: 0x8, addend: 0x0, symName: __ZNSt3__117__compressed_pairIP5OrderNS_14default_deleteIS1_EEE5firstB8ue170006Ev, symObjAddr: 0x123F8, symBinAddr: 0x1000152D8, symSize: 0x24 }
  - { offsetInCU: 0x43BFB, offset: 0x43BFB, size: 0x8, addend: 0x0, symName: __ZNSt3__117__compressed_pairIP5OrderNS_14default_deleteIS1_EEE6secondB8ue170006Ev, symObjAddr: 0x1241C, symBinAddr: 0x1000152FC, symSize: 0x24 }
  - { offsetInCU: 0x43C21, offset: 0x43C21, size: 0x8, addend: 0x0, symName: __ZNKSt3__114default_deleteI5OrderEclB8ue170006EPS1_, symObjAddr: 0x12440, symBinAddr: 0x100015320, symSize: 0x4C }
  - { offsetInCU: 0x43C55, offset: 0x43C55, size: 0x8, addend: 0x0, symName: __ZNSt3__122__compressed_pair_elemIP5OrderLi0ELb0EE5__getB8ue170006Ev, symObjAddr: 0x1248C, symBinAddr: 0x10001536C, symSize: 0x14 }
  - { offsetInCU: 0x43C7B, offset: 0x43C7B, size: 0x8, addend: 0x0, symName: __ZNSt3__122__compressed_pair_elemINS_14default_deleteI5OrderEELi1ELb1EE5__getB8ue170006Ev, symObjAddr: 0x124A0, symBinAddr: 0x100015380, symSize: 0x14 }
  - { offsetInCU: 0x43CA1, offset: 0x43CA1, size: 0x8, addend: 0x0, symName: __ZN5OrderD1Ev, symObjAddr: 0x124B4, symBinAddr: 0x100015394, symSize: 0x2C }
  - { offsetInCU: 0x43CCD, offset: 0x43CCD, size: 0x8, addend: 0x0, symName: __ZN5OrderD2Ev, symObjAddr: 0x124E0, symBinAddr: 0x1000153C0, symSize: 0x5C }
  - { offsetInCU: 0x43CF9, offset: 0x43CF9, size: 0x8, addend: 0x0, symName: __ZNSt3__110unique_ptrI7ToppingNS_14default_deleteIS1_EEED1B8ue170006Ev, symObjAddr: 0x1253C, symBinAddr: 0x10001541C, symSize: 0x2C }
  - { offsetInCU: 0x43D23, offset: 0x43D23, size: 0x8, addend: 0x0, symName: __ZNSt3__110unique_ptrI7ToppingNS_14default_deleteIS1_EEED2B8ue170006Ev, symObjAddr: 0x12568, symBinAddr: 0x100015448, symSize: 0x30 }
  - { offsetInCU: 0x43D4D, offset: 0x43D4D, size: 0x8, addend: 0x0, symName: __ZNSt3__110unique_ptrI7ToppingNS_14default_deleteIS1_EEE5resetB8ue170006EPS1_, symObjAddr: 0x12598, symBinAddr: 0x100015478, symSize: 0x78 }
  - { offsetInCU: 0x43D91, offset: 0x43D91, size: 0x8, addend: 0x0, symName: __ZNSt3__117__compressed_pairIP7ToppingNS_14default_deleteIS1_EEE5firstB8ue170006Ev, symObjAddr: 0x12610, symBinAddr: 0x1000154F0, symSize: 0x24 }
  - { offsetInCU: 0x43DB7, offset: 0x43DB7, size: 0x8, addend: 0x0, symName: __ZNSt3__117__compressed_pairIP7ToppingNS_14default_deleteIS1_EEE6secondB8ue170006Ev, symObjAddr: 0x12634, symBinAddr: 0x100015514, symSize: 0x24 }
  - { offsetInCU: 0x43DDD, offset: 0x43DDD, size: 0x8, addend: 0x0, symName: __ZNKSt3__114default_deleteI7ToppingEclB8ue170006EPS1_, symObjAddr: 0x12658, symBinAddr: 0x100015538, symSize: 0x4C }
  - { offsetInCU: 0x43E11, offset: 0x43E11, size: 0x8, addend: 0x0, symName: __ZNSt3__122__compressed_pair_elemIP7ToppingLi0ELb0EE5__getB8ue170006Ev, symObjAddr: 0x126A4, symBinAddr: 0x100015584, symSize: 0x14 }
  - { offsetInCU: 0x43E37, offset: 0x43E37, size: 0x8, addend: 0x0, symName: __ZNSt3__122__compressed_pair_elemINS_14default_deleteI7ToppingEELi1ELb1EE5__getB8ue170006Ev, symObjAddr: 0x126B8, symBinAddr: 0x100015598, symSize: 0x14 }
  - { offsetInCU: 0x43E5D, offset: 0x43E5D, size: 0x8, addend: 0x0, symName: __ZNKSt3__16vectorI8CustomerNS_9allocatorIS1_EEE31__annotate_contiguous_containerB8ue170006EPKvS6_S6_S6_, symObjAddr: 0x126CC, symBinAddr: 0x1000155AC, symSize: 0x20 }
  - { offsetInCU: 0x43EB3, offset: 0x43EB3, size: 0x8, addend: 0x0, symName: __ZNKSt3__16vectorI8CustomerNS_9allocatorIS1_EEE4dataB8ue170006Ev, symObjAddr: 0x126EC, symBinAddr: 0x1000155CC, symSize: 0x28 }
  - { offsetInCU: 0x43ED9, offset: 0x43ED9, size: 0x8, addend: 0x0, symName: __ZNKSt3__16vectorI8CustomerNS_9allocatorIS1_EEE4sizeB8ue170006Ev, symObjAddr: 0x12714, symBinAddr: 0x1000155F4, symSize: 0x28 }
  - { offsetInCU: 0x43EFF, offset: 0x43EFF, size: 0x8, addend: 0x0, symName: __ZNSt3__19allocatorI8CustomerE10deallocateB8ue170006EPS1_m, symObjAddr: 0x1273C, symBinAddr: 0x10001561C, symSize: 0x44 }
  - { offsetInCU: 0x43F41, offset: 0x43F41, size: 0x8, addend: 0x0, symName: __ZNSt3__117__compressed_pairIP8CustomerNS_9allocatorIS1_EEE6secondB8ue170006Ev, symObjAddr: 0x12780, symBinAddr: 0x100015660, symSize: 0x24 }
  - { offsetInCU: 0x43F67, offset: 0x43F67, size: 0x8, addend: 0x0, symName: __ZNSt3__122__compressed_pair_elemINS_9allocatorI8CustomerEELi1ELb1EE5__getB8ue170006Ev, symObjAddr: 0x127A4, symBinAddr: 0x100015684, symSize: 0x14 }
  - { offsetInCU: 0x43F8D, offset: 0x43F8D, size: 0x8, addend: 0x0, symName: __ZNKSt3__16vectorI8CustomerNS_9allocatorIS1_EEE9__end_capB8ue170006Ev, symObjAddr: 0x127B8, symBinAddr: 0x100015698, symSize: 0x28 }
  - { offsetInCU: 0x43FB3, offset: 0x43FB3, size: 0x8, addend: 0x0, symName: __ZNKSt3__117__compressed_pairIP8CustomerNS_9allocatorIS1_EEE5firstB8ue170006Ev, symObjAddr: 0x127E0, symBinAddr: 0x1000156C0, symSize: 0x24 }
  - { offsetInCU: 0x43FD9, offset: 0x43FD9, size: 0x8, addend: 0x0, symName: __ZNKSt3__122__compressed_pair_elemIP8CustomerLi0ELb0EE5__getB8ue170006Ev, symObjAddr: 0x12804, symBinAddr: 0x1000156E4, symSize: 0x14 }
  - { offsetInCU: 0x43FFF, offset: 0x43FFF, size: 0x8, addend: 0x0, symName: __ZN10DayManager20getExpectedCustomersEi, symObjAddr: 0x12818, symBinAddr: 0x1000156F8, symSize: 0x6C }
  - { offsetInCU: 0x44033, offset: 0x44033, size: 0x8, addend: 0x0, symName: __ZNSt3__16vectorI8CustomerNS_9allocatorIS1_EEE9push_backB8ue170006EOS1_, symObjAddr: 0x128C8, symBinAddr: 0x1000157A8, symSize: 0x6C }
  - { offsetInCU: 0x4406A, offset: 0x4406A, size: 0x8, addend: 0x0, symName: __ZN10DayManager16generateCustomerERKNSt3__112basic_stringIcNS0_11char_traitsIcEENS0_9allocatorIcEEEES8_, symObjAddr: 0x12934, symBinAddr: 0x100015814, symSize: 0x19C }
  - { offsetInCU: 0x440BB, offset: 0x440BB, size: 0x8, addend: 0x0, symName: __ZNSt3__16vectorI8CustomerNS_9allocatorIS1_EEE5beginB8ue170006Ev, symObjAddr: 0x12AD0, symBinAddr: 0x1000159B0, symSize: 0x30 }
  - { offsetInCU: 0x440E3, offset: 0x440E3, size: 0x8, addend: 0x0, symName: __ZNSt3__16vectorI8CustomerNS_9allocatorIS1_EEE3endB8ue170006Ev, symObjAddr: 0x12B00, symBinAddr: 0x1000159E0, symSize: 0x30 }
  - { offsetInCU: 0x4410B, offset: 0x4410B, size: 0x8, addend: 0x0, symName: __ZNKSt3__111__wrap_iterIP8CustomerEdeB8ue170006Ev, symObjAddr: 0x12B64, symBinAddr: 0x100015A44, symSize: 0x18 }
  - { offsetInCU: 0x44131, offset: 0x44131, size: 0x8, addend: 0x0, symName: __ZNK8Customer7getNameEv, symObjAddr: 0x12B7C, symBinAddr: 0x100015A5C, symSize: 0x18 }
  - { offsetInCU: 0x44157, offset: 0x44157, size: 0x8, addend: 0x0, symName: __ZNK8Customer5getIDEv, symObjAddr: 0x12B94, symBinAddr: 0x100015A74, symSize: 0x18 }
  - { offsetInCU: 0x4417D, offset: 0x4417D, size: 0x8, addend: 0x0, symName: __ZNK8Customer8getOrderEv, symObjAddr: 0x12BAC, symBinAddr: 0x100015A8C, symSize: 0x28 }
  - { offsetInCU: 0x441A3, offset: 0x441A3, size: 0x8, addend: 0x0, symName: __ZNK5Order4showEv, symObjAddr: 0x12BD4, symBinAddr: 0x100015AB4, symSize: 0x174 }
  - { offsetInCU: 0x4429A, offset: 0x4429A, size: 0x8, addend: 0x0, symName: __ZN6SundaeC1Ev, symObjAddr: 0x12D48, symBinAddr: 0x100015C28, symSize: 0x2C }
  - { offsetInCU: 0x442C6, offset: 0x442C6, size: 0x8, addend: 0x0, symName: __ZN6Sundae5buildEv, symObjAddr: 0x12D74, symBinAddr: 0x100015C54, symSize: 0xE8 }
  - { offsetInCU: 0x442FA, offset: 0x442FA, size: 0x8, addend: 0x0, symName: __ZNK5Order9getFlavorEv, symObjAddr: 0x12FA4, symBinAddr: 0x100015E84, symSize: 0x3C }
  - { offsetInCU: 0x44320, offset: 0x44320, size: 0x8, addend: 0x0, symName: __ZNK6Sundae9getFlavorEv, symObjAddr: 0x12FE0, symBinAddr: 0x100015EC0, symSize: 0x3C }
  - { offsetInCU: 0x44346, offset: 0x44346, size: 0x8, addend: 0x0, symName: __ZNK5Order14getToppingNameEv, symObjAddr: 0x1301C, symBinAddr: 0x100015EFC, symSize: 0x40 }
  - { offsetInCU: 0x4436C, offset: 0x4436C, size: 0x8, addend: 0x0, symName: __ZNK6Sundae14getToppingNameEv, symObjAddr: 0x1305C, symBinAddr: 0x100015F3C, symSize: 0x70 }
  - { offsetInCU: 0x44392, offset: 0x44392, size: 0x8, addend: 0x0, symName: __ZNK5Order7getSizeEv, symObjAddr: 0x130CC, symBinAddr: 0x100015FAC, symSize: 0x3C }
  - { offsetInCU: 0x443B8, offset: 0x443B8, size: 0x8, addend: 0x0, symName: __ZNK6Sundae7getSizeEv, symObjAddr: 0x13108, symBinAddr: 0x100015FE8, symSize: 0x3C }
  - { offsetInCU: 0x443DE, offset: 0x443DE, size: 0x8, addend: 0x0, symName: __ZN11PlayerLevel5addXPEi, symObjAddr: 0x13144, symBinAddr: 0x100016024, symSize: 0xB8 }
  - { offsetInCU: 0x44412, offset: 0x44412, size: 0x8, addend: 0x0, symName: __ZNK11PlayerLevel10showStatusEv, symObjAddr: 0x131FC, symBinAddr: 0x1000160DC, symSize: 0x90 }
  - { offsetInCU: 0x44437, offset: 0x44437, size: 0x8, addend: 0x0, symName: __Z21showNewToppingUnlocksiiRK11ToppingList, symObjAddr: 0x1328C, symBinAddr: 0x10001616C, symSize: 0x20C }
  - { offsetInCU: 0x44504, offset: 0x44504, size: 0x8, addend: 0x0, symName: __ZNSt3__13mapIiNS_3setINS_12basic_stringIcNS_11char_traitsIcEENS_9allocatorIcEEEENS_4lessIS7_EENS5_IS7_EEEENS8_IiEENS5_INS_4pairIKiSB_EEEEED1B8ue170006Ev, symObjAddr: 0x13498, symBinAddr: 0x100016378, symSize: 0x2C }
  - { offsetInCU: 0x4452E, offset: 0x4452E, size: 0x8, addend: 0x0, symName: __ZN6SundaeD1Ev, symObjAddr: 0x134C4, symBinAddr: 0x1000163A4, symSize: 0x2C }
  - { offsetInCU: 0x4455A, offset: 0x4455A, size: 0x8, addend: 0x0, symName: __ZNSt3__111__wrap_iterIP8CustomerEppB8ue170006Ev, symObjAddr: 0x134F0, symBinAddr: 0x1000163D0, symSize: 0x20 }
  - { offsetInCU: 0x44580, offset: 0x44580, size: 0x8, addend: 0x0, symName: __ZNSt3__16vectorI8CustomerNS_9allocatorIS1_EEE9__end_capB8ue170006Ev, symObjAddr: 0x13510, symBinAddr: 0x1000163F0, symSize: 0x28 }
  - { offsetInCU: 0x445AC, offset: 0x445AC, size: 0x8, addend: 0x0, symName: __ZNSt3__16vectorI8CustomerNS_9allocatorIS1_EEE22__construct_one_at_endB8ue170006IJS1_EEEvDpOT_, symObjAddr: 0x13538, symBinAddr: 0x100016418, symSize: 0x90 }
  - { offsetInCU: 0x445FB, offset: 0x445FB, size: 0x8, addend: 0x0, symName: __ZNSt3__16vectorI8CustomerNS_9allocatorIS1_EEE21__push_back_slow_pathIS1_EEvOT_, symObjAddr: 0x135C8, symBinAddr: 0x1000164A8, symSize: 0xD8 }
  - { offsetInCU: 0x44659, offset: 0x44659, size: 0x8, addend: 0x0, symName: __ZNSt3__117__compressed_pairIP8CustomerNS_9allocatorIS1_EEE5firstB8ue170006Ev, symObjAddr: 0x136A0, symBinAddr: 0x100016580, symSize: 0x24 }
  - { offsetInCU: 0x4467F, offset: 0x4467F, size: 0x8, addend: 0x0, symName: __ZNSt3__122__compressed_pair_elemIP8CustomerLi0ELb0EE5__getB8ue170006Ev, symObjAddr: 0x136C4, symBinAddr: 0x1000165A4, symSize: 0x14 }
  - { offsetInCU: 0x446C3, offset: 0x446C3, size: 0x8, addend: 0x0, symName: __ZNSt3__16vectorI8CustomerNS_9allocatorIS1_EEE21_ConstructTransactionC1B8ue170006ERS4_m, symObjAddr: 0x136D8, symBinAddr: 0x1000165B8, symSize: 0x3C }
  - { offsetInCU: 0x4470B, offset: 0x4470B, size: 0x8, addend: 0x0, symName: __ZNSt3__116allocator_traitsINS_9allocatorI8CustomerEEE9constructB8ue170006IS2_JS2_EvEEvRS3_PT_DpOT0_, symObjAddr: 0x13714, symBinAddr: 0x1000165F4, symSize: 0x34 }
  - { offsetInCU: 0x44762, offset: 0x44762, size: 0x8, addend: 0x0, symName: __ZNSt3__16vectorI8CustomerNS_9allocatorIS1_EEE21_ConstructTransactionD1B8ue170006Ev, symObjAddr: 0x13748, symBinAddr: 0x100016628, symSize: 0x2C }
  - { offsetInCU: 0x4478C, offset: 0x4478C, size: 0x8, addend: 0x0, symName: __ZNSt3__16vectorI8CustomerNS_9allocatorIS1_EEE21_ConstructTransactionC2B8ue170006ERS4_m, symObjAddr: 0x13774, symBinAddr: 0x100016654, symSize: 0x4C }
  - { offsetInCU: 0x447D4, offset: 0x447D4, size: 0x8, addend: 0x0, symName: __ZNSt3__19allocatorI8CustomerE9constructB8ue170006IS1_JS1_EEEvPT_DpOT0_, symObjAddr: 0x137C0, symBinAddr: 0x1000166A0, symSize: 0x30 }
  - { offsetInCU: 0x4482A, offset: 0x4482A, size: 0x8, addend: 0x0, symName: __ZN8CustomerC1EOS_, symObjAddr: 0x137F0, symBinAddr: 0x1000166D0, symSize: 0x34 }
  - { offsetInCU: 0x4485F, offset: 0x4485F, size: 0x8, addend: 0x0, symName: __ZN8CustomerC2EOS_, symObjAddr: 0x13824, symBinAddr: 0x100016704, symSize: 0xC0 }
  - { offsetInCU: 0x44894, offset: 0x44894, size: 0x8, addend: 0x0, symName: __ZNSt3__110unique_ptrI5OrderNS_14default_deleteIS1_EEEC1B8ue170006EOS4_, symObjAddr: 0x138E4, symBinAddr: 0x1000167C4, symSize: 0x34 }
  - { offsetInCU: 0x448CC, offset: 0x448CC, size: 0x8, addend: 0x0, symName: __ZNSt3__16vectorINS_12basic_stringIcNS_11char_traitsIcEENS_9allocatorIcEEEENS4_IS6_EEEC1B8ue170006EOS8_, symObjAddr: 0x13918, symBinAddr: 0x1000167F8, symSize: 0x34 }
  - { offsetInCU: 0x4490D, offset: 0x4490D, size: 0x8, addend: 0x0, symName: __ZN11ToppingListC1EOS_, symObjAddr: 0x1394C, symBinAddr: 0x10001682C, symSize: 0x34 }
  - { offsetInCU: 0x44942, offset: 0x44942, size: 0x8, addend: 0x0, symName: __ZNSt3__110unique_ptrI5OrderNS_14default_deleteIS1_EEEC2B8ue170006EOS4_, symObjAddr: 0x13980, symBinAddr: 0x100016860, symSize: 0x60 }
  - { offsetInCU: 0x4497A, offset: 0x4497A, size: 0x8, addend: 0x0, symName: __ZNSt3__110unique_ptrI5OrderNS_14default_deleteIS1_EEE7releaseB8ue170006Ev, symObjAddr: 0x139E0, symBinAddr: 0x1000168C0, symSize: 0x44 }
  - { offsetInCU: 0x449AF, offset: 0x449AF, size: 0x8, addend: 0x0, symName: __ZNSt3__110unique_ptrI5OrderNS_14default_deleteIS1_EEE11get_deleterB8ue170006Ev, symObjAddr: 0x13A24, symBinAddr: 0x100016904, symSize: 0x24 }
  - { offsetInCU: 0x449E1, offset: 0x449E1, size: 0x8, addend: 0x0, symName: __ZNSt3__117__compressed_pairIP5OrderNS_14default_deleteIS1_EEEC1B8ue170006IS2_S4_EEOT_OT0_, symObjAddr: 0x13A48, symBinAddr: 0x100016928, symSize: 0x3C }
  - { offsetInCU: 0x44A39, offset: 0x44A39, size: 0x8, addend: 0x0, symName: __ZNSt3__117__compressed_pairIP5OrderNS_14default_deleteIS1_EEEC2B8ue170006IS2_S4_EEOT_OT0_, symObjAddr: 0x13A84, symBinAddr: 0x100016964, symSize: 0x44 }
  - { offsetInCU: 0x44A91, offset: 0x44A91, size: 0x8, addend: 0x0, symName: __ZNSt3__122__compressed_pair_elemIP5OrderLi0ELb0EEC2B8ue170006IS2_vEEOT_, symObjAddr: 0x13AC8, symBinAddr: 0x1000169A8, symSize: 0x24 }
  - { offsetInCU: 0x44AD3, offset: 0x44AD3, size: 0x8, addend: 0x0, symName: __ZNSt3__122__compressed_pair_elemINS_14default_deleteI5OrderEELi1ELb1EEC2B8ue170006IS3_vEEOT_, symObjAddr: 0x13AEC, symBinAddr: 0x1000169CC, symSize: 0x18 }
  - { offsetInCU: 0x44B15, offset: 0x44B15, size: 0x8, addend: 0x0, symName: __ZNSt3__16vectorINS_12basic_stringIcNS_11char_traitsIcEENS_9allocatorIcEEEENS4_IS6_EEEC2B8ue170006EOS8_, symObjAddr: 0x13B04, symBinAddr: 0x1000169E4, symSize: 0xC4 }
  - { offsetInCU: 0x44B50, offset: 0x44B50, size: 0x8, addend: 0x0, symName: __ZN11ToppingListC2EOS_, symObjAddr: 0x13BC8, symBinAddr: 0x100016AA8, symSize: 0x48 }
  - { offsetInCU: 0x44B85, offset: 0x44B85, size: 0x8, addend: 0x0, symName: __ZNSt3__16vectorINS_8functionIFNS_10unique_ptrI12FruitToppingNS_14default_deleteIS3_EEEEvEEENS_9allocatorIS8_EEEC1B8ue170006EOSB_, symObjAddr: 0x13C10, symBinAddr: 0x100016AF0, symSize: 0x34 }
  - { offsetInCU: 0x44BC0, offset: 0x44BC0, size: 0x8, addend: 0x0, symName: __ZNSt3__16vectorINS_8functionIFNS_10unique_ptrI12SweetToppingNS_14default_deleteIS3_EEEEvEEENS_9allocatorIS8_EEEC1B8ue170006EOSB_, symObjAddr: 0x13C44, symBinAddr: 0x100016B24, symSize: 0x34 }
  - { offsetInCU: 0x44BFB, offset: 0x44BFB, size: 0x8, addend: 0x0, symName: __ZNSt3__16vectorINS_8functionIFNS_10unique_ptrI12FruitToppingNS_14default_deleteIS3_EEEEvEEENS_9allocatorIS8_EEEC2B8ue170006EOSB_, symObjAddr: 0x13C78, symBinAddr: 0x100016B58, symSize: 0xC4 }
  - { offsetInCU: 0x44C3C, offset: 0x44C3C, size: 0x8, addend: 0x0, symName: __ZNSt3__117__compressed_pairIPNS_8functionIFNS_10unique_ptrI12FruitToppingNS_14default_deleteIS3_EEEEvEEENS_9allocatorIS8_EEEC1B8ue170006IDnSB_EEOT_OT0_, symObjAddr: 0x13D3C, symBinAddr: 0x100016C1C, symSize: 0x3C }
  - { offsetInCU: 0x44C94, offset: 0x44C94, size: 0x8, addend: 0x0, symName: __ZNSt3__117__compressed_pairIPNS_8functionIFNS_10unique_ptrI12FruitToppingNS_14default_deleteIS3_EEEEvEEENS_9allocatorIS8_EEEC2B8ue170006IDnSB_EEOT_OT0_, symObjAddr: 0x13D78, symBinAddr: 0x100016C58, symSize: 0x44 }
  - { offsetInCU: 0x44CEC, offset: 0x44CEC, size: 0x8, addend: 0x0, symName: __ZNSt3__122__compressed_pair_elemINS_9allocatorINS_8functionIFNS_10unique_ptrI12FruitToppingNS_14default_deleteIS4_EEEEvEEEEELi1ELb1EEC2B8ue170006ISA_vEEOT_, symObjAddr: 0x13DBC, symBinAddr: 0x100016C9C, symSize: 0x18 }
  - { offsetInCU: 0x44D2E, offset: 0x44D2E, size: 0x8, addend: 0x0, symName: __ZNSt3__16vectorINS_8functionIFNS_10unique_ptrI12SweetToppingNS_14default_deleteIS3_EEEEvEEENS_9allocatorIS8_EEEC2B8ue170006EOSB_, symObjAddr: 0x13DD4, symBinAddr: 0x100016CB4, symSize: 0xC4 }
  - { offsetInCU: 0x44D6F, offset: 0x44D6F, size: 0x8, addend: 0x0, symName: __ZNSt3__117__compressed_pairIPNS_8functionIFNS_10unique_ptrI12SweetToppingNS_14default_deleteIS3_EEEEvEEENS_9allocatorIS8_EEEC1B8ue170006IDnSB_EEOT_OT0_, symObjAddr: 0x13E98, symBinAddr: 0x100016D78, symSize: 0x3C }
  - { offsetInCU: 0x44DC7, offset: 0x44DC7, size: 0x8, addend: 0x0, symName: __ZNSt3__117__compressed_pairIPNS_8functionIFNS_10unique_ptrI12SweetToppingNS_14default_deleteIS3_EEEEvEEENS_9allocatorIS8_EEEC2B8ue170006IDnSB_EEOT_OT0_, symObjAddr: 0x13ED4, symBinAddr: 0x100016DB4, symSize: 0x44 }
  - { offsetInCU: 0x44E1F, offset: 0x44E1F, size: 0x8, addend: 0x0, symName: __ZNSt3__122__compressed_pair_elemINS_9allocatorINS_8functionIFNS_10unique_ptrI12SweetToppingNS_14default_deleteIS4_EEEEvEEEEELi1ELb1EEC2B8ue170006ISA_vEEOT_, symObjAddr: 0x13F18, symBinAddr: 0x100016DF8, symSize: 0x18 }
  - { offsetInCU: 0x44E61, offset: 0x44E61, size: 0x8, addend: 0x0, symName: __ZNSt3__16vectorI8CustomerNS_9allocatorIS1_EEE21_ConstructTransactionD2B8ue170006Ev, symObjAddr: 0x13F30, symBinAddr: 0x100016E10, symSize: 0x20 }
  - { offsetInCU: 0x44E8B, offset: 0x44E8B, size: 0x8, addend: 0x0, symName: __ZNKSt3__16vectorI8CustomerNS_9allocatorIS1_EEE11__recommendB8ue170006Em, symObjAddr: 0x13F50, symBinAddr: 0x100016E30, symSize: 0xB4 }
  - { offsetInCU: 0x44EE0, offset: 0x44EE0, size: 0x8, addend: 0x0, symName: __ZNSt3__114__split_bufferI8CustomerRNS_9allocatorIS1_EEEC1EmmS4_, symObjAddr: 0x14004, symBinAddr: 0x100016EE4, symSize: 0x44 }
  - { offsetInCU: 0x44F36, offset: 0x44F36, size: 0x8, addend: 0x0, symName: __ZNSt3__114__split_bufferI8CustomerRNS_9allocatorIS1_EEED1Ev, symObjAddr: 0x14158, symBinAddr: 0x100017038, symSize: 0x2C }
  - { offsetInCU: 0x44F62, offset: 0x44F62, size: 0x8, addend: 0x0, symName: __ZNKSt3__16vectorI8CustomerNS_9allocatorIS1_EEE8max_sizeEv, symObjAddr: 0x14184, symBinAddr: 0x100017064, symSize: 0x60 }
  - { offsetInCU: 0x44F8A, offset: 0x44F8A, size: 0x8, addend: 0x0, symName: __ZNKSt3__16vectorI8CustomerNS_9allocatorIS1_EEE20__throw_length_errorB8ue170006Ev, symObjAddr: 0x141E4, symBinAddr: 0x1000170C4, symSize: 0x1C }
  - { offsetInCU: 0x44FBC, offset: 0x44FBC, size: 0x8, addend: 0x0, symName: __ZNSt3__116allocator_traitsINS_9allocatorI8CustomerEEE8max_sizeB8ue170006IS3_vEEmRKS3_, symObjAddr: 0x14200, symBinAddr: 0x1000170E0, symSize: 0x24 }
  - { offsetInCU: 0x44FEA, offset: 0x44FEA, size: 0x8, addend: 0x0, symName: __ZNKSt3__16vectorI8CustomerNS_9allocatorIS1_EEE7__allocB8ue170006Ev, symObjAddr: 0x14224, symBinAddr: 0x100017104, symSize: 0x28 }
  - { offsetInCU: 0x45010, offset: 0x45010, size: 0x8, addend: 0x0, symName: __ZNKSt3__19allocatorI8CustomerE8max_sizeB8ue170006Ev, symObjAddr: 0x1424C, symBinAddr: 0x10001712C, symSize: 0x20 }
  - { offsetInCU: 0x45036, offset: 0x45036, size: 0x8, addend: 0x0, symName: __ZNKSt3__117__compressed_pairIP8CustomerNS_9allocatorIS1_EEE6secondB8ue170006Ev, symObjAddr: 0x1426C, symBinAddr: 0x10001714C, symSize: 0x24 }
  - { offsetInCU: 0x4505C, offset: 0x4505C, size: 0x8, addend: 0x0, symName: __ZNKSt3__122__compressed_pair_elemINS_9allocatorI8CustomerEELi1ELb1EE5__getB8ue170006Ev, symObjAddr: 0x14290, symBinAddr: 0x100017170, symSize: 0x14 }
  - { offsetInCU: 0x45082, offset: 0x45082, size: 0x8, addend: 0x0, symName: __ZNSt3__114__split_bufferI8CustomerRNS_9allocatorIS1_EEEC2EmmS4_, symObjAddr: 0x142A4, symBinAddr: 0x100017184, symSize: 0xE0 }
  - { offsetInCU: 0x450F5, offset: 0x450F5, size: 0x8, addend: 0x0, symName: __ZNSt3__117__compressed_pairIP8CustomerRNS_9allocatorIS1_EEEC1B8ue170006IDnS5_EEOT_OT0_, symObjAddr: 0x14384, symBinAddr: 0x100017264, symSize: 0x3C }
  - { offsetInCU: 0x4514D, offset: 0x4514D, size: 0x8, addend: 0x0, symName: __ZNSt3__114__split_bufferI8CustomerRNS_9allocatorIS1_EEE7__allocB8ue170006Ev, symObjAddr: 0x14400, symBinAddr: 0x1000172E0, symSize: 0x28 }
  - { offsetInCU: 0x45173, offset: 0x45173, size: 0x8, addend: 0x0, symName: __ZNSt3__114__split_bufferI8CustomerRNS_9allocatorIS1_EEE9__end_capB8ue170006Ev, symObjAddr: 0x14428, symBinAddr: 0x100017308, symSize: 0x28 }
  - { offsetInCU: 0x45199, offset: 0x45199, size: 0x8, addend: 0x0, symName: __ZNSt3__117__compressed_pairIP8CustomerRNS_9allocatorIS1_EEEC2B8ue170006IDnS5_EEOT_OT0_, symObjAddr: 0x14450, symBinAddr: 0x100017330, symSize: 0x48 }
  - { offsetInCU: 0x451F1, offset: 0x451F1, size: 0x8, addend: 0x0, symName: __ZNSt3__122__compressed_pair_elemIRNS_9allocatorI8CustomerEELi1ELb0EEC2B8ue170006IS4_vEEOT_, symObjAddr: 0x14498, symBinAddr: 0x100017378, symSize: 0x20 }
  - { offsetInCU: 0x45233, offset: 0x45233, size: 0x8, addend: 0x0, symName: __ZNSt3__19allocatorI8CustomerE8allocateB8ue170006Em, symObjAddr: 0x144B8, symBinAddr: 0x100017398, symSize: 0x5C }
  - { offsetInCU: 0x45267, offset: 0x45267, size: 0x8, addend: 0x0, symName: __ZNSt3__117__compressed_pairIP8CustomerRNS_9allocatorIS1_EEE6secondB8ue170006Ev, symObjAddr: 0x14514, symBinAddr: 0x1000173F4, symSize: 0x28 }
  - { offsetInCU: 0x4528D, offset: 0x4528D, size: 0x8, addend: 0x0, symName: __ZNSt3__122__compressed_pair_elemIRNS_9allocatorI8CustomerEELi1ELb0EE5__getB8ue170006Ev, symObjAddr: 0x1453C, symBinAddr: 0x10001741C, symSize: 0x18 }
  - { offsetInCU: 0x452B3, offset: 0x452B3, size: 0x8, addend: 0x0, symName: __ZNSt3__117__compressed_pairIP8CustomerRNS_9allocatorIS1_EEE5firstB8ue170006Ev, symObjAddr: 0x14554, symBinAddr: 0x100017434, symSize: 0x24 }
  - { offsetInCU: 0x452D9, offset: 0x452D9, size: 0x8, addend: 0x0, symName: __ZNSt3__116reverse_iteratorIP8CustomerEC1B8ue170006ES2_, symObjAddr: 0x146A4, symBinAddr: 0x100017584, symSize: 0x34 }
  - { offsetInCU: 0x45311, offset: 0x45311, size: 0x8, addend: 0x0, symName: __ZNKSt3__116reverse_iteratorIP8CustomerE4baseB8ue170006Ev, symObjAddr: 0x146D8, symBinAddr: 0x1000175B8, symSize: 0x18 }
  - { offsetInCU: 0x45337, offset: 0x45337, size: 0x8, addend: 0x0, symName: __ZNKSt3__16vectorI8CustomerNS_9allocatorIS1_EEE14__annotate_newB8ue170006Em, symObjAddr: 0x1472C, symBinAddr: 0x10001760C, symSize: 0xC8 }
  - { offsetInCU: 0x4536C, offset: 0x4536C, size: 0x8, addend: 0x0, symName: __ZNSt3__129_AllocatorDestroyRangeReverseINS_9allocatorI8CustomerEENS_16reverse_iteratorIPS2_EEEC1B8ue170006ERS3_RS6_S9_, symObjAddr: 0x14840, symBinAddr: 0x100017720, symSize: 0x44 }
  - { offsetInCU: 0x453C3, offset: 0x453C3, size: 0x8, addend: 0x0, symName: __ZNKSt3__116reverse_iteratorIP8CustomerEdeB8ue170006Ev, symObjAddr: 0x148F0, symBinAddr: 0x1000177D0, symSize: 0x28 }
  - { offsetInCU: 0x453F7, offset: 0x453F7, size: 0x8, addend: 0x0, symName: __ZNSt3__116reverse_iteratorIP8CustomerEppB8ue170006Ev, symObjAddr: 0x14918, symBinAddr: 0x1000177F8, symSize: 0x20 }
  - { offsetInCU: 0x4541D, offset: 0x4541D, size: 0x8, addend: 0x0, symName: __ZNSt3__128__exception_guard_exceptionsINS_29_AllocatorDestroyRangeReverseINS_9allocatorI8CustomerEENS_16reverse_iteratorIPS3_EEEEE10__completeB8ue170006Ev, symObjAddr: 0x14938, symBinAddr: 0x100017818, symSize: 0x1C }
  - { offsetInCU: 0x45443, offset: 0x45443, size: 0x8, addend: 0x0, symName: __ZNSt3__128__exception_guard_exceptionsINS_29_AllocatorDestroyRangeReverseINS_9allocatorI8CustomerEENS_16reverse_iteratorIPS3_EEEEED1B8ue170006Ev, symObjAddr: 0x14954, symBinAddr: 0x100017834, symSize: 0x2C }
  - { offsetInCU: 0x4546D, offset: 0x4546D, size: 0x8, addend: 0x0, symName: __ZNSt3__128__exception_guard_exceptionsINS_29_AllocatorDestroyRangeReverseINS_9allocatorI8CustomerEENS_16reverse_iteratorIPS3_EEEEEC1B8ue170006ES8_, symObjAddr: 0x14980, symBinAddr: 0x100017860, symSize: 0x34 }
  - { offsetInCU: 0x454A6, offset: 0x454A6, size: 0x8, addend: 0x0, symName: __ZNSt3__128__exception_guard_exceptionsINS_29_AllocatorDestroyRangeReverseINS_9allocatorI8CustomerEENS_16reverse_iteratorIPS3_EEEEEC2B8ue170006ES8_, symObjAddr: 0x149B4, symBinAddr: 0x100017894, symSize: 0x30 }
  - { offsetInCU: 0x454DF, offset: 0x454DF, size: 0x8, addend: 0x0, symName: __ZNSt3__129_AllocatorDestroyRangeReverseINS_9allocatorI8CustomerEENS_16reverse_iteratorIPS2_EEEC2B8ue170006ERS3_RS6_S9_, symObjAddr: 0x149E4, symBinAddr: 0x1000178C4, symSize: 0x38 }
  - { offsetInCU: 0x4553C, offset: 0x4553C, size: 0x8, addend: 0x0, symName: __ZNSt3__119__to_address_helperINS_16reverse_iteratorIP8CustomerEEvE6__callB8ue170006ERKS4_, symObjAddr: 0x14A1C, symBinAddr: 0x1000178FC, symSize: 0x38 }
  - { offsetInCU: 0x4555F, offset: 0x4555F, size: 0x8, addend: 0x0, symName: __ZNKSt3__116reverse_iteratorIP8CustomerEptB8ue170006Ev, symObjAddr: 0x14A54, symBinAddr: 0x100017934, symSize: 0x24 }
  - { offsetInCU: 0x45585, offset: 0x45585, size: 0x8, addend: 0x0, symName: __ZNSt3__128__exception_guard_exceptionsINS_29_AllocatorDestroyRangeReverseINS_9allocatorI8CustomerEENS_16reverse_iteratorIPS3_EEEEED2B8ue170006Ev, symObjAddr: 0x14A78, symBinAddr: 0x100017958, symSize: 0x50 }
  - { offsetInCU: 0x455AF, offset: 0x455AF, size: 0x8, addend: 0x0, symName: __ZNKSt3__129_AllocatorDestroyRangeReverseINS_9allocatorI8CustomerEENS_16reverse_iteratorIPS2_EEEclB8ue170006Ev, symObjAddr: 0x14AC8, symBinAddr: 0x1000179A8, symSize: 0xB4 }
  - { offsetInCU: 0x455D6, offset: 0x455D6, size: 0x8, addend: 0x0, symName: __ZNSt3__116reverse_iteratorINS0_IP8CustomerEEEC1B8ue170006ES3_, symObjAddr: 0x14BEC, symBinAddr: 0x100017ACC, symSize: 0x3C }
  - { offsetInCU: 0x4560E, offset: 0x4560E, size: 0x8, addend: 0x0, symName: __ZNSt3__116reverse_iteratorINS0_IP8CustomerEEEppB8ue170006Ev, symObjAddr: 0x14CAC, symBinAddr: 0x100017B8C, symSize: 0x30 }
  - { offsetInCU: 0x45634, offset: 0x45634, size: 0x8, addend: 0x0, symName: __ZNKSt3__116reverse_iteratorINS0_IP8CustomerEEE4baseB8ue170006Ev, symObjAddr: 0x14CDC, symBinAddr: 0x100017BBC, symSize: 0x24 }
  - { offsetInCU: 0x45660, offset: 0x45660, size: 0x8, addend: 0x0, symName: __ZNSt3__119__to_address_helperINS_16reverse_iteratorINS1_IP8CustomerEEEEvE6__callB8ue170006ERKS5_, symObjAddr: 0x14D00, symBinAddr: 0x100017BE0, symSize: 0x38 }
  - { offsetInCU: 0x45683, offset: 0x45683, size: 0x8, addend: 0x0, symName: __ZNKSt3__116reverse_iteratorINS0_IP8CustomerEEEptB8ue170006Ev, symObjAddr: 0x14D38, symBinAddr: 0x100017C18, symSize: 0x24 }
  - { offsetInCU: 0x456A9, offset: 0x456A9, size: 0x8, addend: 0x0, symName: __ZNKSt3__116reverse_iteratorINS0_IP8CustomerEEEdeB8ue170006Ev, symObjAddr: 0x14D5C, symBinAddr: 0x100017C3C, symSize: 0x34 }
  - { offsetInCU: 0x456DD, offset: 0x456DD, size: 0x8, addend: 0x0, symName: __ZNSt3__116reverse_iteratorIP8CustomerEmmB8ue170006Ev, symObjAddr: 0x14D90, symBinAddr: 0x100017C70, symSize: 0x20 }
  - { offsetInCU: 0x45703, offset: 0x45703, size: 0x8, addend: 0x0, symName: __ZNSt3__116reverse_iteratorINS0_IP8CustomerEEEC2B8ue170006ES3_, symObjAddr: 0x14DB0, symBinAddr: 0x100017C90, symSize: 0x2C }
  - { offsetInCU: 0x4573B, offset: 0x4573B, size: 0x8, addend: 0x0, symName: __ZNSt3__116reverse_iteratorIP8CustomerEC2B8ue170006ES2_, symObjAddr: 0x14DDC, symBinAddr: 0x100017CBC, symSize: 0x28 }
  - { offsetInCU: 0x45773, offset: 0x45773, size: 0x8, addend: 0x0, symName: __ZNSt3__114__split_bufferI8CustomerRNS_9allocatorIS1_EEED2Ev, symObjAddr: 0x14E04, symBinAddr: 0x100017CE4, symSize: 0x8C }
  - { offsetInCU: 0x4579F, offset: 0x4579F, size: 0x8, addend: 0x0, symName: __ZNSt3__114__split_bufferI8CustomerRNS_9allocatorIS1_EEE5clearB8ue170006Ev, symObjAddr: 0x14E90, symBinAddr: 0x100017D70, symSize: 0x28 }
  - { offsetInCU: 0x457C5, offset: 0x457C5, size: 0x8, addend: 0x0, symName: __ZNKSt3__114__split_bufferI8CustomerRNS_9allocatorIS1_EEE8capacityB8ue170006Ev, symObjAddr: 0x14EB8, symBinAddr: 0x100017D98, symSize: 0x40 }
  - { offsetInCU: 0x457EB, offset: 0x457EB, size: 0x8, addend: 0x0, symName: __ZNSt3__114__split_bufferI8CustomerRNS_9allocatorIS1_EEE17__destruct_at_endB8ue170006EPS1_, symObjAddr: 0x14EF8, symBinAddr: 0x100017DD8, symSize: 0x2C }
  - { offsetInCU: 0x4581F, offset: 0x4581F, size: 0x8, addend: 0x0, symName: __ZNSt3__114__split_bufferI8CustomerRNS_9allocatorIS1_EEE17__destruct_at_endB8ue170006EPS1_NS_17integral_constantIbLb0EEE, symObjAddr: 0x14F24, symBinAddr: 0x100017E04, symSize: 0x80 }
  - { offsetInCU: 0x4585F, offset: 0x4585F, size: 0x8, addend: 0x0, symName: __ZNKSt3__114__split_bufferI8CustomerRNS_9allocatorIS1_EEE9__end_capB8ue170006Ev, symObjAddr: 0x14FA4, symBinAddr: 0x100017E84, symSize: 0x28 }
  - { offsetInCU: 0x45885, offset: 0x45885, size: 0x8, addend: 0x0, symName: __ZNKSt3__117__compressed_pairIP8CustomerRNS_9allocatorIS1_EEE5firstB8ue170006Ev, symObjAddr: 0x14FCC, symBinAddr: 0x100017EAC, symSize: 0x24 }
  - { offsetInCU: 0x458AB, offset: 0x458AB, size: 0x8, addend: 0x0, symName: __ZN8CustomerC1ENSt3__112basic_stringIcNS0_11char_traitsIcEENS0_9allocatorIcEEEES6_S6_, symObjAddr: 0x14FF0, symBinAddr: 0x100017ED0, symSize: 0x44 }
  - { offsetInCU: 0x45902, offset: 0x45902, size: 0x8, addend: 0x0, symName: __ZN8Customer21overrideFlavorOptionsERKNSt3__16vectorINS0_12basic_stringIcNS0_11char_traitsIcEENS0_9allocatorIcEEEENS5_IS7_EEEE, symObjAddr: 0x15034, symBinAddr: 0x100017F14, symSize: 0x30 }
  - { offsetInCU: 0x45936, offset: 0x45936, size: 0x8, addend: 0x0, symName: __ZN8Customer13generateOrderEv, symObjAddr: 0x15064, symBinAddr: 0x100017F44, symSize: 0x104 }
  - { offsetInCU: 0x45986, offset: 0x45986, size: 0x8, addend: 0x0, symName: __ZN8CustomerC2ENSt3__112basic_stringIcNS0_11char_traitsIcEENS0_9allocatorIcEEEES6_S6_, symObjAddr: 0x15168, symBinAddr: 0x100018048, symSize: 0x424 }
  - { offsetInCU: 0x459E1, offset: 0x459E1, size: 0x8, addend: 0x0, symName: __ZNSt3__110unique_ptrI5OrderNS_14default_deleteIS1_EEEC1B8ue170006ILb1EvEEv, symObjAddr: 0x1558C, symBinAddr: 0x10001846C, symSize: 0x2C }
  - { offsetInCU: 0x45A16, offset: 0x45A16, size: 0x8, addend: 0x0, symName: __ZNSt3__110unique_ptrI5OrderNS_14default_deleteIS1_EEEC2B8ue170006ILb1EvEEv, symObjAddr: 0x155B8, symBinAddr: 0x100018498, symSize: 0x3C }
  - { offsetInCU: 0x45A4B, offset: 0x45A4B, size: 0x8, addend: 0x0, symName: __ZNSt3__117__compressed_pairIP5OrderNS_14default_deleteIS1_EEEC1B8ue170006INS_16__value_init_tagES7_EEOT_OT0_, symObjAddr: 0x155F4, symBinAddr: 0x1000184D4, symSize: 0x3C }
  - { offsetInCU: 0x45AA3, offset: 0x45AA3, size: 0x8, addend: 0x0, symName: __ZNSt3__117__compressed_pairIP5OrderNS_14default_deleteIS1_EEEC2B8ue170006INS_16__value_init_tagES7_EEOT_OT0_, symObjAddr: 0x15630, symBinAddr: 0x100018510, symSize: 0x3C }
  - { offsetInCU: 0x45AFB, offset: 0x45AFB, size: 0x8, addend: 0x0, symName: __ZNSt3__122__compressed_pair_elemIP5OrderLi0ELb0EEC2B8ue170006ENS_16__value_init_tagE, symObjAddr: 0x1566C, symBinAddr: 0x10001854C, symSize: 0x18 }
  - { offsetInCU: 0x45B2F, offset: 0x45B2F, size: 0x8, addend: 0x0, symName: __ZNSt3__122__compressed_pair_elemINS_14default_deleteI5OrderEELi1ELb1EEC2B8ue170006ENS_16__value_init_tagE, symObjAddr: 0x15684, symBinAddr: 0x100018564, symSize: 0x14 }
  - { offsetInCU: 0x45B63, offset: 0x45B63, size: 0x8, addend: 0x0, symName: __ZNSt3__16vectorINS_12basic_stringIcNS_11char_traitsIcEENS_9allocatorIcEEEENS4_IS6_EEEaSB8ue170006ERKS8_, symObjAddr: 0x15698, symBinAddr: 0x100018578, symSize: 0x68 }
  - { offsetInCU: 0x45B9A, offset: 0x45B9A, size: 0x8, addend: 0x0, symName: __ZNSt3__16vectorINS_12basic_stringIcNS_11char_traitsIcEENS_9allocatorIcEEEENS4_IS6_EEE19__copy_assign_allocB8ue170006ERKS8_, symObjAddr: 0x15700, symBinAddr: 0x1000185E0, symSize: 0x2C }
  - { offsetInCU: 0x45BCF, offset: 0x45BCF, size: 0x8, addend: 0x0, symName: __ZNSt3__16vectorINS_12basic_stringIcNS_11char_traitsIcEENS_9allocatorIcEEEENS4_IS6_EEE6assignIPS6_Li0EEEvT_SB_, symObjAddr: 0x1572C, symBinAddr: 0x10001860C, symSize: 0x5C }
  - { offsetInCU: 0x45C24, offset: 0x45C24, size: 0x8, addend: 0x0, symName: __ZNSt3__16vectorINS_12basic_stringIcNS_11char_traitsIcEENS_9allocatorIcEEEENS4_IS6_EEE19__copy_assign_allocB8ue170006ERKS8_NS_17integral_constantIbLb0EEE, symObjAddr: 0x15788, symBinAddr: 0x100018668, symSize: 0x14 }
  - { offsetInCU: 0x45C62, offset: 0x45C62, size: 0x8, addend: 0x0, symName: __ZNSt3__16vectorINS_12basic_stringIcNS_11char_traitsIcEENS_9allocatorIcEEEENS4_IS6_EEE18__assign_with_sizeB8ue170006IPS6_SA_EEvT_T0_l, symObjAddr: 0x1579C, symBinAddr: 0x10001867C, symSize: 0x164 }
  - { offsetInCU: 0x45D12, offset: 0x45D12, size: 0x8, addend: 0x0, symName: __ZNSt3__16vectorINS_12basic_stringIcNS_11char_traitsIcEENS_9allocatorIcEEEENS4_IS6_EEE17__destruct_at_endB8ue170006EPS6_, symObjAddr: 0x159E4, symBinAddr: 0x1000188C4, symSize: 0x4C }
  - { offsetInCU: 0x45D56, offset: 0x45D56, size: 0x8, addend: 0x0, symName: __ZNSt3__16vectorINS_12basic_stringIcNS_11char_traitsIcEENS_9allocatorIcEEEENS4_IS6_EEE13__vdeallocateEv, symObjAddr: 0x15A30, symBinAddr: 0x100018910, symSize: 0x94 }
  - { offsetInCU: 0x45D8A, offset: 0x45D8A, size: 0x8, addend: 0x0, symName: __ZNKSt3__111__copy_loopINS_17_ClassicAlgPolicyEEclB8ue170006IPNS_12basic_stringIcNS_11char_traitsIcEENS_9allocatorIcEEEESA_SA_EENS_4pairIT_T1_EESC_T0_SD_, symObjAddr: 0x15C38, symBinAddr: 0x100018B18, symSize: 0x88 }
  - { offsetInCU: 0x45DF5, offset: 0x45DF5, size: 0x8, addend: 0x0, symName: __ZN8Customer9getRandomERKNSt3__16vectorINS0_12basic_stringIcNS0_11char_traitsIcEENS0_9allocatorIcEEEENS5_IS7_EEEE, symObjAddr: 0x15D14, symBinAddr: 0x100018BF4, symSize: 0x70 }
  - { offsetInCU: 0x45E29, offset: 0x45E29, size: 0x8, addend: 0x0, symName: __ZNSt3__110unique_ptrI5OrderNS_14default_deleteIS1_EEEaSB8ue170006EOS4_, symObjAddr: 0x1613C, symBinAddr: 0x10001901C, symSize: 0x50 }
  - { offsetInCU: 0x45E5D, offset: 0x45E5D, size: 0x8, addend: 0x0, symName: __ZNKSt3__16vectorINS_12basic_stringIcNS_11char_traitsIcEENS_9allocatorIcEEEENS4_IS6_EEEixB8ue170006Em, symObjAddr: 0x1618C, symBinAddr: 0x10001906C, symSize: 0x2C }
  - { offsetInCU: 0x45E94, offset: 0x45E94, size: 0x8, addend: 0x0, symName: __ZNSt3__16vectorINS_8functionIFNS_10unique_ptrI7ToppingNS_14default_deleteIS3_EEEEvEEENS_9allocatorIS8_EEEC1B8ue170006Ev, symObjAddr: 0x161B8, symBinAddr: 0x100019098, symSize: 0x2C }
  - { offsetInCU: 0x45EBE, offset: 0x45EBE, size: 0x8, addend: 0x0, symName: __ZNKSt3__16vectorINS_8functionIFNS_10unique_ptrI12FruitToppingNS_14default_deleteIS3_EEEEvEEENS_9allocatorIS8_EEE5beginB8ue170006Ev, symObjAddr: 0x161E4, symBinAddr: 0x1000190C4, symSize: 0x30 }
  - { offsetInCU: 0x45EE6, offset: 0x45EE6, size: 0x8, addend: 0x0, symName: __ZNKSt3__16vectorINS_8functionIFNS_10unique_ptrI12FruitToppingNS_14default_deleteIS3_EEEEvEEENS_9allocatorIS8_EEE3endB8ue170006Ev, symObjAddr: 0x16214, symBinAddr: 0x1000190F4, symSize: 0x30 }
  - { offsetInCU: 0x45F0E, offset: 0x45F0E, size: 0x8, addend: 0x0, symName: __ZNKSt3__111__wrap_iterIPKNS_8functionIFNS_10unique_ptrI12FruitToppingNS_14default_deleteIS3_EEEEvEEEEdeB8ue170006Ev, symObjAddr: 0x16278, symBinAddr: 0x100019158, symSize: 0x18 }
  - { offsetInCU: 0x45F34, offset: 0x45F34, size: 0x8, addend: 0x0, symName: __ZNSt3__16vectorINS_8functionIFNS_10unique_ptrI7ToppingNS_14default_deleteIS3_EEEEvEEENS_9allocatorIS8_EEE9push_backB8ue170006EOS8_, symObjAddr: 0x16290, symBinAddr: 0x100019170, symSize: 0x6C }
  - { offsetInCU: 0x45F6B, offset: 0x45F6B, size: 0x8, addend: 0x0, symName: __ZNSt3__18functionIFNS_10unique_ptrI12FruitToppingNS_14default_deleteIS2_EEEEvEEC1ERKS7_, symObjAddr: 0x162FC, symBinAddr: 0x1000191DC, symSize: 0x34 }
  - { offsetInCU: 0x45FA6, offset: 0x45FA6, size: 0x8, addend: 0x0, symName: __ZNSt3__18functionIFNS_10unique_ptrI7ToppingNS_14default_deleteIS2_EEEEvEEC1IZNK11ToppingList16getRandomToppingEvEUlvE_vEET_, symObjAddr: 0x16330, symBinAddr: 0x100019210, symSize: 0x34 }
  - { offsetInCU: 0x45FEC, offset: 0x45FEC, size: 0x8, addend: 0x0, symName: __ZNSt3__18functionIFNS_10unique_ptrI7ToppingNS_14default_deleteIS2_EEEEvEED1Ev, symObjAddr: 0x16364, symBinAddr: 0x100019244, symSize: 0x2C }
  - { offsetInCU: 0x4601E, offset: 0x4601E, size: 0x8, addend: 0x0, symName: __ZZNK11ToppingList16getRandomToppingEvENUlvE_D1Ev, symObjAddr: 0x16390, symBinAddr: 0x100019270, symSize: 0x2C }
  - { offsetInCU: 0x4604A, offset: 0x4604A, size: 0x8, addend: 0x0, symName: __ZNSt3__111__wrap_iterIPKNS_8functionIFNS_10unique_ptrI12FruitToppingNS_14default_deleteIS3_EEEEvEEEEppB8ue170006Ev, symObjAddr: 0x163BC, symBinAddr: 0x10001929C, symSize: 0x20 }
  - { offsetInCU: 0x46070, offset: 0x46070, size: 0x8, addend: 0x0, symName: __ZNKSt3__16vectorINS_8functionIFNS_10unique_ptrI12SweetToppingNS_14default_deleteIS3_EEEEvEEENS_9allocatorIS8_EEE5beginB8ue170006Ev, symObjAddr: 0x163DC, symBinAddr: 0x1000192BC, symSize: 0x30 }
  - { offsetInCU: 0x46098, offset: 0x46098, size: 0x8, addend: 0x0, symName: __ZNKSt3__16vectorINS_8functionIFNS_10unique_ptrI12SweetToppingNS_14default_deleteIS3_EEEEvEEENS_9allocatorIS8_EEE3endB8ue170006Ev, symObjAddr: 0x1640C, symBinAddr: 0x1000192EC, symSize: 0x30 }
  - { offsetInCU: 0x460C0, offset: 0x460C0, size: 0x8, addend: 0x0, symName: __ZNKSt3__111__wrap_iterIPKNS_8functionIFNS_10unique_ptrI12SweetToppingNS_14default_deleteIS3_EEEEvEEEEdeB8ue170006Ev, symObjAddr: 0x16470, symBinAddr: 0x100019350, symSize: 0x18 }
  - { offsetInCU: 0x460E6, offset: 0x460E6, size: 0x8, addend: 0x0, symName: __ZNSt3__18functionIFNS_10unique_ptrI12SweetToppingNS_14default_deleteIS2_EEEEvEEC1ERKS7_, symObjAddr: 0x16488, symBinAddr: 0x100019368, symSize: 0x34 }
  - { offsetInCU: 0x46121, offset: 0x46121, size: 0x8, addend: 0x0, symName: __ZNSt3__18functionIFNS_10unique_ptrI7ToppingNS_14default_deleteIS2_EEEEvEEC1IZNK11ToppingList16getRandomToppingEvEUlvE0_vEET_, symObjAddr: 0x164BC, symBinAddr: 0x10001939C, symSize: 0x34 }
  - { offsetInCU: 0x4616D, offset: 0x4616D, size: 0x8, addend: 0x0, symName: __ZZNK11ToppingList16getRandomToppingEvENUlvE0_D1Ev, symObjAddr: 0x164F0, symBinAddr: 0x1000193D0, symSize: 0x2C }
  - { offsetInCU: 0x46199, offset: 0x46199, size: 0x8, addend: 0x0, symName: __ZNSt3__111__wrap_iterIPKNS_8functionIFNS_10unique_ptrI12SweetToppingNS_14default_deleteIS3_EEEEvEEEEppB8ue170006Ev, symObjAddr: 0x1651C, symBinAddr: 0x1000193FC, symSize: 0x20 }
  - { offsetInCU: 0x461BF, offset: 0x461BF, size: 0x8, addend: 0x0, symName: __ZNKSt3__16vectorINS_8functionIFNS_10unique_ptrI7ToppingNS_14default_deleteIS3_EEEEvEEENS_9allocatorIS8_EEE4sizeB8ue170006Ev, symObjAddr: 0x1653C, symBinAddr: 0x10001941C, symSize: 0x28 }
  - { offsetInCU: 0x461E5, offset: 0x461E5, size: 0x8, addend: 0x0, symName: __ZNSt3__16vectorINS_8functionIFNS_10unique_ptrI7ToppingNS_14default_deleteIS3_EEEEvEEENS_9allocatorIS8_EEEixB8ue170006Em, symObjAddr: 0x16564, symBinAddr: 0x100019444, symSize: 0x24 }
  - { offsetInCU: 0x4621C, offset: 0x4621C, size: 0x8, addend: 0x0, symName: __ZNKSt3__18functionIFNS_10unique_ptrI7ToppingNS_14default_deleteIS2_EEEEvEEclEv, symObjAddr: 0x16588, symBinAddr: 0x100019468, symSize: 0x2C }
  - { offsetInCU: 0x46244, offset: 0x46244, size: 0x8, addend: 0x0, symName: __ZNSt3__16vectorINS_8functionIFNS_10unique_ptrI7ToppingNS_14default_deleteIS3_EEEEvEEENS_9allocatorIS8_EEED1B8ue170006Ev, symObjAddr: 0x165B4, symBinAddr: 0x100019494, symSize: 0x2C }
  - { offsetInCU: 0x4626E, offset: 0x4626E, size: 0x8, addend: 0x0, symName: __ZNSt3__16vectorINS_8functionIFNS_10unique_ptrI7ToppingNS_14default_deleteIS3_EEEEvEEENS_9allocatorIS8_EEEC2B8ue170006Ev, symObjAddr: 0x165E0, symBinAddr: 0x1000194C0, symSize: 0x4C }
  - { offsetInCU: 0x46298, offset: 0x46298, size: 0x8, addend: 0x0, symName: __ZNSt3__117__compressed_pairIPNS_8functionIFNS_10unique_ptrI7ToppingNS_14default_deleteIS3_EEEEvEEENS_9allocatorIS8_EEEC1B8ue170006IDnNS_18__default_init_tagEEEOT_OT0_, symObjAddr: 0x1662C, symBinAddr: 0x10001950C, symSize: 0x3C }
  - { offsetInCU: 0x462F0, offset: 0x462F0, size: 0x8, addend: 0x0, symName: __ZNSt3__117__compressed_pairIPNS_8functionIFNS_10unique_ptrI7ToppingNS_14default_deleteIS3_EEEEvEEENS_9allocatorIS8_EEEC2B8ue170006IDnNS_18__default_init_tagEEEOT_OT0_, symObjAddr: 0x16668, symBinAddr: 0x100019548, symSize: 0x40 }
  - { offsetInCU: 0x46348, offset: 0x46348, size: 0x8, addend: 0x0, symName: __ZNSt3__122__compressed_pair_elemIPNS_8functionIFNS_10unique_ptrI7ToppingNS_14default_deleteIS3_EEEEvEEELi0ELb0EEC2B8ue170006IDnvEEOT_, symObjAddr: 0x166A8, symBinAddr: 0x100019588, symSize: 0x1C }
  - { offsetInCU: 0x4638A, offset: 0x4638A, size: 0x8, addend: 0x0, symName: __ZNSt3__122__compressed_pair_elemINS_9allocatorINS_8functionIFNS_10unique_ptrI7ToppingNS_14default_deleteIS4_EEEEvEEEEELi1ELb1EEC2B8ue170006ENS_18__default_init_tagE, symObjAddr: 0x166C4, symBinAddr: 0x1000195A4, symSize: 0x2C }
  - { offsetInCU: 0x463BE, offset: 0x463BE, size: 0x8, addend: 0x0, symName: __ZNSt3__19allocatorINS_8functionIFNS_10unique_ptrI7ToppingNS_14default_deleteIS3_EEEEvEEEEC2B8ue170006Ev, symObjAddr: 0x166F0, symBinAddr: 0x1000195D0, symSize: 0x2C }
  - { offsetInCU: 0x463E8, offset: 0x463E8, size: 0x8, addend: 0x0, symName: __ZNSt3__116__non_trivial_ifILb1ENS_9allocatorINS_8functionIFNS_10unique_ptrI7ToppingNS_14default_deleteIS4_EEEEvEEEEEEC2B8ue170006Ev, symObjAddr: 0x1671C, symBinAddr: 0x1000195FC, symSize: 0x14 }
  - { offsetInCU: 0x46412, offset: 0x46412, size: 0x8, addend: 0x0, symName: __ZNKSt3__16vectorINS_8functionIFNS_10unique_ptrI12FruitToppingNS_14default_deleteIS3_EEEEvEEENS_9allocatorIS8_EEE11__make_iterB8ue170006EPKS8_, symObjAddr: 0x16730, symBinAddr: 0x100019610, symSize: 0x30 }
  - { offsetInCU: 0x46447, offset: 0x46447, size: 0x8, addend: 0x0, symName: __ZNSt3__111__wrap_iterIPKNS_8functionIFNS_10unique_ptrI12FruitToppingNS_14default_deleteIS3_EEEEvEEEEC1B8ue170006ESA_, symObjAddr: 0x16760, symBinAddr: 0x100019640, symSize: 0x34 }
  - { offsetInCU: 0x4647F, offset: 0x4647F, size: 0x8, addend: 0x0, symName: __ZNSt3__111__wrap_iterIPKNS_8functionIFNS_10unique_ptrI12FruitToppingNS_14default_deleteIS3_EEEEvEEEEC2B8ue170006ESA_, symObjAddr: 0x16794, symBinAddr: 0x100019674, symSize: 0x20 }
  - { offsetInCU: 0x464B7, offset: 0x464B7, size: 0x8, addend: 0x0, symName: __ZNKSt3__111__wrap_iterIPKNS_8functionIFNS_10unique_ptrI12FruitToppingNS_14default_deleteIS3_EEEEvEEEE4baseB8ue170006Ev, symObjAddr: 0x167FC, symBinAddr: 0x1000196DC, symSize: 0x18 }
  - { offsetInCU: 0x464DD, offset: 0x464DD, size: 0x8, addend: 0x0, symName: __ZNSt3__16vectorINS_8functionIFNS_10unique_ptrI7ToppingNS_14default_deleteIS3_EEEEvEEENS_9allocatorIS8_EEE9__end_capB8ue170006Ev, symObjAddr: 0x16814, symBinAddr: 0x1000196F4, symSize: 0x28 }
  - { offsetInCU: 0x46503, offset: 0x46503, size: 0x8, addend: 0x0, symName: __ZNSt3__16vectorINS_8functionIFNS_10unique_ptrI7ToppingNS_14default_deleteIS3_EEEEvEEENS_9allocatorIS8_EEE22__construct_one_at_endB8ue170006IJS8_EEEvDpOT_, symObjAddr: 0x1683C, symBinAddr: 0x10001971C, symSize: 0x90 }
  - { offsetInCU: 0x46552, offset: 0x46552, size: 0x8, addend: 0x0, symName: __ZNSt3__16vectorINS_8functionIFNS_10unique_ptrI7ToppingNS_14default_deleteIS3_EEEEvEEENS_9allocatorIS8_EEE21__push_back_slow_pathIS8_EEvOT_, symObjAddr: 0x168CC, symBinAddr: 0x1000197AC, symSize: 0xD8 }
  - { offsetInCU: 0x465B0, offset: 0x465B0, size: 0x8, addend: 0x0, symName: __ZNSt3__117__compressed_pairIPNS_8functionIFNS_10unique_ptrI7ToppingNS_14default_deleteIS3_EEEEvEEENS_9allocatorIS8_EEE5firstB8ue170006Ev, symObjAddr: 0x169A4, symBinAddr: 0x100019884, symSize: 0x24 }
  - { offsetInCU: 0x465D6, offset: 0x465D6, size: 0x8, addend: 0x0, symName: __ZNSt3__122__compressed_pair_elemIPNS_8functionIFNS_10unique_ptrI7ToppingNS_14default_deleteIS3_EEEEvEEELi0ELb0EE5__getB8ue170006Ev, symObjAddr: 0x169C8, symBinAddr: 0x1000198A8, symSize: 0x14 }
  - { offsetInCU: 0x4661A, offset: 0x4661A, size: 0x8, addend: 0x0, symName: __ZNSt3__16vectorINS_8functionIFNS_10unique_ptrI7ToppingNS_14default_deleteIS3_EEEEvEEENS_9allocatorIS8_EEE21_ConstructTransactionC1B8ue170006ERSB_m, symObjAddr: 0x169DC, symBinAddr: 0x1000198BC, symSize: 0x3C }
  - { offsetInCU: 0x46662, offset: 0x46662, size: 0x8, addend: 0x0, symName: __ZNSt3__116allocator_traitsINS_9allocatorINS_8functionIFNS_10unique_ptrI7ToppingNS_14default_deleteIS4_EEEEvEEEEEE9constructB8ue170006IS9_JS9_EvEEvRSA_PT_DpOT0_, symObjAddr: 0x16A18, symBinAddr: 0x1000198F8, symSize: 0x34 }
  - { offsetInCU: 0x466B9, offset: 0x466B9, size: 0x8, addend: 0x0, symName: __ZNSt3__16vectorINS_8functionIFNS_10unique_ptrI7ToppingNS_14default_deleteIS3_EEEEvEEENS_9allocatorIS8_EEE7__allocB8ue170006Ev, symObjAddr: 0x16A4C, symBinAddr: 0x10001992C, symSize: 0x28 }
  - { offsetInCU: 0x466DF, offset: 0x466DF, size: 0x8, addend: 0x0, symName: __ZNSt3__16vectorINS_8functionIFNS_10unique_ptrI7ToppingNS_14default_deleteIS3_EEEEvEEENS_9allocatorIS8_EEE21_ConstructTransactionD1B8ue170006Ev, symObjAddr: 0x16A88, symBinAddr: 0x100019968, symSize: 0x2C }
  - { offsetInCU: 0x46709, offset: 0x46709, size: 0x8, addend: 0x0, symName: __ZNSt3__16vectorINS_8functionIFNS_10unique_ptrI7ToppingNS_14default_deleteIS3_EEEEvEEENS_9allocatorIS8_EEE21_ConstructTransactionC2B8ue170006ERSB_m, symObjAddr: 0x16AB4, symBinAddr: 0x100019994, symSize: 0x44 }
  - { offsetInCU: 0x46751, offset: 0x46751, size: 0x8, addend: 0x0, symName: __ZNSt3__19allocatorINS_8functionIFNS_10unique_ptrI7ToppingNS_14default_deleteIS3_EEEEvEEEE9constructB8ue170006IS8_JS8_EEEvPT_DpOT0_, symObjAddr: 0x16AF8, symBinAddr: 0x1000199D8, symSize: 0x30 }
  - { offsetInCU: 0x467A7, offset: 0x467A7, size: 0x8, addend: 0x0, symName: __ZNSt3__18functionIFNS_10unique_ptrI7ToppingNS_14default_deleteIS2_EEEEvEEC1EOS7_, symObjAddr: 0x16B28, symBinAddr: 0x100019A08, symSize: 0x34 }
  - { offsetInCU: 0x467E2, offset: 0x467E2, size: 0x8, addend: 0x0, symName: __ZNSt3__18functionIFNS_10unique_ptrI7ToppingNS_14default_deleteIS2_EEEEvEEC2EOS7_, symObjAddr: 0x16B5C, symBinAddr: 0x100019A3C, symSize: 0x34 }
  - { offsetInCU: 0x4681D, offset: 0x4681D, size: 0x8, addend: 0x0, symName: __ZNSt3__110__function12__value_funcIFNS_10unique_ptrI7ToppingNS_14default_deleteIS3_EEEEvEEC1B8ue170006EOS8_, symObjAddr: 0x16B90, symBinAddr: 0x100019A70, symSize: 0x34 }
  - { offsetInCU: 0x46856, offset: 0x46856, size: 0x8, addend: 0x0, symName: __ZNSt3__110__function12__value_funcIFNS_10unique_ptrI7ToppingNS_14default_deleteIS3_EEEEvEEC2B8ue170006EOS8_, symObjAddr: 0x16BC4, symBinAddr: 0x100019AA4, symSize: 0xD0 }
  - { offsetInCU: 0x4688F, offset: 0x4688F, size: 0x8, addend: 0x0, symName: __ZNSt3__110__function12__value_funcIFNS_10unique_ptrI7ToppingNS_14default_deleteIS3_EEEEvEE9__as_baseB8ue170006EPv, symObjAddr: 0x16C94, symBinAddr: 0x100019B74, symSize: 0x14 }
  - { offsetInCU: 0x468B3, offset: 0x468B3, size: 0x8, addend: 0x0, symName: __ZNSt3__117__compressed_pairIPNS_8functionIFNS_10unique_ptrI7ToppingNS_14default_deleteIS3_EEEEvEEENS_9allocatorIS8_EEE6secondB8ue170006Ev, symObjAddr: 0x16CA8, symBinAddr: 0x100019B88, symSize: 0x24 }
  - { offsetInCU: 0x468D9, offset: 0x468D9, size: 0x8, addend: 0x0, symName: __ZNSt3__122__compressed_pair_elemINS_9allocatorINS_8functionIFNS_10unique_ptrI7ToppingNS_14default_deleteIS4_EEEEvEEEEELi1ELb1EE5__getB8ue170006Ev, symObjAddr: 0x16CCC, symBinAddr: 0x100019BAC, symSize: 0x14 }
  - { offsetInCU: 0x468FF, offset: 0x468FF, size: 0x8, addend: 0x0, symName: __ZNSt3__16vectorINS_8functionIFNS_10unique_ptrI7ToppingNS_14default_deleteIS3_EEEEvEEENS_9allocatorIS8_EEE21_ConstructTransactionD2B8ue170006Ev, symObjAddr: 0x16CE0, symBinAddr: 0x100019BC0, symSize: 0x20 }
  - { offsetInCU: 0x46929, offset: 0x46929, size: 0x8, addend: 0x0, symName: __ZNKSt3__16vectorINS_8functionIFNS_10unique_ptrI7ToppingNS_14default_deleteIS3_EEEEvEEENS_9allocatorIS8_EEE11__recommendB8ue170006Em, symObjAddr: 0x16D00, symBinAddr: 0x100019BE0, symSize: 0xB4 }
  - { offsetInCU: 0x4697E, offset: 0x4697E, size: 0x8, addend: 0x0, symName: __ZNSt3__114__split_bufferINS_8functionIFNS_10unique_ptrI7ToppingNS_14default_deleteIS3_EEEEvEEERNS_9allocatorIS8_EEEC1EmmSB_, symObjAddr: 0x16DB4, symBinAddr: 0x100019C94, symSize: 0x44 }
  - { offsetInCU: 0x469D4, offset: 0x469D4, size: 0x8, addend: 0x0, symName: __ZNSt3__114__split_bufferINS_8functionIFNS_10unique_ptrI7ToppingNS_14default_deleteIS3_EEEEvEEERNS_9allocatorIS8_EEED1Ev, symObjAddr: 0x16F08, symBinAddr: 0x100019DE8, symSize: 0x2C }
  - { offsetInCU: 0x46A00, offset: 0x46A00, size: 0x8, addend: 0x0, symName: __ZNKSt3__16vectorINS_8functionIFNS_10unique_ptrI7ToppingNS_14default_deleteIS3_EEEEvEEENS_9allocatorIS8_EEE8max_sizeEv, symObjAddr: 0x16F34, symBinAddr: 0x100019E14, symSize: 0x60 }
  - { offsetInCU: 0x46A28, offset: 0x46A28, size: 0x8, addend: 0x0, symName: __ZNKSt3__16vectorINS_8functionIFNS_10unique_ptrI7ToppingNS_14default_deleteIS3_EEEEvEEENS_9allocatorIS8_EEE20__throw_length_errorB8ue170006Ev, symObjAddr: 0x16F94, symBinAddr: 0x100019E74, symSize: 0x1C }
  - { offsetInCU: 0x46A4E, offset: 0x46A4E, size: 0x8, addend: 0x0, symName: __ZNKSt3__16vectorINS_8functionIFNS_10unique_ptrI7ToppingNS_14default_deleteIS3_EEEEvEEENS_9allocatorIS8_EEE8capacityB8ue170006Ev, symObjAddr: 0x16FB0, symBinAddr: 0x100019E90, symSize: 0x40 }
  - { offsetInCU: 0x46A80, offset: 0x46A80, size: 0x8, addend: 0x0, symName: __ZNSt3__116allocator_traitsINS_9allocatorINS_8functionIFNS_10unique_ptrI7ToppingNS_14default_deleteIS4_EEEEvEEEEEE8max_sizeB8ue170006ISA_vEEmRKSA_, symObjAddr: 0x16FF0, symBinAddr: 0x100019ED0, symSize: 0x24 }
  - { offsetInCU: 0x46AAE, offset: 0x46AAE, size: 0x8, addend: 0x0, symName: __ZNKSt3__16vectorINS_8functionIFNS_10unique_ptrI7ToppingNS_14default_deleteIS3_EEEEvEEENS_9allocatorIS8_EEE7__allocB8ue170006Ev, symObjAddr: 0x17014, symBinAddr: 0x100019EF4, symSize: 0x28 }
  - { offsetInCU: 0x46AD4, offset: 0x46AD4, size: 0x8, addend: 0x0, symName: __ZNKSt3__19allocatorINS_8functionIFNS_10unique_ptrI7ToppingNS_14default_deleteIS3_EEEEvEEEE8max_sizeB8ue170006Ev, symObjAddr: 0x1703C, symBinAddr: 0x100019F1C, symSize: 0x14 }
  - { offsetInCU: 0x46AFA, offset: 0x46AFA, size: 0x8, addend: 0x0, symName: __ZNKSt3__117__compressed_pairIPNS_8functionIFNS_10unique_ptrI7ToppingNS_14default_deleteIS3_EEEEvEEENS_9allocatorIS8_EEE6secondB8ue170006Ev, symObjAddr: 0x17050, symBinAddr: 0x100019F30, symSize: 0x24 }
  - { offsetInCU: 0x46B20, offset: 0x46B20, size: 0x8, addend: 0x0, symName: __ZNKSt3__122__compressed_pair_elemINS_9allocatorINS_8functionIFNS_10unique_ptrI7ToppingNS_14default_deleteIS4_EEEEvEEEEELi1ELb1EE5__getB8ue170006Ev, symObjAddr: 0x17074, symBinAddr: 0x100019F54, symSize: 0x14 }
  - { offsetInCU: 0x46B46, offset: 0x46B46, size: 0x8, addend: 0x0, symName: __ZNKSt3__16vectorINS_8functionIFNS_10unique_ptrI7ToppingNS_14default_deleteIS3_EEEEvEEENS_9allocatorIS8_EEE9__end_capB8ue170006Ev, symObjAddr: 0x17088, symBinAddr: 0x100019F68, symSize: 0x28 }
  - { offsetInCU: 0x46B6C, offset: 0x46B6C, size: 0x8, addend: 0x0, symName: __ZNKSt3__117__compressed_pairIPNS_8functionIFNS_10unique_ptrI7ToppingNS_14default_deleteIS3_EEEEvEEENS_9allocatorIS8_EEE5firstB8ue170006Ev, symObjAddr: 0x170B0, symBinAddr: 0x100019F90, symSize: 0x24 }
  - { offsetInCU: 0x46B92, offset: 0x46B92, size: 0x8, addend: 0x0, symName: __ZNKSt3__122__compressed_pair_elemIPNS_8functionIFNS_10unique_ptrI7ToppingNS_14default_deleteIS3_EEEEvEEELi0ELb0EE5__getB8ue170006Ev, symObjAddr: 0x170D4, symBinAddr: 0x100019FB4, symSize: 0x14 }
  - { offsetInCU: 0x46BB8, offset: 0x46BB8, size: 0x8, addend: 0x0, symName: __ZNSt3__114__split_bufferINS_8functionIFNS_10unique_ptrI7ToppingNS_14default_deleteIS3_EEEEvEEERNS_9allocatorIS8_EEEC2EmmSB_, symObjAddr: 0x170E8, symBinAddr: 0x100019FC8, symSize: 0xD4 }
  - { offsetInCU: 0x46C2B, offset: 0x46C2B, size: 0x8, addend: 0x0, symName: __ZNSt3__117__compressed_pairIPNS_8functionIFNS_10unique_ptrI7ToppingNS_14default_deleteIS3_EEEEvEEERNS_9allocatorIS8_EEEC1B8ue170006IDnSC_EEOT_OT0_, symObjAddr: 0x171BC, symBinAddr: 0x10001A09C, symSize: 0x3C }
  - { offsetInCU: 0x46C83, offset: 0x46C83, size: 0x8, addend: 0x0, symName: __ZNSt3__114__split_bufferINS_8functionIFNS_10unique_ptrI7ToppingNS_14default_deleteIS3_EEEEvEEERNS_9allocatorIS8_EEE7__allocB8ue170006Ev, symObjAddr: 0x17238, symBinAddr: 0x10001A118, symSize: 0x28 }
  - { offsetInCU: 0x46CA9, offset: 0x46CA9, size: 0x8, addend: 0x0, symName: __ZNSt3__114__split_bufferINS_8functionIFNS_10unique_ptrI7ToppingNS_14default_deleteIS3_EEEEvEEERNS_9allocatorIS8_EEE9__end_capB8ue170006Ev, symObjAddr: 0x17260, symBinAddr: 0x10001A140, symSize: 0x28 }
  - { offsetInCU: 0x46CCF, offset: 0x46CCF, size: 0x8, addend: 0x0, symName: __ZNSt3__117__compressed_pairIPNS_8functionIFNS_10unique_ptrI7ToppingNS_14default_deleteIS3_EEEEvEEERNS_9allocatorIS8_EEEC2B8ue170006IDnSC_EEOT_OT0_, symObjAddr: 0x17288, symBinAddr: 0x10001A168, symSize: 0x48 }
  - { offsetInCU: 0x46D27, offset: 0x46D27, size: 0x8, addend: 0x0, symName: __ZNSt3__122__compressed_pair_elemIRNS_9allocatorINS_8functionIFNS_10unique_ptrI7ToppingNS_14default_deleteIS4_EEEEvEEEEELi1ELb0EEC2B8ue170006ISB_vEEOT_, symObjAddr: 0x172D0, symBinAddr: 0x10001A1B0, symSize: 0x20 }
  - { offsetInCU: 0x46D69, offset: 0x46D69, size: 0x8, addend: 0x0, symName: __ZNSt3__19allocatorINS_8functionIFNS_10unique_ptrI7ToppingNS_14default_deleteIS3_EEEEvEEEE8allocateB8ue170006Em, symObjAddr: 0x172F0, symBinAddr: 0x10001A1D0, symSize: 0x58 }
  - { offsetInCU: 0x46D9D, offset: 0x46D9D, size: 0x8, addend: 0x0, symName: __ZNSt3__117__compressed_pairIPNS_8functionIFNS_10unique_ptrI7ToppingNS_14default_deleteIS3_EEEEvEEERNS_9allocatorIS8_EEE6secondB8ue170006Ev, symObjAddr: 0x17348, symBinAddr: 0x10001A228, symSize: 0x28 }
  - { offsetInCU: 0x46DC3, offset: 0x46DC3, size: 0x8, addend: 0x0, symName: __ZNSt3__122__compressed_pair_elemIRNS_9allocatorINS_8functionIFNS_10unique_ptrI7ToppingNS_14default_deleteIS4_EEEEvEEEEELi1ELb0EE5__getB8ue170006Ev, symObjAddr: 0x17370, symBinAddr: 0x10001A250, symSize: 0x18 }
  - { offsetInCU: 0x46DE9, offset: 0x46DE9, size: 0x8, addend: 0x0, symName: __ZNSt3__117__compressed_pairIPNS_8functionIFNS_10unique_ptrI7ToppingNS_14default_deleteIS3_EEEEvEEERNS_9allocatorIS8_EEE5firstB8ue170006Ev, symObjAddr: 0x17388, symBinAddr: 0x10001A268, symSize: 0x24 }
  - { offsetInCU: 0x46E0F, offset: 0x46E0F, size: 0x8, addend: 0x0, symName: __ZNKSt3__16vectorINS_8functionIFNS_10unique_ptrI7ToppingNS_14default_deleteIS3_EEEEvEEENS_9allocatorIS8_EEE17__annotate_deleteB8ue170006Ev, symObjAddr: 0x173AC, symBinAddr: 0x10001A28C, symSize: 0xB8 }
  - { offsetInCU: 0x46E35, offset: 0x46E35, size: 0x8, addend: 0x0, symName: __ZNSt3__116reverse_iteratorIPNS_8functionIFNS_10unique_ptrI7ToppingNS_14default_deleteIS3_EEEEvEEEEC1B8ue170006ES9_, symObjAddr: 0x17590, symBinAddr: 0x10001A470, symSize: 0x34 }
  - { offsetInCU: 0x46E6D, offset: 0x46E6D, size: 0x8, addend: 0x0, symName: __ZNKSt3__116reverse_iteratorIPNS_8functionIFNS_10unique_ptrI7ToppingNS_14default_deleteIS3_EEEEvEEEE4baseB8ue170006Ev, symObjAddr: 0x175C4, symBinAddr: 0x10001A4A4, symSize: 0x18 }
  - { offsetInCU: 0x46E93, offset: 0x46E93, size: 0x8, addend: 0x0, symName: __ZNKSt3__16vectorINS_8functionIFNS_10unique_ptrI7ToppingNS_14default_deleteIS3_EEEEvEEENS_9allocatorIS8_EEE14__annotate_newB8ue170006Em, symObjAddr: 0x17618, symBinAddr: 0x10001A4F8, symSize: 0xAC }
  - { offsetInCU: 0x46EC8, offset: 0x46EC8, size: 0x8, addend: 0x0, symName: __ZNKSt3__16vectorINS_8functionIFNS_10unique_ptrI7ToppingNS_14default_deleteIS3_EEEEvEEENS_9allocatorIS8_EEE31__annotate_contiguous_containerB8ue170006EPKvSD_SD_SD_, symObjAddr: 0x176C4, symBinAddr: 0x10001A5A4, symSize: 0x20 }
  - { offsetInCU: 0x46F1E, offset: 0x46F1E, size: 0x8, addend: 0x0, symName: __ZNKSt3__16vectorINS_8functionIFNS_10unique_ptrI7ToppingNS_14default_deleteIS3_EEEEvEEENS_9allocatorIS8_EEE4dataB8ue170006Ev, symObjAddr: 0x176E4, symBinAddr: 0x10001A5C4, symSize: 0x28 }
  - { offsetInCU: 0x46F44, offset: 0x46F44, size: 0x8, addend: 0x0, symName: __ZNSt3__129_AllocatorDestroyRangeReverseINS_9allocatorINS_8functionIFNS_10unique_ptrI7ToppingNS_14default_deleteIS4_EEEEvEEEEENS_16reverse_iteratorIPS9_EEEC1B8ue170006ERSA_RSD_SG_, symObjAddr: 0x17758, symBinAddr: 0x10001A638, symSize: 0x44 }
  - { offsetInCU: 0x46F9B, offset: 0x46F9B, size: 0x8, addend: 0x0, symName: __ZNKSt3__116reverse_iteratorIPNS_8functionIFNS_10unique_ptrI7ToppingNS_14default_deleteIS3_EEEEvEEEEdeB8ue170006Ev, symObjAddr: 0x17808, symBinAddr: 0x10001A6E8, symSize: 0x28 }
  - { offsetInCU: 0x46FCF, offset: 0x46FCF, size: 0x8, addend: 0x0, symName: __ZNSt3__116reverse_iteratorIPNS_8functionIFNS_10unique_ptrI7ToppingNS_14default_deleteIS3_EEEEvEEEEppB8ue170006Ev, symObjAddr: 0x17830, symBinAddr: 0x10001A710, symSize: 0x20 }
  - { offsetInCU: 0x46FF5, offset: 0x46FF5, size: 0x8, addend: 0x0, symName: __ZNSt3__128__exception_guard_exceptionsINS_29_AllocatorDestroyRangeReverseINS_9allocatorINS_8functionIFNS_10unique_ptrI7ToppingNS_14default_deleteIS5_EEEEvEEEEENS_16reverse_iteratorIPSA_EEEEE10__completeB8ue170006Ev, symObjAddr: 0x17850, symBinAddr: 0x10001A730, symSize: 0x1C }
  - { offsetInCU: 0x4701B, offset: 0x4701B, size: 0x8, addend: 0x0, symName: __ZNSt3__128__exception_guard_exceptionsINS_29_AllocatorDestroyRangeReverseINS_9allocatorINS_8functionIFNS_10unique_ptrI7ToppingNS_14default_deleteIS5_EEEEvEEEEENS_16reverse_iteratorIPSA_EEEEED1B8ue170006Ev, symObjAddr: 0x1786C, symBinAddr: 0x10001A74C, symSize: 0x2C }
  - { offsetInCU: 0x47045, offset: 0x47045, size: 0x8, addend: 0x0, symName: __ZNSt3__128__exception_guard_exceptionsINS_29_AllocatorDestroyRangeReverseINS_9allocatorINS_8functionIFNS_10unique_ptrI7ToppingNS_14default_deleteIS5_EEEEvEEEEENS_16reverse_iteratorIPSA_EEEEEC1B8ue170006ESF_, symObjAddr: 0x17898, symBinAddr: 0x10001A778, symSize: 0x34 }
  - { offsetInCU: 0x4707E, offset: 0x4707E, size: 0x8, addend: 0x0, symName: __ZNSt3__128__exception_guard_exceptionsINS_29_AllocatorDestroyRangeReverseINS_9allocatorINS_8functionIFNS_10unique_ptrI7ToppingNS_14default_deleteIS5_EEEEvEEEEENS_16reverse_iteratorIPSA_EEEEEC2B8ue170006ESF_, symObjAddr: 0x178CC, symBinAddr: 0x10001A7AC, symSize: 0x30 }
  - { offsetInCU: 0x470B7, offset: 0x470B7, size: 0x8, addend: 0x0, symName: __ZNSt3__129_AllocatorDestroyRangeReverseINS_9allocatorINS_8functionIFNS_10unique_ptrI7ToppingNS_14default_deleteIS4_EEEEvEEEEENS_16reverse_iteratorIPS9_EEEC2B8ue170006ERSA_RSD_SG_, symObjAddr: 0x178FC, symBinAddr: 0x10001A7DC, symSize: 0x38 }
  - { offsetInCU: 0x47114, offset: 0x47114, size: 0x8, addend: 0x0, symName: __ZNSt3__119__to_address_helperINS_16reverse_iteratorIPNS_8functionIFNS_10unique_ptrI7ToppingNS_14default_deleteIS4_EEEEvEEEEEvE6__callB8ue170006ERKSB_, symObjAddr: 0x17934, symBinAddr: 0x10001A814, symSize: 0x38 }
  - { offsetInCU: 0x47137, offset: 0x47137, size: 0x8, addend: 0x0, symName: __ZNKSt3__116reverse_iteratorIPNS_8functionIFNS_10unique_ptrI7ToppingNS_14default_deleteIS3_EEEEvEEEEptB8ue170006Ev, symObjAddr: 0x1796C, symBinAddr: 0x10001A84C, symSize: 0x24 }
  - { offsetInCU: 0x4715D, offset: 0x4715D, size: 0x8, addend: 0x0, symName: __ZNSt3__128__exception_guard_exceptionsINS_29_AllocatorDestroyRangeReverseINS_9allocatorINS_8functionIFNS_10unique_ptrI7ToppingNS_14default_deleteIS5_EEEEvEEEEENS_16reverse_iteratorIPSA_EEEEED2B8ue170006Ev, symObjAddr: 0x17990, symBinAddr: 0x10001A870, symSize: 0x50 }
  - { offsetInCU: 0x47187, offset: 0x47187, size: 0x8, addend: 0x0, symName: __ZNKSt3__129_AllocatorDestroyRangeReverseINS_9allocatorINS_8functionIFNS_10unique_ptrI7ToppingNS_14default_deleteIS4_EEEEvEEEEENS_16reverse_iteratorIPS9_EEEclB8ue170006Ev, symObjAddr: 0x179E0, symBinAddr: 0x10001A8C0, symSize: 0xB4 }
  - { offsetInCU: 0x471AE, offset: 0x471AE, size: 0x8, addend: 0x0, symName: __ZNSt3__116reverse_iteratorINS0_IPNS_8functionIFNS_10unique_ptrI7ToppingNS_14default_deleteIS3_EEEEvEEEEEEC1B8ue170006ESA_, symObjAddr: 0x17B04, symBinAddr: 0x10001A9E4, symSize: 0x3C }
  - { offsetInCU: 0x471E6, offset: 0x471E6, size: 0x8, addend: 0x0, symName: __ZNSt3__116allocator_traitsINS_9allocatorINS_8functionIFNS_10unique_ptrI7ToppingNS_14default_deleteIS4_EEEEvEEEEEE7destroyB8ue170006IS9_vEEvRSA_PT_, symObjAddr: 0x17BA0, symBinAddr: 0x10001AA80, symSize: 0x2C }
  - { offsetInCU: 0x47223, offset: 0x47223, size: 0x8, addend: 0x0, symName: __ZNSt3__116reverse_iteratorINS0_IPNS_8functionIFNS_10unique_ptrI7ToppingNS_14default_deleteIS3_EEEEvEEEEEEppB8ue170006Ev, symObjAddr: 0x17BF0, symBinAddr: 0x10001AAD0, symSize: 0x30 }
  - { offsetInCU: 0x47249, offset: 0x47249, size: 0x8, addend: 0x0, symName: __ZNKSt3__116reverse_iteratorINS0_IPNS_8functionIFNS_10unique_ptrI7ToppingNS_14default_deleteIS3_EEEEvEEEEEE4baseB8ue170006Ev, symObjAddr: 0x17C20, symBinAddr: 0x10001AB00, symSize: 0x24 }
  - { offsetInCU: 0x4726F, offset: 0x4726F, size: 0x8, addend: 0x0, symName: __ZNSt3__19allocatorINS_8functionIFNS_10unique_ptrI7ToppingNS_14default_deleteIS3_EEEEvEEEE7destroyB8ue170006EPS8_, symObjAddr: 0x17C44, symBinAddr: 0x10001AB24, symSize: 0x28 }
  - { offsetInCU: 0x472A9, offset: 0x472A9, size: 0x8, addend: 0x0, symName: __ZNSt3__119__to_address_helperINS_16reverse_iteratorINS1_IPNS_8functionIFNS_10unique_ptrI7ToppingNS_14default_deleteIS4_EEEEvEEEEEEEvE6__callB8ue170006ERKSC_, symObjAddr: 0x17C6C, symBinAddr: 0x10001AB4C, symSize: 0x38 }
  - { offsetInCU: 0x472CC, offset: 0x472CC, size: 0x8, addend: 0x0, symName: __ZNKSt3__116reverse_iteratorINS0_IPNS_8functionIFNS_10unique_ptrI7ToppingNS_14default_deleteIS3_EEEEvEEEEEEptB8ue170006Ev, symObjAddr: 0x17CA4, symBinAddr: 0x10001AB84, symSize: 0x24 }
  - { offsetInCU: 0x472F2, offset: 0x472F2, size: 0x8, addend: 0x0, symName: __ZNKSt3__116reverse_iteratorINS0_IPNS_8functionIFNS_10unique_ptrI7ToppingNS_14default_deleteIS3_EEEEvEEEEEEdeB8ue170006Ev, symObjAddr: 0x17CC8, symBinAddr: 0x10001ABA8, symSize: 0x34 }
  - { offsetInCU: 0x47326, offset: 0x47326, size: 0x8, addend: 0x0, symName: __ZNSt3__116reverse_iteratorIPNS_8functionIFNS_10unique_ptrI7ToppingNS_14default_deleteIS3_EEEEvEEEEmmB8ue170006Ev, symObjAddr: 0x17CFC, symBinAddr: 0x10001ABDC, symSize: 0x20 }
  - { offsetInCU: 0x4734C, offset: 0x4734C, size: 0x8, addend: 0x0, symName: __ZNSt3__116reverse_iteratorINS0_IPNS_8functionIFNS_10unique_ptrI7ToppingNS_14default_deleteIS3_EEEEvEEEEEEC2B8ue170006ESA_, symObjAddr: 0x17D1C, symBinAddr: 0x10001ABFC, symSize: 0x2C }
  - { offsetInCU: 0x47384, offset: 0x47384, size: 0x8, addend: 0x0, symName: __ZNSt3__116reverse_iteratorIPNS_8functionIFNS_10unique_ptrI7ToppingNS_14default_deleteIS3_EEEEvEEEEC2B8ue170006ES9_, symObjAddr: 0x17D48, symBinAddr: 0x10001AC28, symSize: 0x28 }
  - { offsetInCU: 0x473BC, offset: 0x473BC, size: 0x8, addend: 0x0, symName: __ZNSt3__114__split_bufferINS_8functionIFNS_10unique_ptrI7ToppingNS_14default_deleteIS3_EEEEvEEERNS_9allocatorIS8_EEED2Ev, symObjAddr: 0x17D70, symBinAddr: 0x10001AC50, symSize: 0x8C }
  - { offsetInCU: 0x473E8, offset: 0x473E8, size: 0x8, addend: 0x0, symName: __ZNSt3__114__split_bufferINS_8functionIFNS_10unique_ptrI7ToppingNS_14default_deleteIS3_EEEEvEEERNS_9allocatorIS8_EEE5clearB8ue170006Ev, symObjAddr: 0x17DFC, symBinAddr: 0x10001ACDC, symSize: 0x28 }
  - { offsetInCU: 0x4740E, offset: 0x4740E, size: 0x8, addend: 0x0, symName: __ZNSt3__116allocator_traitsINS_9allocatorINS_8functionIFNS_10unique_ptrI7ToppingNS_14default_deleteIS4_EEEEvEEEEEE10deallocateB8ue170006ERSA_PS9_m, symObjAddr: 0x17E24, symBinAddr: 0x10001AD04, symSize: 0x34 }
  - { offsetInCU: 0x47450, offset: 0x47450, size: 0x8, addend: 0x0, symName: __ZNKSt3__114__split_bufferINS_8functionIFNS_10unique_ptrI7ToppingNS_14default_deleteIS3_EEEEvEEERNS_9allocatorIS8_EEE8capacityB8ue170006Ev, symObjAddr: 0x17E58, symBinAddr: 0x10001AD38, symSize: 0x40 }
  - { offsetInCU: 0x47476, offset: 0x47476, size: 0x8, addend: 0x0, symName: __ZNSt3__114__split_bufferINS_8functionIFNS_10unique_ptrI7ToppingNS_14default_deleteIS3_EEEEvEEERNS_9allocatorIS8_EEE17__destruct_at_endB8ue170006EPS8_, symObjAddr: 0x17E98, symBinAddr: 0x10001AD78, symSize: 0x2C }
  - { offsetInCU: 0x474AA, offset: 0x474AA, size: 0x8, addend: 0x0, symName: __ZNSt3__114__split_bufferINS_8functionIFNS_10unique_ptrI7ToppingNS_14default_deleteIS3_EEEEvEEERNS_9allocatorIS8_EEE17__destruct_at_endB8ue170006EPS8_NS_17integral_constantIbLb0EEE, symObjAddr: 0x17EC4, symBinAddr: 0x10001ADA4, symSize: 0x80 }
  - { offsetInCU: 0x474EA, offset: 0x474EA, size: 0x8, addend: 0x0, symName: __ZNSt3__19allocatorINS_8functionIFNS_10unique_ptrI7ToppingNS_14default_deleteIS3_EEEEvEEEE10deallocateB8ue170006EPS8_m, symObjAddr: 0x17F44, symBinAddr: 0x10001AE24, symSize: 0x40 }
  - { offsetInCU: 0x4752C, offset: 0x4752C, size: 0x8, addend: 0x0, symName: __ZNKSt3__114__split_bufferINS_8functionIFNS_10unique_ptrI7ToppingNS_14default_deleteIS3_EEEEvEEERNS_9allocatorIS8_EEE9__end_capB8ue170006Ev, symObjAddr: 0x17F84, symBinAddr: 0x10001AE64, symSize: 0x28 }
  - { offsetInCU: 0x47552, offset: 0x47552, size: 0x8, addend: 0x0, symName: __ZNKSt3__117__compressed_pairIPNS_8functionIFNS_10unique_ptrI7ToppingNS_14default_deleteIS3_EEEEvEEERNS_9allocatorIS8_EEE5firstB8ue170006Ev, symObjAddr: 0x17FAC, symBinAddr: 0x10001AE8C, symSize: 0x24 }
  - { offsetInCU: 0x47578, offset: 0x47578, size: 0x8, addend: 0x0, symName: __ZNSt3__18functionIFNS_10unique_ptrI12FruitToppingNS_14default_deleteIS2_EEEEvEEC2ERKS7_, symObjAddr: 0x17FD0, symBinAddr: 0x10001AEB0, symSize: 0x34 }
  - { offsetInCU: 0x475B3, offset: 0x475B3, size: 0x8, addend: 0x0, symName: __ZNSt3__110__function12__value_funcIFNS_10unique_ptrI12FruitToppingNS_14default_deleteIS3_EEEEvEEC1B8ue170006ERKS8_, symObjAddr: 0x18004, symBinAddr: 0x10001AEE4, symSize: 0x34 }
  - { offsetInCU: 0x475EC, offset: 0x475EC, size: 0x8, addend: 0x0, symName: __ZNSt3__110__function12__value_funcIFNS_10unique_ptrI12FruitToppingNS_14default_deleteIS3_EEEEvEEC2B8ue170006ERKS8_, symObjAddr: 0x18038, symBinAddr: 0x10001AF18, symSize: 0xC0 }
  - { offsetInCU: 0x47625, offset: 0x47625, size: 0x8, addend: 0x0, symName: __ZNSt3__18functionIFNS_10unique_ptrI7ToppingNS_14default_deleteIS2_EEEEvEEC2IZNK11ToppingList16getRandomToppingEvEUlvE_vEET_, symObjAddr: 0x180F8, symBinAddr: 0x10001AFD8, symSize: 0x34 }
  - { offsetInCU: 0x4766B, offset: 0x4766B, size: 0x8, addend: 0x0, symName: __ZNSt3__110__function12__value_funcIFNS_10unique_ptrI7ToppingNS_14default_deleteIS3_EEEEvEEC1B8ue170006IZNK11ToppingList16getRandomToppingEvEUlvE_vEEOT_, symObjAddr: 0x1812C, symBinAddr: 0x10001B00C, symSize: 0x50 }
  - { offsetInCU: 0x476AE, offset: 0x476AE, size: 0x8, addend: 0x0, symName: __ZNSt3__19allocatorIZNK11ToppingList16getRandomToppingEvEUlvE_EC1B8ue170006Ev, symObjAddr: 0x1817C, symBinAddr: 0x10001B05C, symSize: 0x2C }
  - { offsetInCU: 0x476D8, offset: 0x476D8, size: 0x8, addend: 0x0, symName: __ZNSt3__110__function12__value_funcIFNS_10unique_ptrI7ToppingNS_14default_deleteIS3_EEEEvEEC1B8ue170006IZNK11ToppingList16getRandomToppingEvEUlvE_NS_9allocatorISB_EEEEOT_RKT0_, symObjAddr: 0x181A8, symBinAddr: 0x10001B088, symSize: 0x3C }
  - { offsetInCU: 0x47732, offset: 0x47732, size: 0x8, addend: 0x0, symName: __ZNSt3__19allocatorIZNK11ToppingList16getRandomToppingEvEUlvE_EC2B8ue170006Ev, symObjAddr: 0x181E4, symBinAddr: 0x10001B0C4, symSize: 0x2C }
  - { offsetInCU: 0x4775C, offset: 0x4775C, size: 0x8, addend: 0x0, symName: __ZNSt3__116__non_trivial_ifILb1ENS_9allocatorIZNK11ToppingList16getRandomToppingEvEUlvE_EEEC2B8ue170006Ev, symObjAddr: 0x18210, symBinAddr: 0x10001B0F0, symSize: 0x14 }
  - { offsetInCU: 0x47786, offset: 0x47786, size: 0x8, addend: 0x0, symName: __ZNSt3__110__function12__value_funcIFNS_10unique_ptrI7ToppingNS_14default_deleteIS3_EEEEvEEC2B8ue170006IZNK11ToppingList16getRandomToppingEvEUlvE_NS_9allocatorISB_EEEEOT_RKT0_, symObjAddr: 0x18224, symBinAddr: 0x10001B104, symSize: 0xF4 }
  - { offsetInCU: 0x47840, offset: 0x47840, size: 0x8, addend: 0x0, symName: __ZNSt3__19allocatorINS_10__function6__funcIZNK11ToppingList16getRandomToppingEvEUlvE_NS0_IS4_EEFNS_10unique_ptrI7ToppingNS_14default_deleteIS7_EEEEvEEEEC1B8ue170006IS4_EERKNS0_IT_EE, symObjAddr: 0x18330, symBinAddr: 0x10001B210, symSize: 0x34 }
  - { offsetInCU: 0x4787D, offset: 0x4787D, size: 0x8, addend: 0x0, symName: __ZNSt3__19allocatorINS_10__function6__funcIZNK11ToppingList16getRandomToppingEvEUlvE_NS0_IS4_EEFNS_10unique_ptrI7ToppingNS_14default_deleteIS7_EEEEvEEEE8allocateB8ue170006Em, symObjAddr: 0x18364, symBinAddr: 0x10001B244, symSize: 0x5C }
  - { offsetInCU: 0x478C3, offset: 0x478C3, size: 0x8, addend: 0x0, symName: __ZNSt3__122__allocator_destructorINS_9allocatorINS_10__function6__funcIZNK11ToppingList16getRandomToppingEvEUlvE_NS1_IS5_EEFNS_10unique_ptrI7ToppingNS_14default_deleteIS8_EEEEvEEEEEEC1B8ue170006ERSE_m, symObjAddr: 0x183C0, symBinAddr: 0x10001B2A0, symSize: 0x3C }
  - { offsetInCU: 0x479B1, offset: 0x479B1, size: 0x8, addend: 0x0, symName: __ZNSt3__110unique_ptrINS_10__function6__baseIFNS0_I7ToppingNS_14default_deleteIS3_EEEEvEEENS_22__allocator_destructorINS_9allocatorINS1_6__funcIZNK11ToppingList16getRandomToppingEvEUlvE_NSA_ISD_EES7_EEEEEEEC1B8ue170006ILb1EvEEPSF_NS_16__dependent_typeINS_27__unique_ptr_deleter_sfinaeISH_EEXT_EE20__good_rval_ref_typeE, symObjAddr: 0x183FC, symBinAddr: 0x10001B2DC, symSize: 0x3C }
  - { offsetInCU: 0x47A02, offset: 0x47A02, size: 0x8, addend: 0x0, symName: __ZNKSt3__110unique_ptrINS_10__function6__baseIFNS0_I7ToppingNS_14default_deleteIS3_EEEEvEEENS_22__allocator_destructorINS_9allocatorINS1_6__funcIZNK11ToppingList16getRandomToppingEvEUlvE_NSA_ISD_EES7_EEEEEEE3getB8ue170006Ev, symObjAddr: 0x18438, symBinAddr: 0x10001B318, symSize: 0x28 }
  - { offsetInCU: 0x47A28, offset: 0x47A28, size: 0x8, addend: 0x0, symName: __ZNSt3__110__function6__funcIZNK11ToppingList16getRandomToppingEvEUlvE_NS_9allocatorIS3_EEFNS_10unique_ptrI7ToppingNS_14default_deleteIS7_EEEEvEEC1B8ue170006EOS3_OS5_, symObjAddr: 0x18460, symBinAddr: 0x10001B340, symSize: 0x3C }
  - { offsetInCU: 0x47A70, offset: 0x47A70, size: 0x8, addend: 0x0, symName: __ZNSt3__110unique_ptrINS_10__function6__baseIFNS0_I7ToppingNS_14default_deleteIS3_EEEEvEEENS_22__allocator_destructorINS_9allocatorINS1_6__funcIZNK11ToppingList16getRandomToppingEvEUlvE_NSA_ISD_EES7_EEEEEEE7releaseB8ue170006Ev, symObjAddr: 0x1849C, symBinAddr: 0x10001B37C, symSize: 0x44 }
  - { offsetInCU: 0x47AA5, offset: 0x47AA5, size: 0x8, addend: 0x0, symName: __ZNSt3__110unique_ptrINS_10__function6__baseIFNS0_I7ToppingNS_14default_deleteIS3_EEEEvEEENS_22__allocator_destructorINS_9allocatorINS1_6__funcIZNK11ToppingList16getRandomToppingEvEUlvE_NSA_ISD_EES7_EEEEEEED1B8ue170006Ev, symObjAddr: 0x184E0, symBinAddr: 0x10001B3C0, symSize: 0x2C }
  - { offsetInCU: 0x47ACF, offset: 0x47ACF, size: 0x8, addend: 0x0, symName: __ZNSt3__19allocatorINS_10__function6__funcIZNK11ToppingList16getRandomToppingEvEUlvE_NS0_IS4_EEFNS_10unique_ptrI7ToppingNS_14default_deleteIS7_EEEEvEEEEC2B8ue170006IS4_EERKNS0_IT_EE, symObjAddr: 0x1850C, symBinAddr: 0x10001B3EC, symSize: 0x30 }
  - { offsetInCU: 0x47B0C, offset: 0x47B0C, size: 0x8, addend: 0x0, symName: __ZNSt3__116__non_trivial_ifILb1ENS_9allocatorINS_10__function6__funcIZNK11ToppingList16getRandomToppingEvEUlvE_NS1_IS5_EEFNS_10unique_ptrI7ToppingNS_14default_deleteIS8_EEEEvEEEEEEC2B8ue170006Ev, symObjAddr: 0x1853C, symBinAddr: 0x10001B41C, symSize: 0x14 }
  - { offsetInCU: 0x47B42, offset: 0x47B42, size: 0x8, addend: 0x0, symName: __ZNSt3__116allocator_traitsINS_9allocatorINS_10__function6__funcIZNK11ToppingList16getRandomToppingEvEUlvE_NS1_IS5_EEFNS_10unique_ptrI7ToppingNS_14default_deleteIS8_EEEEvEEEEEE8max_sizeB8ue170006ISE_vEEmRKSE_, symObjAddr: 0x18550, symBinAddr: 0x10001B430, symSize: 0x24 }
  - { offsetInCU: 0x47B70, offset: 0x47B70, size: 0x8, addend: 0x0, symName: __ZNKSt3__19allocatorINS_10__function6__funcIZNK11ToppingList16getRandomToppingEvEUlvE_NS0_IS4_EEFNS_10unique_ptrI7ToppingNS_14default_deleteIS7_EEEEvEEEE8max_sizeB8ue170006Ev, symObjAddr: 0x18574, symBinAddr: 0x10001B454, symSize: 0x18 }
  - { offsetInCU: 0x47B96, offset: 0x47B96, size: 0x8, addend: 0x0, symName: __ZNSt3__122__allocator_destructorINS_9allocatorINS_10__function6__funcIZNK11ToppingList16getRandomToppingEvEUlvE_NS1_IS5_EEFNS_10unique_ptrI7ToppingNS_14default_deleteIS8_EEEEvEEEEEEC2B8ue170006ERSE_m, symObjAddr: 0x1858C, symBinAddr: 0x10001B46C, symSize: 0x2C }
  - { offsetInCU: 0x47BDC, offset: 0x47BDC, size: 0x8, addend: 0x0, symName: __ZNSt3__110unique_ptrINS_10__function6__baseIFNS0_I7ToppingNS_14default_deleteIS3_EEEEvEEENS_22__allocator_destructorINS_9allocatorINS1_6__funcIZNK11ToppingList16getRandomToppingEvEUlvE_NSA_ISD_EES7_EEEEEEEC2B8ue170006ILb1EvEEPSF_NS_16__dependent_typeINS_27__unique_ptr_deleter_sfinaeISH_EEXT_EE20__good_rval_ref_typeE, symObjAddr: 0x185B8, symBinAddr: 0x10001B498, symSize: 0x48 }
  - { offsetInCU: 0x47C2D, offset: 0x47C2D, size: 0x8, addend: 0x0, symName: __ZNSt3__117__compressed_pairIPNS_10__function6__funcIZNK11ToppingList16getRandomToppingEvEUlvE_NS_9allocatorIS4_EEFNS_10unique_ptrI7ToppingNS_14default_deleteIS8_EEEEvEEENS_22__allocator_destructorINS5_ISD_EEEEEC1B8ue170006IRSE_SH_EEOT_OT0_, symObjAddr: 0x18600, symBinAddr: 0x10001B4E0, symSize: 0x3C }
  - { offsetInCU: 0x47C85, offset: 0x47C85, size: 0x8, addend: 0x0, symName: __ZNSt3__117__compressed_pairIPNS_10__function6__funcIZNK11ToppingList16getRandomToppingEvEUlvE_NS_9allocatorIS4_EEFNS_10unique_ptrI7ToppingNS_14default_deleteIS8_EEEEvEEENS_22__allocator_destructorINS5_ISD_EEEEEC2B8ue170006IRSE_SH_EEOT_OT0_, symObjAddr: 0x1863C, symBinAddr: 0x10001B51C, symSize: 0x48 }
  - { offsetInCU: 0x47CDD, offset: 0x47CDD, size: 0x8, addend: 0x0, symName: __ZNSt3__122__compressed_pair_elemIPNS_10__function6__funcIZNK11ToppingList16getRandomToppingEvEUlvE_NS_9allocatorIS4_EEFNS_10unique_ptrI7ToppingNS_14default_deleteIS8_EEEEvEEELi0ELb0EEC2B8ue170006IRSE_vEEOT_, symObjAddr: 0x18684, symBinAddr: 0x10001B564, symSize: 0x24 }
  - { offsetInCU: 0x47D1F, offset: 0x47D1F, size: 0x8, addend: 0x0, symName: __ZNSt3__122__compressed_pair_elemINS_22__allocator_destructorINS_9allocatorINS_10__function6__funcIZNK11ToppingList16getRandomToppingEvEUlvE_NS2_IS6_EEFNS_10unique_ptrI7ToppingNS_14default_deleteIS9_EEEEvEEEEEEELi1ELb0EEC2B8ue170006ISG_vEEOT_, symObjAddr: 0x186A8, symBinAddr: 0x10001B588, symSize: 0x24 }
  - { offsetInCU: 0x47D61, offset: 0x47D61, size: 0x8, addend: 0x0, symName: __ZNKSt3__117__compressed_pairIPNS_10__function6__funcIZNK11ToppingList16getRandomToppingEvEUlvE_NS_9allocatorIS4_EEFNS_10unique_ptrI7ToppingNS_14default_deleteIS8_EEEEvEEENS_22__allocator_destructorINS5_ISD_EEEEE5firstB8ue170006Ev, symObjAddr: 0x186CC, symBinAddr: 0x10001B5AC, symSize: 0x24 }
  - { offsetInCU: 0x47D87, offset: 0x47D87, size: 0x8, addend: 0x0, symName: __ZNKSt3__122__compressed_pair_elemIPNS_10__function6__funcIZNK11ToppingList16getRandomToppingEvEUlvE_NS_9allocatorIS4_EEFNS_10unique_ptrI7ToppingNS_14default_deleteIS8_EEEEvEEELi0ELb0EE5__getB8ue170006Ev, symObjAddr: 0x186F0, symBinAddr: 0x10001B5D0, symSize: 0x14 }
  - { offsetInCU: 0x47DAD, offset: 0x47DAD, size: 0x8, addend: 0x0, symName: __ZNSt3__110__function6__funcIZNK11ToppingList16getRandomToppingEvEUlvE_NS_9allocatorIS3_EEFNS_10unique_ptrI7ToppingNS_14default_deleteIS7_EEEEvEEC2B8ue170006EOS3_OS5_, symObjAddr: 0x18704, symBinAddr: 0x10001B5E4, symSize: 0x88 }
  - { offsetInCU: 0x47DF5, offset: 0x47DF5, size: 0x8, addend: 0x0, symName: __ZNSt3__110__function6__baseIFNS_10unique_ptrI7ToppingNS_14default_deleteIS3_EEEEvEEC2B8ue170006Ev, symObjAddr: 0x1878C, symBinAddr: 0x10001B66C, symSize: 0x24 }
  - { offsetInCU: 0x47E1F, offset: 0x47E1F, size: 0x8, addend: 0x0, symName: __ZNSt3__110__function12__alloc_funcIZNK11ToppingList16getRandomToppingEvEUlvE_NS_9allocatorIS3_EEFNS_10unique_ptrI7ToppingNS_14default_deleteIS7_EEEEvEEC1B8ue170006EOS3_OS5_, symObjAddr: 0x187B0, symBinAddr: 0x10001B690, symSize: 0x3C }
  - { offsetInCU: 0x47E65, offset: 0x47E65, size: 0x8, addend: 0x0, symName: __ZNSt3__110__function6__baseIFNS_10unique_ptrI7ToppingNS_14default_deleteIS3_EEEEvEED2Ev, symObjAddr: 0x187EC, symBinAddr: 0x10001B6CC, symSize: 0x14 }
  - { offsetInCU: 0x47E8F, offset: 0x47E8F, size: 0x8, addend: 0x0, symName: __ZNSt3__110__function6__funcIZNK11ToppingList16getRandomToppingEvEUlvE_NS_9allocatorIS3_EEFNS_10unique_ptrI7ToppingNS_14default_deleteIS7_EEEEvEED1Ev, symObjAddr: 0x18800, symBinAddr: 0x10001B6E0, symSize: 0x2C }
  - { offsetInCU: 0x47EBC, offset: 0x47EBC, size: 0x8, addend: 0x0, symName: __ZNSt3__110__function6__funcIZNK11ToppingList16getRandomToppingEvEUlvE_NS_9allocatorIS3_EEFNS_10unique_ptrI7ToppingNS_14default_deleteIS7_EEEEvEED0Ev, symObjAddr: 0x1882C, symBinAddr: 0x10001B70C, symSize: 0x30 }
  - { offsetInCU: 0x47EE9, offset: 0x47EE9, size: 0x8, addend: 0x0, symName: __ZNKSt3__110__function6__funcIZNK11ToppingList16getRandomToppingEvEUlvE_NS_9allocatorIS3_EEFNS_10unique_ptrI7ToppingNS_14default_deleteIS7_EEEEvEE7__cloneEv, symObjAddr: 0x1885C, symBinAddr: 0x10001B73C, symSize: 0xFC }
  - { offsetInCU: 0x47F3B, offset: 0x47F3B, size: 0x8, addend: 0x0, symName: __ZNKSt3__110__function6__funcIZNK11ToppingList16getRandomToppingEvEUlvE_NS_9allocatorIS3_EEFNS_10unique_ptrI7ToppingNS_14default_deleteIS7_EEEEvEE7__cloneEPNS0_6__baseISB_EE, symObjAddr: 0x18958, symBinAddr: 0x10001B838, symSize: 0x58 }
  - { offsetInCU: 0x47F72, offset: 0x47F72, size: 0x8, addend: 0x0, symName: __ZNSt3__110__function6__funcIZNK11ToppingList16getRandomToppingEvEUlvE_NS_9allocatorIS3_EEFNS_10unique_ptrI7ToppingNS_14default_deleteIS7_EEEEvEE7destroyEv, symObjAddr: 0x189B0, symBinAddr: 0x10001B890, symSize: 0x28 }
  - { offsetInCU: 0x47F9A, offset: 0x47F9A, size: 0x8, addend: 0x0, symName: __ZNSt3__110__function6__funcIZNK11ToppingList16getRandomToppingEvEUlvE_NS_9allocatorIS3_EEFNS_10unique_ptrI7ToppingNS_14default_deleteIS7_EEEEvEE18destroy_deallocateEv, symObjAddr: 0x189D8, symBinAddr: 0x10001B8B8, symSize: 0x58 }
  - { offsetInCU: 0x47FDD, offset: 0x47FDD, size: 0x8, addend: 0x0, symName: __ZNSt3__110__function6__funcIZNK11ToppingList16getRandomToppingEvEUlvE_NS_9allocatorIS3_EEFNS_10unique_ptrI7ToppingNS_14default_deleteIS7_EEEEvEEclEv, symObjAddr: 0x18A30, symBinAddr: 0x10001B910, symSize: 0x30 }
  - { offsetInCU: 0x48005, offset: 0x48005, size: 0x8, addend: 0x0, symName: __ZNKSt3__110__function6__funcIZNK11ToppingList16getRandomToppingEvEUlvE_NS_9allocatorIS3_EEFNS_10unique_ptrI7ToppingNS_14default_deleteIS7_EEEEvEE6targetERKSt9type_info, symObjAddr: 0x18A60, symBinAddr: 0x10001B940, symSize: 0x60 }
  - { offsetInCU: 0x4803C, offset: 0x4803C, size: 0x8, addend: 0x0, symName: __ZNKSt3__110__function6__funcIZNK11ToppingList16getRandomToppingEvEUlvE_NS_9allocatorIS3_EEFNS_10unique_ptrI7ToppingNS_14default_deleteIS7_EEEEvEE11target_typeEv, symObjAddr: 0x18AC0, symBinAddr: 0x10001B9A0, symSize: 0x18 }
  - { offsetInCU: 0x48064, offset: 0x48064, size: 0x8, addend: 0x0, symName: __ZNSt3__110__function6__baseIFNS_10unique_ptrI7ToppingNS_14default_deleteIS3_EEEEvEED1Ev, symObjAddr: 0x18AD8, symBinAddr: 0x10001B9B8, symSize: 0x14 }
  - { offsetInCU: 0x4808E, offset: 0x4808E, size: 0x8, addend: 0x0, symName: __ZNSt3__110__function6__baseIFNS_10unique_ptrI7ToppingNS_14default_deleteIS3_EEEEvEED0Ev, symObjAddr: 0x18AEC, symBinAddr: 0x10001B9CC, symSize: 0xC }
  - { offsetInCU: 0x480B8, offset: 0x480B8, size: 0x8, addend: 0x0, symName: __ZNSt3__110__function12__alloc_funcIZNK11ToppingList16getRandomToppingEvEUlvE_NS_9allocatorIS3_EEFNS_10unique_ptrI7ToppingNS_14default_deleteIS7_EEEEvEEC2B8ue170006EOS3_OS5_, symObjAddr: 0x18AF8, symBinAddr: 0x10001B9D8, symSize: 0x5C }
  - { offsetInCU: 0x480FE, offset: 0x480FE, size: 0x8, addend: 0x0, symName: __ZNSt3__117__compressed_pairIZNK11ToppingList16getRandomToppingEvEUlvE_NS_9allocatorIS2_EEEC1B8ue170006IJOS2_EJOS4_EEENS_21piecewise_construct_tENS_5tupleIJDpT_EEENSA_IJDpT0_EEE, symObjAddr: 0x18BAC, symBinAddr: 0x10001BA8C, symSize: 0x3C }
  - { offsetInCU: 0x48168, offset: 0x48168, size: 0x8, addend: 0x0, symName: __ZNSt3__15tupleIJOZNK11ToppingList16getRandomToppingEvEUlvE_EEC1B8ue170006IJS2_ELi0EEEDpOT_, symObjAddr: 0x18BE8, symBinAddr: 0x10001BAC8, symSize: 0x34 }
  - { offsetInCU: 0x481B2, offset: 0x481B2, size: 0x8, addend: 0x0, symName: __ZNSt3__15tupleIJOZNK11ToppingList16getRandomToppingEvEUlvE_EEC2B8ue170006IJS2_ELi0EEEDpOT_, symObjAddr: 0x18C1C, symBinAddr: 0x10001BAFC, symSize: 0x34 }
  - { offsetInCU: 0x481FC, offset: 0x481FC, size: 0x8, addend: 0x0, symName: __ZNSt3__112__tuple_implINS_15__tuple_indicesIJLm0EEEEJOZNK11ToppingList16getRandomToppingEvEUlvE_EEC1B8ue170006IJLm0EEJS5_EJEJEJS4_EEENS1_IJXspT_EEEENS_13__tuple_typesIJDpT0_EEENS1_IJXspT1_EEEENS9_IJDpT2_EEEDpOT3_, symObjAddr: 0x18C50, symBinAddr: 0x10001BB30, symSize: 0x34 }
  - { offsetInCU: 0x48291, offset: 0x48291, size: 0x8, addend: 0x0, symName: __ZNSt3__112__tuple_implINS_15__tuple_indicesIJLm0EEEEJOZNK11ToppingList16getRandomToppingEvEUlvE_EEC2B8ue170006IJLm0EEJS5_EJEJEJS4_EEENS1_IJXspT_EEEENS_13__tuple_typesIJDpT0_EEENS1_IJXspT1_EEEENS9_IJDpT2_EEEDpOT3_, symObjAddr: 0x18C84, symBinAddr: 0x10001BB64, symSize: 0x34 }
  - { offsetInCU: 0x48326, offset: 0x48326, size: 0x8, addend: 0x0, symName: __ZNSt3__112__tuple_leafILm0EOZNK11ToppingList16getRandomToppingEvEUlvE_Lb0EEC2B8ue170006IS2_vEEOT_, symObjAddr: 0x18CB8, symBinAddr: 0x10001BB98, symSize: 0x20 }
  - { offsetInCU: 0x48369, offset: 0x48369, size: 0x8, addend: 0x0, symName: __ZNSt3__15tupleIJONS_9allocatorIZNK11ToppingList16getRandomToppingEvEUlvE_EEEEC1B8ue170006IJS4_ELi0EEEDpOT_, symObjAddr: 0x18CD8, symBinAddr: 0x10001BBB8, symSize: 0x34 }
  - { offsetInCU: 0x483B3, offset: 0x483B3, size: 0x8, addend: 0x0, symName: __ZNSt3__15tupleIJONS_9allocatorIZNK11ToppingList16getRandomToppingEvEUlvE_EEEEC2B8ue170006IJS4_ELi0EEEDpOT_, symObjAddr: 0x18D0C, symBinAddr: 0x10001BBEC, symSize: 0x34 }
  - { offsetInCU: 0x483FD, offset: 0x483FD, size: 0x8, addend: 0x0, symName: __ZNSt3__112__tuple_implINS_15__tuple_indicesIJLm0EEEEJONS_9allocatorIZNK11ToppingList16getRandomToppingEvEUlvE_EEEEC1B8ue170006IJLm0EEJS7_EJEJEJS6_EEENS1_IJXspT_EEEENS_13__tuple_typesIJDpT0_EEENS1_IJXspT1_EEEENSB_IJDpT2_EEEDpOT3_, symObjAddr: 0x18D40, symBinAddr: 0x10001BC20, symSize: 0x34 }
  - { offsetInCU: 0x48492, offset: 0x48492, size: 0x8, addend: 0x0, symName: __ZNSt3__112__tuple_implINS_15__tuple_indicesIJLm0EEEEJONS_9allocatorIZNK11ToppingList16getRandomToppingEvEUlvE_EEEEC2B8ue170006IJLm0EEJS7_EJEJEJS6_EEENS1_IJXspT_EEEENS_13__tuple_typesIJDpT0_EEENS1_IJXspT1_EEEENSB_IJDpT2_EEEDpOT3_, symObjAddr: 0x18D74, symBinAddr: 0x10001BC54, symSize: 0x34 }
  - { offsetInCU: 0x48527, offset: 0x48527, size: 0x8, addend: 0x0, symName: __ZNSt3__112__tuple_leafILm0EONS_9allocatorIZNK11ToppingList16getRandomToppingEvEUlvE_EELb0EEC2B8ue170006IS4_vEEOT_, symObjAddr: 0x18DA8, symBinAddr: 0x10001BC88, symSize: 0x20 }
  - { offsetInCU: 0x4856A, offset: 0x4856A, size: 0x8, addend: 0x0, symName: __ZNSt3__117__compressed_pairIZNK11ToppingList16getRandomToppingEvEUlvE_NS_9allocatorIS2_EEEC2B8ue170006IJOS2_EJOS4_EEENS_21piecewise_construct_tENS_5tupleIJDpT_EEENSA_IJDpT0_EEE, symObjAddr: 0x18DC8, symBinAddr: 0x10001BCA8, symSize: 0x7C }
  - { offsetInCU: 0x485D4, offset: 0x485D4, size: 0x8, addend: 0x0, symName: __ZNSt3__122__compressed_pair_elemIZNK11ToppingList16getRandomToppingEvEUlvE_Li0ELb0EEC2B8ue170006IJOS2_EJLm0EEEENS_21piecewise_construct_tENS_5tupleIJDpT_EEENS_15__tuple_indicesIJXspT0_EEEE, symObjAddr: 0x18E44, symBinAddr: 0x10001BD24, symSize: 0x44 }
  - { offsetInCU: 0x48637, offset: 0x48637, size: 0x8, addend: 0x0, symName: __ZNSt3__122__compressed_pair_elemINS_9allocatorIZNK11ToppingList16getRandomToppingEvEUlvE_EELi1ELb1EEC2B8ue170006IJOS4_EJLm0EEEENS_21piecewise_construct_tENS_5tupleIJDpT_EEENS_15__tuple_indicesIJXspT0_EEEE, symObjAddr: 0x18E88, symBinAddr: 0x10001BD68, symSize: 0x38 }
  - { offsetInCU: 0x4869A, offset: 0x4869A, size: 0x8, addend: 0x0, symName: __ZNSt3__122__compressed_pair_elemIZNK11ToppingList16getRandomToppingEvEUlvE_Li0ELb0EED2Ev, symObjAddr: 0x18EC0, symBinAddr: 0x10001BDA0, symSize: 0x2C }
  - { offsetInCU: 0x486C6, offset: 0x486C6, size: 0x8, addend: 0x0, symName: __ZZNK11ToppingList16getRandomToppingEvENUlvE_C1EOS0_, symObjAddr: 0x18F10, symBinAddr: 0x10001BDF0, symSize: 0x34 }
  - { offsetInCU: 0x486FB, offset: 0x486FB, size: 0x8, addend: 0x0, symName: __ZNSt3__112__tuple_leafILm0EOZNK11ToppingList16getRandomToppingEvEUlvE_Lb0EE3getB8ue170006Ev, symObjAddr: 0x18F44, symBinAddr: 0x10001BE24, symSize: 0x18 }
  - { offsetInCU: 0x48721, offset: 0x48721, size: 0x8, addend: 0x0, symName: __ZZNK11ToppingList16getRandomToppingEvENUlvE_C2EOS0_, symObjAddr: 0x18F5C, symBinAddr: 0x10001BE3C, symSize: 0x34 }
  - { offsetInCU: 0x48756, offset: 0x48756, size: 0x8, addend: 0x0, symName: __ZNSt3__112__tuple_leafILm0EONS_9allocatorIZNK11ToppingList16getRandomToppingEvEUlvE_EELb0EE3getB8ue170006Ev, symObjAddr: 0x18FB4, symBinAddr: 0x10001BE94, symSize: 0x18 }
  - { offsetInCU: 0x4877C, offset: 0x4877C, size: 0x8, addend: 0x0, symName: __ZNSt3__110__function6__funcIZNK11ToppingList16getRandomToppingEvEUlvE_NS_9allocatorIS3_EEFNS_10unique_ptrI7ToppingNS_14default_deleteIS7_EEEEvEED2Ev, symObjAddr: 0x18FCC, symBinAddr: 0x10001BEAC, symSize: 0x48 }
  - { offsetInCU: 0x487A9, offset: 0x487A9, size: 0x8, addend: 0x0, symName: __ZNSt3__110__function12__alloc_funcIZNK11ToppingList16getRandomToppingEvEUlvE_NS_9allocatorIS3_EEFNS_10unique_ptrI7ToppingNS_14default_deleteIS7_EEEEvEED1Ev, symObjAddr: 0x19014, symBinAddr: 0x10001BEF4, symSize: 0x2C }
  - { offsetInCU: 0x487D5, offset: 0x487D5, size: 0x8, addend: 0x0, symName: __ZNSt3__110__function12__alloc_funcIZNK11ToppingList16getRandomToppingEvEUlvE_NS_9allocatorIS3_EEFNS_10unique_ptrI7ToppingNS_14default_deleteIS7_EEEEvEED2Ev, symObjAddr: 0x19040, symBinAddr: 0x10001BF20, symSize: 0x2C }
  - { offsetInCU: 0x48801, offset: 0x48801, size: 0x8, addend: 0x0, symName: __ZNSt3__117__compressed_pairIZNK11ToppingList16getRandomToppingEvEUlvE_NS_9allocatorIS2_EEED1Ev, symObjAddr: 0x1906C, symBinAddr: 0x10001BF4C, symSize: 0x2C }
  - { offsetInCU: 0x4882D, offset: 0x4882D, size: 0x8, addend: 0x0, symName: __ZNSt3__117__compressed_pairIZNK11ToppingList16getRandomToppingEvEUlvE_NS_9allocatorIS2_EEED2Ev, symObjAddr: 0x19098, symBinAddr: 0x10001BF78, symSize: 0x2C }
  - { offsetInCU: 0x48859, offset: 0x48859, size: 0x8, addend: 0x0, symName: __ZNKSt3__110__function12__alloc_funcIZNK11ToppingList16getRandomToppingEvEUlvE_NS_9allocatorIS3_EEFNS_10unique_ptrI7ToppingNS_14default_deleteIS7_EEEEvEE15__get_allocatorB8ue170006Ev, symObjAddr: 0x190C4, symBinAddr: 0x10001BFA4, symSize: 0x24 }
  - { offsetInCU: 0x488AF, offset: 0x488AF, size: 0x8, addend: 0x0, symName: __ZNSt3__110unique_ptrINS_10__function6__funcIZNK11ToppingList16getRandomToppingEvEUlvE_NS_9allocatorIS4_EEFNS0_I7ToppingNS_14default_deleteIS7_EEEEvEEENS_22__allocator_destructorINS5_ISC_EEEEEC1B8ue170006ILb1EvEEPSC_NS_16__dependent_typeINS_27__unique_ptr_deleter_sfinaeISF_EEXT_EE20__good_rval_ref_typeE, symObjAddr: 0x190E8, symBinAddr: 0x10001BFC8, symSize: 0x3C }
  - { offsetInCU: 0x48900, offset: 0x48900, size: 0x8, addend: 0x0, symName: __ZNKSt3__110unique_ptrINS_10__function6__funcIZNK11ToppingList16getRandomToppingEvEUlvE_NS_9allocatorIS4_EEFNS0_I7ToppingNS_14default_deleteIS7_EEEEvEEENS_22__allocator_destructorINS5_ISC_EEEEE3getB8ue170006Ev, symObjAddr: 0x19124, symBinAddr: 0x10001C004, symSize: 0x28 }
  - { offsetInCU: 0x48926, offset: 0x48926, size: 0x8, addend: 0x0, symName: __ZNKSt3__110__function12__alloc_funcIZNK11ToppingList16getRandomToppingEvEUlvE_NS_9allocatorIS3_EEFNS_10unique_ptrI7ToppingNS_14default_deleteIS7_EEEEvEE8__targetB8ue170006Ev, symObjAddr: 0x1914C, symBinAddr: 0x10001C02C, symSize: 0x24 }
  - { offsetInCU: 0x48952, offset: 0x48952, size: 0x8, addend: 0x0, symName: __ZNSt3__19allocatorIZNK11ToppingList16getRandomToppingEvEUlvE_EC1B8ue170006INS_10__function6__funcIS2_S3_FNS_10unique_ptrI7ToppingNS_14default_deleteIS8_EEEEvEEEEERKNS0_IT_EE, symObjAddr: 0x19170, symBinAddr: 0x10001C050, symSize: 0x34 }
  - { offsetInCU: 0x4898F, offset: 0x4898F, size: 0x8, addend: 0x0, symName: __ZNSt3__110__function6__funcIZNK11ToppingList16getRandomToppingEvEUlvE_NS_9allocatorIS3_EEFNS_10unique_ptrI7ToppingNS_14default_deleteIS7_EEEEvEEC1B8ue170006ERKS3_OS5_, symObjAddr: 0x191A4, symBinAddr: 0x10001C084, symSize: 0x3C }
  - { offsetInCU: 0x489D7, offset: 0x489D7, size: 0x8, addend: 0x0, symName: __ZNSt3__110unique_ptrINS_10__function6__funcIZNK11ToppingList16getRandomToppingEvEUlvE_NS_9allocatorIS4_EEFNS0_I7ToppingNS_14default_deleteIS7_EEEEvEEENS_22__allocator_destructorINS5_ISC_EEEEE7releaseB8ue170006Ev, symObjAddr: 0x191E0, symBinAddr: 0x10001C0C0, symSize: 0x44 }
  - { offsetInCU: 0x48A0C, offset: 0x48A0C, size: 0x8, addend: 0x0, symName: __ZNSt3__110unique_ptrINS_10__function6__funcIZNK11ToppingList16getRandomToppingEvEUlvE_NS_9allocatorIS4_EEFNS0_I7ToppingNS_14default_deleteIS7_EEEEvEEENS_22__allocator_destructorINS5_ISC_EEEEED1B8ue170006Ev, symObjAddr: 0x19224, symBinAddr: 0x10001C104, symSize: 0x2C }
  - { offsetInCU: 0x48A36, offset: 0x48A36, size: 0x8, addend: 0x0, symName: __ZNKSt3__117__compressed_pairIZNK11ToppingList16getRandomToppingEvEUlvE_NS_9allocatorIS2_EEE6secondB8ue170006Ev, symObjAddr: 0x19250, symBinAddr: 0x10001C130, symSize: 0x24 }
  - { offsetInCU: 0x48A5C, offset: 0x48A5C, size: 0x8, addend: 0x0, symName: __ZNKSt3__122__compressed_pair_elemINS_9allocatorIZNK11ToppingList16getRandomToppingEvEUlvE_EELi1ELb1EE5__getB8ue170006Ev, symObjAddr: 0x19274, symBinAddr: 0x10001C154, symSize: 0x14 }
  - { offsetInCU: 0x48A82, offset: 0x48A82, size: 0x8, addend: 0x0, symName: __ZNSt3__110unique_ptrINS_10__function6__funcIZNK11ToppingList16getRandomToppingEvEUlvE_NS_9allocatorIS4_EEFNS0_I7ToppingNS_14default_deleteIS7_EEEEvEEENS_22__allocator_destructorINS5_ISC_EEEEEC2B8ue170006ILb1EvEEPSC_NS_16__dependent_typeINS_27__unique_ptr_deleter_sfinaeISF_EEXT_EE20__good_rval_ref_typeE, symObjAddr: 0x19288, symBinAddr: 0x10001C168, symSize: 0x48 }
  - { offsetInCU: 0x48AD3, offset: 0x48AD3, size: 0x8, addend: 0x0, symName: __ZNKSt3__117__compressed_pairIZNK11ToppingList16getRandomToppingEvEUlvE_NS_9allocatorIS2_EEE5firstB8ue170006Ev, symObjAddr: 0x192D0, symBinAddr: 0x10001C1B0, symSize: 0x24 }
  - { offsetInCU: 0x48AF9, offset: 0x48AF9, size: 0x8, addend: 0x0, symName: __ZNKSt3__122__compressed_pair_elemIZNK11ToppingList16getRandomToppingEvEUlvE_Li0ELb0EE5__getB8ue170006Ev, symObjAddr: 0x192F4, symBinAddr: 0x10001C1D4, symSize: 0x14 }
  - { offsetInCU: 0x48B1F, offset: 0x48B1F, size: 0x8, addend: 0x0, symName: __ZNSt3__19allocatorIZNK11ToppingList16getRandomToppingEvEUlvE_EC2B8ue170006INS_10__function6__funcIS2_S3_FNS_10unique_ptrI7ToppingNS_14default_deleteIS8_EEEEvEEEEERKNS0_IT_EE, symObjAddr: 0x19308, symBinAddr: 0x10001C1E8, symSize: 0x30 }
  - { offsetInCU: 0x48B5C, offset: 0x48B5C, size: 0x8, addend: 0x0, symName: __ZNSt3__110__function6__funcIZNK11ToppingList16getRandomToppingEvEUlvE_NS_9allocatorIS3_EEFNS_10unique_ptrI7ToppingNS_14default_deleteIS7_EEEEvEEC2B8ue170006ERKS3_OS5_, symObjAddr: 0x19338, symBinAddr: 0x10001C218, symSize: 0x88 }
  - { offsetInCU: 0x48BA4, offset: 0x48BA4, size: 0x8, addend: 0x0, symName: __ZNSt3__110__function12__alloc_funcIZNK11ToppingList16getRandomToppingEvEUlvE_NS_9allocatorIS3_EEFNS_10unique_ptrI7ToppingNS_14default_deleteIS7_EEEEvEEC1B8ue170006ERKS3_OS5_, symObjAddr: 0x193C0, symBinAddr: 0x10001C2A0, symSize: 0x3C }
  - { offsetInCU: 0x48BEA, offset: 0x48BEA, size: 0x8, addend: 0x0, symName: __ZNSt3__110__function12__alloc_funcIZNK11ToppingList16getRandomToppingEvEUlvE_NS_9allocatorIS3_EEFNS_10unique_ptrI7ToppingNS_14default_deleteIS7_EEEEvEEC2B8ue170006ERKS3_OS5_, symObjAddr: 0x193FC, symBinAddr: 0x10001C2DC, symSize: 0x5C }
  - { offsetInCU: 0x48C30, offset: 0x48C30, size: 0x8, addend: 0x0, symName: __ZNSt3__117__compressed_pairIZNK11ToppingList16getRandomToppingEvEUlvE_NS_9allocatorIS2_EEEC1B8ue170006IJRKS2_EJOS4_EEENS_21piecewise_construct_tENS_5tupleIJDpT_EEENSB_IJDpT0_EEE, symObjAddr: 0x19484, symBinAddr: 0x10001C364, symSize: 0x3C }
  - { offsetInCU: 0x48C9A, offset: 0x48C9A, size: 0x8, addend: 0x0, symName: __ZNSt3__15tupleIJRKZNK11ToppingList16getRandomToppingEvEUlvE_EEC1B8ue170006INS_4_AndELi0EEES4_, symObjAddr: 0x194C0, symBinAddr: 0x10001C3A0, symSize: 0x34 }
  - { offsetInCU: 0x48CE2, offset: 0x48CE2, size: 0x8, addend: 0x0, symName: __ZNSt3__15tupleIJRKZNK11ToppingList16getRandomToppingEvEUlvE_EEC2B8ue170006INS_4_AndELi0EEES4_, symObjAddr: 0x194F4, symBinAddr: 0x10001C3D4, symSize: 0x34 }
  - { offsetInCU: 0x48D2A, offset: 0x48D2A, size: 0x8, addend: 0x0, symName: __ZNSt3__112__tuple_implINS_15__tuple_indicesIJLm0EEEEJRKZNK11ToppingList16getRandomToppingEvEUlvE_EEC1B8ue170006IJLm0EEJS6_EJEJEJS6_EEENS1_IJXspT_EEEENS_13__tuple_typesIJDpT0_EEENS1_IJXspT1_EEEENSA_IJDpT2_EEEDpOT3_, symObjAddr: 0x19528, symBinAddr: 0x10001C408, symSize: 0x34 }
  - { offsetInCU: 0x48DBF, offset: 0x48DBF, size: 0x8, addend: 0x0, symName: __ZNSt3__112__tuple_implINS_15__tuple_indicesIJLm0EEEEJRKZNK11ToppingList16getRandomToppingEvEUlvE_EEC2B8ue170006IJLm0EEJS6_EJEJEJS6_EEENS1_IJXspT_EEEENS_13__tuple_typesIJDpT0_EEENS1_IJXspT1_EEEENSA_IJDpT2_EEEDpOT3_, symObjAddr: 0x1955C, symBinAddr: 0x10001C43C, symSize: 0x34 }
  - { offsetInCU: 0x48E54, offset: 0x48E54, size: 0x8, addend: 0x0, symName: __ZNSt3__112__tuple_leafILm0ERKZNK11ToppingList16getRandomToppingEvEUlvE_Lb0EEC2B8ue170006IS4_vEEOT_, symObjAddr: 0x19590, symBinAddr: 0x10001C470, symSize: 0x20 }
  - { offsetInCU: 0x48E97, offset: 0x48E97, size: 0x8, addend: 0x0, symName: __ZNSt3__117__compressed_pairIZNK11ToppingList16getRandomToppingEvEUlvE_NS_9allocatorIS2_EEEC2B8ue170006IJRKS2_EJOS4_EEENS_21piecewise_construct_tENS_5tupleIJDpT_EEENSB_IJDpT0_EEE, symObjAddr: 0x195B0, symBinAddr: 0x10001C490, symSize: 0x54 }
  - { offsetInCU: 0x48F01, offset: 0x48F01, size: 0x8, addend: 0x0, symName: __ZNSt3__122__compressed_pair_elemIZNK11ToppingList16getRandomToppingEvEUlvE_Li0ELb0EEC2B8ue170006IJRKS2_EJLm0EEEENS_21piecewise_construct_tENS_5tupleIJDpT_EEENS_15__tuple_indicesIJXspT0_EEEE, symObjAddr: 0x19604, symBinAddr: 0x10001C4E4, symSize: 0x44 }
  - { offsetInCU: 0x48F64, offset: 0x48F64, size: 0x8, addend: 0x0, symName: __ZZNK11ToppingList16getRandomToppingEvENUlvE_C1ERKS0_, symObjAddr: 0x1966C, symBinAddr: 0x10001C54C, symSize: 0x34 }
  - { offsetInCU: 0x48F99, offset: 0x48F99, size: 0x8, addend: 0x0, symName: __ZNSt3__112__tuple_leafILm0ERKZNK11ToppingList16getRandomToppingEvEUlvE_Lb0EE3getB8ue170006Ev, symObjAddr: 0x196A0, symBinAddr: 0x10001C580, symSize: 0x18 }
  - { offsetInCU: 0x48FBF, offset: 0x48FBF, size: 0x8, addend: 0x0, symName: __ZZNK11ToppingList16getRandomToppingEvENUlvE_C2ERKS0_, symObjAddr: 0x196B8, symBinAddr: 0x10001C598, symSize: 0x34 }
  - { offsetInCU: 0x48FF4, offset: 0x48FF4, size: 0x8, addend: 0x0, symName: __ZNSt3__117__compressed_pairIPNS_10__function6__funcIZNK11ToppingList16getRandomToppingEvEUlvE_NS_9allocatorIS4_EEFNS_10unique_ptrI7ToppingNS_14default_deleteIS8_EEEEvEEENS_22__allocator_destructorINS5_ISD_EEEEE5firstB8ue170006Ev, symObjAddr: 0x196EC, symBinAddr: 0x10001C5CC, symSize: 0x24 }
  - { offsetInCU: 0x4901A, offset: 0x4901A, size: 0x8, addend: 0x0, symName: __ZNSt3__122__compressed_pair_elemIPNS_10__function6__funcIZNK11ToppingList16getRandomToppingEvEUlvE_NS_9allocatorIS4_EEFNS_10unique_ptrI7ToppingNS_14default_deleteIS8_EEEEvEEELi0ELb0EE5__getB8ue170006Ev, symObjAddr: 0x19710, symBinAddr: 0x10001C5F0, symSize: 0x14 }
  - { offsetInCU: 0x49040, offset: 0x49040, size: 0x8, addend: 0x0, symName: __ZNSt3__110unique_ptrINS_10__function6__funcIZNK11ToppingList16getRandomToppingEvEUlvE_NS_9allocatorIS4_EEFNS0_I7ToppingNS_14default_deleteIS7_EEEEvEEENS_22__allocator_destructorINS5_ISC_EEEEED2B8ue170006Ev, symObjAddr: 0x19724, symBinAddr: 0x10001C604, symSize: 0x30 }
  - { offsetInCU: 0x4906A, offset: 0x4906A, size: 0x8, addend: 0x0, symName: __ZNSt3__110unique_ptrINS_10__function6__funcIZNK11ToppingList16getRandomToppingEvEUlvE_NS_9allocatorIS4_EEFNS0_I7ToppingNS_14default_deleteIS7_EEEEvEEENS_22__allocator_destructorINS5_ISC_EEEEE5resetB8ue170006EPSC_, symObjAddr: 0x19754, symBinAddr: 0x10001C634, symSize: 0x78 }
  - { offsetInCU: 0x490AE, offset: 0x490AE, size: 0x8, addend: 0x0, symName: __ZNSt3__117__compressed_pairIPNS_10__function6__funcIZNK11ToppingList16getRandomToppingEvEUlvE_NS_9allocatorIS4_EEFNS_10unique_ptrI7ToppingNS_14default_deleteIS8_EEEEvEEENS_22__allocator_destructorINS5_ISD_EEEEE6secondB8ue170006Ev, symObjAddr: 0x197CC, symBinAddr: 0x10001C6AC, symSize: 0x28 }
  - { offsetInCU: 0x490D4, offset: 0x490D4, size: 0x8, addend: 0x0, symName: __ZNSt3__122__allocator_destructorINS_9allocatorINS_10__function6__funcIZNK11ToppingList16getRandomToppingEvEUlvE_NS1_IS5_EEFNS_10unique_ptrI7ToppingNS_14default_deleteIS8_EEEEvEEEEEEclB8ue170006EPSD_, symObjAddr: 0x197F4, symBinAddr: 0x10001C6D4, symSize: 0x34 }
  - { offsetInCU: 0x49108, offset: 0x49108, size: 0x8, addend: 0x0, symName: __ZNSt3__122__compressed_pair_elemINS_22__allocator_destructorINS_9allocatorINS_10__function6__funcIZNK11ToppingList16getRandomToppingEvEUlvE_NS2_IS6_EEFNS_10unique_ptrI7ToppingNS_14default_deleteIS9_EEEEvEEEEEEELi1ELb0EE5__getB8ue170006Ev, symObjAddr: 0x19828, symBinAddr: 0x10001C708, symSize: 0x14 }
  - { offsetInCU: 0x4912E, offset: 0x4912E, size: 0x8, addend: 0x0, symName: __ZNSt3__116allocator_traitsINS_9allocatorINS_10__function6__funcIZNK11ToppingList16getRandomToppingEvEUlvE_NS1_IS5_EEFNS_10unique_ptrI7ToppingNS_14default_deleteIS8_EEEEvEEEEEE10deallocateB8ue170006ERSE_PSD_m, symObjAddr: 0x1983C, symBinAddr: 0x10001C71C, symSize: 0x34 }
  - { offsetInCU: 0x49170, offset: 0x49170, size: 0x8, addend: 0x0, symName: __ZNSt3__19allocatorINS_10__function6__funcIZNK11ToppingList16getRandomToppingEvEUlvE_NS0_IS4_EEFNS_10unique_ptrI7ToppingNS_14default_deleteIS7_EEEEvEEEE10deallocateB8ue170006EPSC_m, symObjAddr: 0x19870, symBinAddr: 0x10001C750, symSize: 0x44 }
  - { offsetInCU: 0x491B2, offset: 0x491B2, size: 0x8, addend: 0x0, symName: __ZNSt3__110__function6__funcIZNK11ToppingList16getRandomToppingEvEUlvE_NS_9allocatorIS3_EEFNS_10unique_ptrI7ToppingNS_14default_deleteIS7_EEEEvEEC1B8ue170006ERKS3_RKS5_, symObjAddr: 0x198B4, symBinAddr: 0x10001C794, symSize: 0x3C }
  - { offsetInCU: 0x491FA, offset: 0x491FA, size: 0x8, addend: 0x0, symName: __ZNSt3__110__function6__funcIZNK11ToppingList16getRandomToppingEvEUlvE_NS_9allocatorIS3_EEFNS_10unique_ptrI7ToppingNS_14default_deleteIS7_EEEEvEEC2B8ue170006ERKS3_RKS5_, symObjAddr: 0x198F0, symBinAddr: 0x10001C7D0, symSize: 0x88 }
  - { offsetInCU: 0x49242, offset: 0x49242, size: 0x8, addend: 0x0, symName: __ZNSt3__110__function12__alloc_funcIZNK11ToppingList16getRandomToppingEvEUlvE_NS_9allocatorIS3_EEFNS_10unique_ptrI7ToppingNS_14default_deleteIS7_EEEEvEEC1B8ue170006ERKS3_RKS5_, symObjAddr: 0x19978, symBinAddr: 0x10001C858, symSize: 0x3C }
  - { offsetInCU: 0x49288, offset: 0x49288, size: 0x8, addend: 0x0, symName: __ZNSt3__110__function12__alloc_funcIZNK11ToppingList16getRandomToppingEvEUlvE_NS_9allocatorIS3_EEFNS_10unique_ptrI7ToppingNS_14default_deleteIS7_EEEEvEEC2B8ue170006ERKS3_RKS5_, symObjAddr: 0x199B4, symBinAddr: 0x10001C894, symSize: 0x5C }
  - { offsetInCU: 0x492CE, offset: 0x492CE, size: 0x8, addend: 0x0, symName: __ZNSt3__117__compressed_pairIZNK11ToppingList16getRandomToppingEvEUlvE_NS_9allocatorIS2_EEEC1B8ue170006IJRKS2_EJRKS4_EEENS_21piecewise_construct_tENS_5tupleIJDpT_EEENSC_IJDpT0_EEE, symObjAddr: 0x19A3C, symBinAddr: 0x10001C91C, symSize: 0x3C }
  - { offsetInCU: 0x49338, offset: 0x49338, size: 0x8, addend: 0x0, symName: __ZNSt3__15tupleIJRKNS_9allocatorIZNK11ToppingList16getRandomToppingEvEUlvE_EEEEC1B8ue170006INS_4_AndELi0EEES6_, symObjAddr: 0x19A78, symBinAddr: 0x10001C958, symSize: 0x34 }
  - { offsetInCU: 0x49380, offset: 0x49380, size: 0x8, addend: 0x0, symName: __ZNSt3__15tupleIJRKNS_9allocatorIZNK11ToppingList16getRandomToppingEvEUlvE_EEEEC2B8ue170006INS_4_AndELi0EEES6_, symObjAddr: 0x19AAC, symBinAddr: 0x10001C98C, symSize: 0x34 }
  - { offsetInCU: 0x493C8, offset: 0x493C8, size: 0x8, addend: 0x0, symName: __ZNSt3__112__tuple_implINS_15__tuple_indicesIJLm0EEEEJRKNS_9allocatorIZNK11ToppingList16getRandomToppingEvEUlvE_EEEEC1B8ue170006IJLm0EEJS8_EJEJEJS8_EEENS1_IJXspT_EEEENS_13__tuple_typesIJDpT0_EEENS1_IJXspT1_EEEENSC_IJDpT2_EEEDpOT3_, symObjAddr: 0x19AE0, symBinAddr: 0x10001C9C0, symSize: 0x34 }
  - { offsetInCU: 0x4945D, offset: 0x4945D, size: 0x8, addend: 0x0, symName: __ZNSt3__112__tuple_implINS_15__tuple_indicesIJLm0EEEEJRKNS_9allocatorIZNK11ToppingList16getRandomToppingEvEUlvE_EEEEC2B8ue170006IJLm0EEJS8_EJEJEJS8_EEENS1_IJXspT_EEEENS_13__tuple_typesIJDpT0_EEENS1_IJXspT1_EEEENSC_IJDpT2_EEEDpOT3_, symObjAddr: 0x19B14, symBinAddr: 0x10001C9F4, symSize: 0x34 }
  - { offsetInCU: 0x494F2, offset: 0x494F2, size: 0x8, addend: 0x0, symName: __ZNSt3__112__tuple_leafILm0ERKNS_9allocatorIZNK11ToppingList16getRandomToppingEvEUlvE_EELb0EEC2B8ue170006IS6_vEEOT_, symObjAddr: 0x19B48, symBinAddr: 0x10001CA28, symSize: 0x20 }
  - { offsetInCU: 0x49535, offset: 0x49535, size: 0x8, addend: 0x0, symName: __ZNSt3__117__compressed_pairIZNK11ToppingList16getRandomToppingEvEUlvE_NS_9allocatorIS2_EEEC2B8ue170006IJRKS2_EJRKS4_EEENS_21piecewise_construct_tENS_5tupleIJDpT_EEENSC_IJDpT0_EEE, symObjAddr: 0x19B68, symBinAddr: 0x10001CA48, symSize: 0x7C }
  - { offsetInCU: 0x4959F, offset: 0x4959F, size: 0x8, addend: 0x0, symName: __ZNSt3__122__compressed_pair_elemINS_9allocatorIZNK11ToppingList16getRandomToppingEvEUlvE_EELi1ELb1EEC2B8ue170006IJRKS4_EJLm0EEEENS_21piecewise_construct_tENS_5tupleIJDpT_EEENS_15__tuple_indicesIJXspT0_EEEE, symObjAddr: 0x19BE4, symBinAddr: 0x10001CAC4, symSize: 0x38 }
  - { offsetInCU: 0x49602, offset: 0x49602, size: 0x8, addend: 0x0, symName: __ZNSt3__112__tuple_leafILm0ERKNS_9allocatorIZNK11ToppingList16getRandomToppingEvEUlvE_EELb0EE3getB8ue170006Ev, symObjAddr: 0x19C40, symBinAddr: 0x10001CB20, symSize: 0x18 }
  - { offsetInCU: 0x49628, offset: 0x49628, size: 0x8, addend: 0x0, symName: __ZNSt3__110__function12__alloc_funcIZNK11ToppingList16getRandomToppingEvEUlvE_NS_9allocatorIS3_EEFNS_10unique_ptrI7ToppingNS_14default_deleteIS7_EEEEvEE7destroyB8ue170006Ev, symObjAddr: 0x19C58, symBinAddr: 0x10001CB38, symSize: 0x24 }
  - { offsetInCU: 0x4964E, offset: 0x4964E, size: 0x8, addend: 0x0, symName: __ZNSt3__110__function12__alloc_funcIZNK11ToppingList16getRandomToppingEvEUlvE_NS_9allocatorIS3_EEFNS_10unique_ptrI7ToppingNS_14default_deleteIS7_EEEEvEEclB8ue170006Ev, symObjAddr: 0x19C7C, symBinAddr: 0x10001CB5C, symSize: 0x34 }
  - { offsetInCU: 0x49674, offset: 0x49674, size: 0x8, addend: 0x0, symName: __ZNSt3__128__invoke_void_return_wrapperINS_10unique_ptrI7ToppingNS_14default_deleteIS2_EEEELb0EE6__callB8ue170006IJRZNK11ToppingList16getRandomToppingEvEUlvE_EEES5_DpOT_, symObjAddr: 0x19CB0, symBinAddr: 0x10001CB90, symSize: 0x48 }
  - { offsetInCU: 0x496A3, offset: 0x496A3, size: 0x8, addend: 0x0, symName: __ZNSt3__117__compressed_pairIZNK11ToppingList16getRandomToppingEvEUlvE_NS_9allocatorIS2_EEE5firstB8ue170006Ev, symObjAddr: 0x19CF8, symBinAddr: 0x10001CBD8, symSize: 0x24 }
  - { offsetInCU: 0x496C9, offset: 0x496C9, size: 0x8, addend: 0x0, symName: __ZNSt3__110unique_ptrI7ToppingNS_14default_deleteIS1_EEEC1B8ue170006I12FruitToppingNS2_IS6_EEvvEEONS0_IT_T0_EE, symObjAddr: 0x19D48, symBinAddr: 0x10001CC28, symSize: 0x34 }
  - { offsetInCU: 0x49715, offset: 0x49715, size: 0x8, addend: 0x0, symName: __ZNSt3__110unique_ptrI12FruitToppingNS_14default_deleteIS1_EEED1B8ue170006Ev, symObjAddr: 0x19D7C, symBinAddr: 0x10001CC5C, symSize: 0x2C }
  - { offsetInCU: 0x49745, offset: 0x49745, size: 0x8, addend: 0x0, symName: __ZZNK11ToppingList16getRandomToppingEvENKUlvE_clEv, symObjAddr: 0x19DA8, symBinAddr: 0x10001CC88, symSize: 0x2C }
  - { offsetInCU: 0x4976F, offset: 0x4976F, size: 0x8, addend: 0x0, symName: __ZNKSt3__18functionIFNS_10unique_ptrI12FruitToppingNS_14default_deleteIS2_EEEEvEEclEv, symObjAddr: 0x19DD4, symBinAddr: 0x10001CCB4, symSize: 0x2C }
  - { offsetInCU: 0x49797, offset: 0x49797, size: 0x8, addend: 0x0, symName: __ZNKSt3__110__function12__value_funcIFNS_10unique_ptrI12FruitToppingNS_14default_deleteIS3_EEEEvEEclB8ue170006Ev, symObjAddr: 0x19E00, symBinAddr: 0x10001CCE0, symSize: 0x5C }
  - { offsetInCU: 0x497C3, offset: 0x497C3, size: 0x8, addend: 0x0, symName: __ZNSt3__117bad_function_callC1Ev, symObjAddr: 0x19E94, symBinAddr: 0x10001CD74, symSize: 0x2C }
  - { offsetInCU: 0x497EF, offset: 0x497EF, size: 0x8, addend: 0x0, symName: __ZNSt3__117bad_function_callD1Ev, symObjAddr: 0x19EC0, symBinAddr: 0x10001CDA0, symSize: 0x2C }
  - { offsetInCU: 0x49819, offset: 0x49819, size: 0x8, addend: 0x0, symName: __ZNSt3__117bad_function_callC2Ev, symObjAddr: 0x19EEC, symBinAddr: 0x10001CDCC, symSize: 0x44 }
  - { offsetInCU: 0x49845, offset: 0x49845, size: 0x8, addend: 0x0, symName: __ZNSt9exceptionC2B8ue170006Ev, symObjAddr: 0x19F30, symBinAddr: 0x10001CE10, symSize: 0x24 }
  - { offsetInCU: 0x4986F, offset: 0x4986F, size: 0x8, addend: 0x0, symName: __ZNSt3__117bad_function_callD0Ev, symObjAddr: 0x19F54, symBinAddr: 0x10001CE34, symSize: 0x30 }
  - { offsetInCU: 0x49899, offset: 0x49899, size: 0x8, addend: 0x0, symName: __ZNSt3__117bad_function_callD2Ev, symObjAddr: 0x19F84, symBinAddr: 0x10001CE64, symSize: 0x2C }
  - { offsetInCU: 0x498C3, offset: 0x498C3, size: 0x8, addend: 0x0, symName: __ZNSt3__110unique_ptrI7ToppingNS_14default_deleteIS1_EEEC2B8ue170006I12FruitToppingNS2_IS6_EEvvEEONS0_IT_T0_EE, symObjAddr: 0x19FB0, symBinAddr: 0x10001CE90, symSize: 0x60 }
  - { offsetInCU: 0x4990F, offset: 0x4990F, size: 0x8, addend: 0x0, symName: __ZNSt3__110unique_ptrI12FruitToppingNS_14default_deleteIS1_EEE7releaseB8ue170006Ev, symObjAddr: 0x1A010, symBinAddr: 0x10001CEF0, symSize: 0x44 }
  - { offsetInCU: 0x49944, offset: 0x49944, size: 0x8, addend: 0x0, symName: __ZNSt3__110unique_ptrI12FruitToppingNS_14default_deleteIS1_EEE11get_deleterB8ue170006Ev, symObjAddr: 0x1A054, symBinAddr: 0x10001CF34, symSize: 0x24 }
  - { offsetInCU: 0x49976, offset: 0x49976, size: 0x8, addend: 0x0, symName: __ZNSt3__117__compressed_pairIP7ToppingNS_14default_deleteIS1_EEEC1B8ue170006IP12FruitToppingNS3_IS7_EEEEOT_OT0_, symObjAddr: 0x1A078, symBinAddr: 0x10001CF58, symSize: 0x3C }
  - { offsetInCU: 0x499CE, offset: 0x499CE, size: 0x8, addend: 0x0, symName: __ZNSt3__117__compressed_pairIP12FruitToppingNS_14default_deleteIS1_EEE5firstB8ue170006Ev, symObjAddr: 0x1A0B4, symBinAddr: 0x10001CF94, symSize: 0x24 }
  - { offsetInCU: 0x499F4, offset: 0x499F4, size: 0x8, addend: 0x0, symName: __ZNSt3__122__compressed_pair_elemIP12FruitToppingLi0ELb0EE5__getB8ue170006Ev, symObjAddr: 0x1A0D8, symBinAddr: 0x10001CFB8, symSize: 0x14 }
  - { offsetInCU: 0x49A1A, offset: 0x49A1A, size: 0x8, addend: 0x0, symName: __ZNSt3__117__compressed_pairIP12FruitToppingNS_14default_deleteIS1_EEE6secondB8ue170006Ev, symObjAddr: 0x1A0EC, symBinAddr: 0x10001CFCC, symSize: 0x24 }
  - { offsetInCU: 0x49A40, offset: 0x49A40, size: 0x8, addend: 0x0, symName: __ZNSt3__122__compressed_pair_elemINS_14default_deleteI12FruitToppingEELi1ELb1EE5__getB8ue170006Ev, symObjAddr: 0x1A110, symBinAddr: 0x10001CFF0, symSize: 0x14 }
  - { offsetInCU: 0x49A66, offset: 0x49A66, size: 0x8, addend: 0x0, symName: __ZNSt3__117__compressed_pairIP7ToppingNS_14default_deleteIS1_EEEC2B8ue170006IP12FruitToppingNS3_IS7_EEEEOT_OT0_, symObjAddr: 0x1A124, symBinAddr: 0x10001D004, symSize: 0x44 }
  - { offsetInCU: 0x49ABE, offset: 0x49ABE, size: 0x8, addend: 0x0, symName: __ZNSt3__122__compressed_pair_elemIP7ToppingLi0ELb0EEC2B8ue170006IP12FruitToppingvEEOT_, symObjAddr: 0x1A168, symBinAddr: 0x10001D048, symSize: 0x24 }
  - { offsetInCU: 0x49B00, offset: 0x49B00, size: 0x8, addend: 0x0, symName: __ZNSt3__122__compressed_pair_elemINS_14default_deleteI7ToppingEELi1ELb1EEC2B8ue170006INS1_I12FruitToppingEEvEEOT_, symObjAddr: 0x1A18C, symBinAddr: 0x10001D06C, symSize: 0x38 }
  - { offsetInCU: 0x49B48, offset: 0x49B48, size: 0x8, addend: 0x0, symName: __ZNSt3__114default_deleteI7ToppingEC2B8ue170006I12FruitToppingEERKNS0_IT_EEPNS_9enable_ifIXsr14is_convertibleIPS5_PS1_EE5valueEvE4typeE, symObjAddr: 0x1A1C4, symBinAddr: 0x10001D0A4, symSize: 0x1C }
  - { offsetInCU: 0x49B8F, offset: 0x49B8F, size: 0x8, addend: 0x0, symName: __ZNSt3__110unique_ptrI12FruitToppingNS_14default_deleteIS1_EEED2B8ue170006Ev, symObjAddr: 0x1A1E0, symBinAddr: 0x10001D0C0, symSize: 0x30 }
  - { offsetInCU: 0x49BB9, offset: 0x49BB9, size: 0x8, addend: 0x0, symName: __ZNSt3__110unique_ptrI12FruitToppingNS_14default_deleteIS1_EEE5resetB8ue170006EPS1_, symObjAddr: 0x1A210, symBinAddr: 0x10001D0F0, symSize: 0x78 }
  - { offsetInCU: 0x49BFD, offset: 0x49BFD, size: 0x8, addend: 0x0, symName: __ZNKSt3__114default_deleteI12FruitToppingEclB8ue170006EPS1_, symObjAddr: 0x1A288, symBinAddr: 0x10001D168, symSize: 0x4C }
  - { offsetInCU: 0x49C31, offset: 0x49C31, size: 0x8, addend: 0x0, symName: __ZNSt3__122__compressed_pair_elemIZNK11ToppingList16getRandomToppingEvEUlvE_Li0ELb0EE5__getB8ue170006Ev, symObjAddr: 0x1A2D4, symBinAddr: 0x10001D1B4, symSize: 0x14 }
  - { offsetInCU: 0x49C57, offset: 0x49C57, size: 0x8, addend: 0x0, symName: __ZNSt3__110unique_ptrINS_10__function6__baseIFNS0_I7ToppingNS_14default_deleteIS3_EEEEvEEENS_22__allocator_destructorINS_9allocatorINS1_6__funcIZNK11ToppingList16getRandomToppingEvEUlvE_NSA_ISD_EES7_EEEEEEED2B8ue170006Ev, symObjAddr: 0x1A2E8, symBinAddr: 0x10001D1C8, symSize: 0x30 }
  - { offsetInCU: 0x49C81, offset: 0x49C81, size: 0x8, addend: 0x0, symName: __ZNSt3__110unique_ptrINS_10__function6__baseIFNS0_I7ToppingNS_14default_deleteIS3_EEEEvEEENS_22__allocator_destructorINS_9allocatorINS1_6__funcIZNK11ToppingList16getRandomToppingEvEUlvE_NSA_ISD_EES7_EEEEEEE5resetB8ue170006EPSF_, symObjAddr: 0x1A318, symBinAddr: 0x10001D1F8, symSize: 0x78 }
  - { offsetInCU: 0x49CC5, offset: 0x49CC5, size: 0x8, addend: 0x0, symName: __ZNSt3__18functionIFNS_10unique_ptrI7ToppingNS_14default_deleteIS2_EEEEvEED2Ev, symObjAddr: 0x1A390, symBinAddr: 0x10001D270, symSize: 0x2C }
  - { offsetInCU: 0x49CF1, offset: 0x49CF1, size: 0x8, addend: 0x0, symName: __ZNSt3__110__function12__value_funcIFNS_10unique_ptrI7ToppingNS_14default_deleteIS3_EEEEvEED1B8ue170006Ev, symObjAddr: 0x1A3BC, symBinAddr: 0x10001D29C, symSize: 0x2C }
  - { offsetInCU: 0x49D1B, offset: 0x49D1B, size: 0x8, addend: 0x0, symName: __ZNSt3__110__function12__value_funcIFNS_10unique_ptrI7ToppingNS_14default_deleteIS3_EEEEvEED2B8ue170006Ev, symObjAddr: 0x1A3E8, symBinAddr: 0x10001D2C8, symSize: 0x90 }
  - { offsetInCU: 0x49D45, offset: 0x49D45, size: 0x8, addend: 0x0, symName: __ZZNK11ToppingList16getRandomToppingEvENUlvE_D2Ev, symObjAddr: 0x1A478, symBinAddr: 0x10001D358, symSize: 0x2C }
  - { offsetInCU: 0x49D71, offset: 0x49D71, size: 0x8, addend: 0x0, symName: __ZNKSt3__16vectorINS_8functionIFNS_10unique_ptrI12SweetToppingNS_14default_deleteIS3_EEEEvEEENS_9allocatorIS8_EEE11__make_iterB8ue170006EPKS8_, symObjAddr: 0x1A4A4, symBinAddr: 0x10001D384, symSize: 0x30 }
  - { offsetInCU: 0x49DA6, offset: 0x49DA6, size: 0x8, addend: 0x0, symName: __ZNSt3__111__wrap_iterIPKNS_8functionIFNS_10unique_ptrI12SweetToppingNS_14default_deleteIS3_EEEEvEEEEC1B8ue170006ESA_, symObjAddr: 0x1A4D4, symBinAddr: 0x10001D3B4, symSize: 0x34 }
  - { offsetInCU: 0x49DDE, offset: 0x49DDE, size: 0x8, addend: 0x0, symName: __ZNSt3__111__wrap_iterIPKNS_8functionIFNS_10unique_ptrI12SweetToppingNS_14default_deleteIS3_EEEEvEEEEC2B8ue170006ESA_, symObjAddr: 0x1A508, symBinAddr: 0x10001D3E8, symSize: 0x20 }
  - { offsetInCU: 0x49E16, offset: 0x49E16, size: 0x8, addend: 0x0, symName: __ZNKSt3__111__wrap_iterIPKNS_8functionIFNS_10unique_ptrI12SweetToppingNS_14default_deleteIS3_EEEEvEEEE4baseB8ue170006Ev, symObjAddr: 0x1A570, symBinAddr: 0x10001D450, symSize: 0x18 }
  - { offsetInCU: 0x49E3C, offset: 0x49E3C, size: 0x8, addend: 0x0, symName: __ZNSt3__18functionIFNS_10unique_ptrI12SweetToppingNS_14default_deleteIS2_EEEEvEEC2ERKS7_, symObjAddr: 0x1A588, symBinAddr: 0x10001D468, symSize: 0x34 }
  - { offsetInCU: 0x49E77, offset: 0x49E77, size: 0x8, addend: 0x0, symName: __ZNSt3__110__function12__value_funcIFNS_10unique_ptrI12SweetToppingNS_14default_deleteIS3_EEEEvEEC1B8ue170006ERKS8_, symObjAddr: 0x1A5BC, symBinAddr: 0x10001D49C, symSize: 0x34 }
  - { offsetInCU: 0x49EB0, offset: 0x49EB0, size: 0x8, addend: 0x0, symName: __ZNSt3__110__function12__value_funcIFNS_10unique_ptrI12SweetToppingNS_14default_deleteIS3_EEEEvEEC2B8ue170006ERKS8_, symObjAddr: 0x1A5F0, symBinAddr: 0x10001D4D0, symSize: 0xC0 }
  - { offsetInCU: 0x49EE9, offset: 0x49EE9, size: 0x8, addend: 0x0, symName: __ZNSt3__18functionIFNS_10unique_ptrI7ToppingNS_14default_deleteIS2_EEEEvEEC2IZNK11ToppingList16getRandomToppingEvEUlvE0_vEET_, symObjAddr: 0x1A6B0, symBinAddr: 0x10001D590, symSize: 0x34 }
  - { offsetInCU: 0x49F2F, offset: 0x49F2F, size: 0x8, addend: 0x0, symName: __ZNSt3__110__function12__value_funcIFNS_10unique_ptrI7ToppingNS_14default_deleteIS3_EEEEvEEC1B8ue170006IZNK11ToppingList16getRandomToppingEvEUlvE0_vEEOT_, symObjAddr: 0x1A6E4, symBinAddr: 0x10001D5C4, symSize: 0x50 }
  - { offsetInCU: 0x49F72, offset: 0x49F72, size: 0x8, addend: 0x0, symName: __ZNSt3__19allocatorIZNK11ToppingList16getRandomToppingEvEUlvE0_EC1B8ue170006Ev, symObjAddr: 0x1A734, symBinAddr: 0x10001D614, symSize: 0x2C }
  - { offsetInCU: 0x49F9C, offset: 0x49F9C, size: 0x8, addend: 0x0, symName: __ZNSt3__110__function12__value_funcIFNS_10unique_ptrI7ToppingNS_14default_deleteIS3_EEEEvEEC1B8ue170006IZNK11ToppingList16getRandomToppingEvEUlvE0_NS_9allocatorISB_EEEEOT_RKT0_, symObjAddr: 0x1A760, symBinAddr: 0x10001D640, symSize: 0x3C }
  - { offsetInCU: 0x49FF6, offset: 0x49FF6, size: 0x8, addend: 0x0, symName: __ZNSt3__19allocatorIZNK11ToppingList16getRandomToppingEvEUlvE0_EC2B8ue170006Ev, symObjAddr: 0x1A79C, symBinAddr: 0x10001D67C, symSize: 0x2C }
  - { offsetInCU: 0x4A020, offset: 0x4A020, size: 0x8, addend: 0x0, symName: __ZNSt3__116__non_trivial_ifILb1ENS_9allocatorIZNK11ToppingList16getRandomToppingEvEUlvE0_EEEC2B8ue170006Ev, symObjAddr: 0x1A7C8, symBinAddr: 0x10001D6A8, symSize: 0x14 }
  - { offsetInCU: 0x4A04A, offset: 0x4A04A, size: 0x8, addend: 0x0, symName: __ZNSt3__110__function12__value_funcIFNS_10unique_ptrI7ToppingNS_14default_deleteIS3_EEEEvEEC2B8ue170006IZNK11ToppingList16getRandomToppingEvEUlvE0_NS_9allocatorISB_EEEEOT_RKT0_, symObjAddr: 0x1A7DC, symBinAddr: 0x10001D6BC, symSize: 0xF4 }
  - { offsetInCU: 0x4A104, offset: 0x4A104, size: 0x8, addend: 0x0, symName: __ZNSt3__19allocatorINS_10__function6__funcIZNK11ToppingList16getRandomToppingEvEUlvE0_NS0_IS4_EEFNS_10unique_ptrI7ToppingNS_14default_deleteIS7_EEEEvEEEEC1B8ue170006IS4_EERKNS0_IT_EE, symObjAddr: 0x1A8E8, symBinAddr: 0x10001D7C8, symSize: 0x34 }
  - { offsetInCU: 0x4A141, offset: 0x4A141, size: 0x8, addend: 0x0, symName: __ZNSt3__19allocatorINS_10__function6__funcIZNK11ToppingList16getRandomToppingEvEUlvE0_NS0_IS4_EEFNS_10unique_ptrI7ToppingNS_14default_deleteIS7_EEEEvEEEE8allocateB8ue170006Em, symObjAddr: 0x1A91C, symBinAddr: 0x10001D7FC, symSize: 0x5C }
  - { offsetInCU: 0x4A187, offset: 0x4A187, size: 0x8, addend: 0x0, symName: __ZNSt3__122__allocator_destructorINS_9allocatorINS_10__function6__funcIZNK11ToppingList16getRandomToppingEvEUlvE0_NS1_IS5_EEFNS_10unique_ptrI7ToppingNS_14default_deleteIS8_EEEEvEEEEEEC1B8ue170006ERSE_m, symObjAddr: 0x1A978, symBinAddr: 0x10001D858, symSize: 0x3C }
  - { offsetInCU: 0x4A275, offset: 0x4A275, size: 0x8, addend: 0x0, symName: __ZNSt3__110unique_ptrINS_10__function6__baseIFNS0_I7ToppingNS_14default_deleteIS3_EEEEvEEENS_22__allocator_destructorINS_9allocatorINS1_6__funcIZNK11ToppingList16getRandomToppingEvEUlvE0_NSA_ISD_EES7_EEEEEEEC1B8ue170006ILb1EvEEPSF_NS_16__dependent_typeINS_27__unique_ptr_deleter_sfinaeISH_EEXT_EE20__good_rval_ref_typeE, symObjAddr: 0x1A9B4, symBinAddr: 0x10001D894, symSize: 0x3C }
  - { offsetInCU: 0x4A2C6, offset: 0x4A2C6, size: 0x8, addend: 0x0, symName: __ZNKSt3__110unique_ptrINS_10__function6__baseIFNS0_I7ToppingNS_14default_deleteIS3_EEEEvEEENS_22__allocator_destructorINS_9allocatorINS1_6__funcIZNK11ToppingList16getRandomToppingEvEUlvE0_NSA_ISD_EES7_EEEEEEE3getB8ue170006Ev, symObjAddr: 0x1A9F0, symBinAddr: 0x10001D8D0, symSize: 0x28 }
  - { offsetInCU: 0x4A2EC, offset: 0x4A2EC, size: 0x8, addend: 0x0, symName: __ZNSt3__110__function6__funcIZNK11ToppingList16getRandomToppingEvEUlvE0_NS_9allocatorIS3_EEFNS_10unique_ptrI7ToppingNS_14default_deleteIS7_EEEEvEEC1B8ue170006EOS3_OS5_, symObjAddr: 0x1AA18, symBinAddr: 0x10001D8F8, symSize: 0x3C }
  - { offsetInCU: 0x4A334, offset: 0x4A334, size: 0x8, addend: 0x0, symName: __ZNSt3__110unique_ptrINS_10__function6__baseIFNS0_I7ToppingNS_14default_deleteIS3_EEEEvEEENS_22__allocator_destructorINS_9allocatorINS1_6__funcIZNK11ToppingList16getRandomToppingEvEUlvE0_NSA_ISD_EES7_EEEEEEE7releaseB8ue170006Ev, symObjAddr: 0x1AA54, symBinAddr: 0x10001D934, symSize: 0x44 }
  - { offsetInCU: 0x4A369, offset: 0x4A369, size: 0x8, addend: 0x0, symName: __ZNSt3__110unique_ptrINS_10__function6__baseIFNS0_I7ToppingNS_14default_deleteIS3_EEEEvEEENS_22__allocator_destructorINS_9allocatorINS1_6__funcIZNK11ToppingList16getRandomToppingEvEUlvE0_NSA_ISD_EES7_EEEEEEED1B8ue170006Ev, symObjAddr: 0x1AA98, symBinAddr: 0x10001D978, symSize: 0x2C }
  - { offsetInCU: 0x4A393, offset: 0x4A393, size: 0x8, addend: 0x0, symName: __ZNSt3__19allocatorINS_10__function6__funcIZNK11ToppingList16getRandomToppingEvEUlvE0_NS0_IS4_EEFNS_10unique_ptrI7ToppingNS_14default_deleteIS7_EEEEvEEEEC2B8ue170006IS4_EERKNS0_IT_EE, symObjAddr: 0x1AAC4, symBinAddr: 0x10001D9A4, symSize: 0x30 }
  - { offsetInCU: 0x4A3D0, offset: 0x4A3D0, size: 0x8, addend: 0x0, symName: __ZNSt3__116__non_trivial_ifILb1ENS_9allocatorINS_10__function6__funcIZNK11ToppingList16getRandomToppingEvEUlvE0_NS1_IS5_EEFNS_10unique_ptrI7ToppingNS_14default_deleteIS8_EEEEvEEEEEEC2B8ue170006Ev, symObjAddr: 0x1AAF4, symBinAddr: 0x10001D9D4, symSize: 0x14 }
  - { offsetInCU: 0x4A406, offset: 0x4A406, size: 0x8, addend: 0x0, symName: __ZNSt3__116allocator_traitsINS_9allocatorINS_10__function6__funcIZNK11ToppingList16getRandomToppingEvEUlvE0_NS1_IS5_EEFNS_10unique_ptrI7ToppingNS_14default_deleteIS8_EEEEvEEEEEE8max_sizeB8ue170006ISE_vEEmRKSE_, symObjAddr: 0x1AB08, symBinAddr: 0x10001D9E8, symSize: 0x24 }
  - { offsetInCU: 0x4A434, offset: 0x4A434, size: 0x8, addend: 0x0, symName: __ZNKSt3__19allocatorINS_10__function6__funcIZNK11ToppingList16getRandomToppingEvEUlvE0_NS0_IS4_EEFNS_10unique_ptrI7ToppingNS_14default_deleteIS7_EEEEvEEEE8max_sizeB8ue170006Ev, symObjAddr: 0x1AB2C, symBinAddr: 0x10001DA0C, symSize: 0x18 }
  - { offsetInCU: 0x4A45A, offset: 0x4A45A, size: 0x8, addend: 0x0, symName: __ZNSt3__122__allocator_destructorINS_9allocatorINS_10__function6__funcIZNK11ToppingList16getRandomToppingEvEUlvE0_NS1_IS5_EEFNS_10unique_ptrI7ToppingNS_14default_deleteIS8_EEEEvEEEEEEC2B8ue170006ERSE_m, symObjAddr: 0x1AB44, symBinAddr: 0x10001DA24, symSize: 0x2C }
  - { offsetInCU: 0x4A4A0, offset: 0x4A4A0, size: 0x8, addend: 0x0, symName: __ZNSt3__110unique_ptrINS_10__function6__baseIFNS0_I7ToppingNS_14default_deleteIS3_EEEEvEEENS_22__allocator_destructorINS_9allocatorINS1_6__funcIZNK11ToppingList16getRandomToppingEvEUlvE0_NSA_ISD_EES7_EEEEEEEC2B8ue170006ILb1EvEEPSF_NS_16__dependent_typeINS_27__unique_ptr_deleter_sfinaeISH_EEXT_EE20__good_rval_ref_typeE, symObjAddr: 0x1AB70, symBinAddr: 0x10001DA50, symSize: 0x48 }
  - { offsetInCU: 0x4A4F1, offset: 0x4A4F1, size: 0x8, addend: 0x0, symName: __ZNSt3__117__compressed_pairIPNS_10__function6__funcIZNK11ToppingList16getRandomToppingEvEUlvE0_NS_9allocatorIS4_EEFNS_10unique_ptrI7ToppingNS_14default_deleteIS8_EEEEvEEENS_22__allocator_destructorINS5_ISD_EEEEEC1B8ue170006IRSE_SH_EEOT_OT0_, symObjAddr: 0x1ABB8, symBinAddr: 0x10001DA98, symSize: 0x3C }
  - { offsetInCU: 0x4A549, offset: 0x4A549, size: 0x8, addend: 0x0, symName: __ZNSt3__117__compressed_pairIPNS_10__function6__funcIZNK11ToppingList16getRandomToppingEvEUlvE0_NS_9allocatorIS4_EEFNS_10unique_ptrI7ToppingNS_14default_deleteIS8_EEEEvEEENS_22__allocator_destructorINS5_ISD_EEEEEC2B8ue170006IRSE_SH_EEOT_OT0_, symObjAddr: 0x1ABF4, symBinAddr: 0x10001DAD4, symSize: 0x48 }
  - { offsetInCU: 0x4A5A1, offset: 0x4A5A1, size: 0x8, addend: 0x0, symName: __ZNSt3__122__compressed_pair_elemIPNS_10__function6__funcIZNK11ToppingList16getRandomToppingEvEUlvE0_NS_9allocatorIS4_EEFNS_10unique_ptrI7ToppingNS_14default_deleteIS8_EEEEvEEELi0ELb0EEC2B8ue170006IRSE_vEEOT_, symObjAddr: 0x1AC3C, symBinAddr: 0x10001DB1C, symSize: 0x24 }
  - { offsetInCU: 0x4A5E3, offset: 0x4A5E3, size: 0x8, addend: 0x0, symName: __ZNSt3__122__compressed_pair_elemINS_22__allocator_destructorINS_9allocatorINS_10__function6__funcIZNK11ToppingList16getRandomToppingEvEUlvE0_NS2_IS6_EEFNS_10unique_ptrI7ToppingNS_14default_deleteIS9_EEEEvEEEEEEELi1ELb0EEC2B8ue170006ISG_vEEOT_, symObjAddr: 0x1AC60, symBinAddr: 0x10001DB40, symSize: 0x24 }
  - { offsetInCU: 0x4A625, offset: 0x4A625, size: 0x8, addend: 0x0, symName: __ZNKSt3__117__compressed_pairIPNS_10__function6__funcIZNK11ToppingList16getRandomToppingEvEUlvE0_NS_9allocatorIS4_EEFNS_10unique_ptrI7ToppingNS_14default_deleteIS8_EEEEvEEENS_22__allocator_destructorINS5_ISD_EEEEE5firstB8ue170006Ev, symObjAddr: 0x1AC84, symBinAddr: 0x10001DB64, symSize: 0x24 }
  - { offsetInCU: 0x4A64B, offset: 0x4A64B, size: 0x8, addend: 0x0, symName: __ZNKSt3__122__compressed_pair_elemIPNS_10__function6__funcIZNK11ToppingList16getRandomToppingEvEUlvE0_NS_9allocatorIS4_EEFNS_10unique_ptrI7ToppingNS_14default_deleteIS8_EEEEvEEELi0ELb0EE5__getB8ue170006Ev, symObjAddr: 0x1ACA8, symBinAddr: 0x10001DB88, symSize: 0x14 }
  - { offsetInCU: 0x4A671, offset: 0x4A671, size: 0x8, addend: 0x0, symName: __ZNSt3__110__function6__funcIZNK11ToppingList16getRandomToppingEvEUlvE0_NS_9allocatorIS3_EEFNS_10unique_ptrI7ToppingNS_14default_deleteIS7_EEEEvEEC2B8ue170006EOS3_OS5_, symObjAddr: 0x1ACBC, symBinAddr: 0x10001DB9C, symSize: 0x88 }
  - { offsetInCU: 0x4A6B9, offset: 0x4A6B9, size: 0x8, addend: 0x0, symName: __ZNSt3__110__function12__alloc_funcIZNK11ToppingList16getRandomToppingEvEUlvE0_NS_9allocatorIS3_EEFNS_10unique_ptrI7ToppingNS_14default_deleteIS7_EEEEvEEC1B8ue170006EOS3_OS5_, symObjAddr: 0x1AD44, symBinAddr: 0x10001DC24, symSize: 0x3C }
  - { offsetInCU: 0x4A6FF, offset: 0x4A6FF, size: 0x8, addend: 0x0, symName: __ZNSt3__110__function6__funcIZNK11ToppingList16getRandomToppingEvEUlvE0_NS_9allocatorIS3_EEFNS_10unique_ptrI7ToppingNS_14default_deleteIS7_EEEEvEED1Ev, symObjAddr: 0x1AD80, symBinAddr: 0x10001DC60, symSize: 0x2C }
  - { offsetInCU: 0x4A72C, offset: 0x4A72C, size: 0x8, addend: 0x0, symName: __ZNSt3__110__function6__funcIZNK11ToppingList16getRandomToppingEvEUlvE0_NS_9allocatorIS3_EEFNS_10unique_ptrI7ToppingNS_14default_deleteIS7_EEEEvEED0Ev, symObjAddr: 0x1ADAC, symBinAddr: 0x10001DC8C, symSize: 0x30 }
  - { offsetInCU: 0x4A759, offset: 0x4A759, size: 0x8, addend: 0x0, symName: __ZNKSt3__110__function6__funcIZNK11ToppingList16getRandomToppingEvEUlvE0_NS_9allocatorIS3_EEFNS_10unique_ptrI7ToppingNS_14default_deleteIS7_EEEEvEE7__cloneEv, symObjAddr: 0x1ADDC, symBinAddr: 0x10001DCBC, symSize: 0xFC }
  - { offsetInCU: 0x4A7AB, offset: 0x4A7AB, size: 0x8, addend: 0x0, symName: __ZNKSt3__110__function6__funcIZNK11ToppingList16getRandomToppingEvEUlvE0_NS_9allocatorIS3_EEFNS_10unique_ptrI7ToppingNS_14default_deleteIS7_EEEEvEE7__cloneEPNS0_6__baseISB_EE, symObjAddr: 0x1AED8, symBinAddr: 0x10001DDB8, symSize: 0x58 }
  - { offsetInCU: 0x4A7E2, offset: 0x4A7E2, size: 0x8, addend: 0x0, symName: __ZNSt3__110__function6__funcIZNK11ToppingList16getRandomToppingEvEUlvE0_NS_9allocatorIS3_EEFNS_10unique_ptrI7ToppingNS_14default_deleteIS7_EEEEvEE7destroyEv, symObjAddr: 0x1AF30, symBinAddr: 0x10001DE10, symSize: 0x28 }
  - { offsetInCU: 0x4A80A, offset: 0x4A80A, size: 0x8, addend: 0x0, symName: __ZNSt3__110__function6__funcIZNK11ToppingList16getRandomToppingEvEUlvE0_NS_9allocatorIS3_EEFNS_10unique_ptrI7ToppingNS_14default_deleteIS7_EEEEvEE18destroy_deallocateEv, symObjAddr: 0x1AF58, symBinAddr: 0x10001DE38, symSize: 0x58 }
  - { offsetInCU: 0x4A84D, offset: 0x4A84D, size: 0x8, addend: 0x0, symName: __ZNSt3__110__function6__funcIZNK11ToppingList16getRandomToppingEvEUlvE0_NS_9allocatorIS3_EEFNS_10unique_ptrI7ToppingNS_14default_deleteIS7_EEEEvEEclEv, symObjAddr: 0x1AFB0, symBinAddr: 0x10001DE90, symSize: 0x30 }
  - { offsetInCU: 0x4A875, offset: 0x4A875, size: 0x8, addend: 0x0, symName: __ZNKSt3__110__function6__funcIZNK11ToppingList16getRandomToppingEvEUlvE0_NS_9allocatorIS3_EEFNS_10unique_ptrI7ToppingNS_14default_deleteIS7_EEEEvEE6targetERKSt9type_info, symObjAddr: 0x1AFE0, symBinAddr: 0x10001DEC0, symSize: 0x60 }
  - { offsetInCU: 0x4A8AC, offset: 0x4A8AC, size: 0x8, addend: 0x0, symName: __ZNKSt3__110__function6__funcIZNK11ToppingList16getRandomToppingEvEUlvE0_NS_9allocatorIS3_EEFNS_10unique_ptrI7ToppingNS_14default_deleteIS7_EEEEvEE11target_typeEv, symObjAddr: 0x1B040, symBinAddr: 0x10001DF20, symSize: 0x18 }
  - { offsetInCU: 0x4A8D4, offset: 0x4A8D4, size: 0x8, addend: 0x0, symName: __ZNSt3__110__function12__alloc_funcIZNK11ToppingList16getRandomToppingEvEUlvE0_NS_9allocatorIS3_EEFNS_10unique_ptrI7ToppingNS_14default_deleteIS7_EEEEvEEC2B8ue170006EOS3_OS5_, symObjAddr: 0x1B058, symBinAddr: 0x10001DF38, symSize: 0x5C }
  - { offsetInCU: 0x4A91A, offset: 0x4A91A, size: 0x8, addend: 0x0, symName: __ZNSt3__117__compressed_pairIZNK11ToppingList16getRandomToppingEvEUlvE0_NS_9allocatorIS2_EEEC1B8ue170006IJOS2_EJOS4_EEENS_21piecewise_construct_tENS_5tupleIJDpT_EEENSA_IJDpT0_EEE, symObjAddr: 0x1B10C, symBinAddr: 0x10001DFEC, symSize: 0x3C }
  - { offsetInCU: 0x4A984, offset: 0x4A984, size: 0x8, addend: 0x0, symName: __ZNSt3__15tupleIJOZNK11ToppingList16getRandomToppingEvEUlvE0_EEC1B8ue170006IJS2_ELi0EEEDpOT_, symObjAddr: 0x1B148, symBinAddr: 0x10001E028, symSize: 0x34 }
  - { offsetInCU: 0x4A9CE, offset: 0x4A9CE, size: 0x8, addend: 0x0, symName: __ZNSt3__15tupleIJOZNK11ToppingList16getRandomToppingEvEUlvE0_EEC2B8ue170006IJS2_ELi0EEEDpOT_, symObjAddr: 0x1B17C, symBinAddr: 0x10001E05C, symSize: 0x34 }
  - { offsetInCU: 0x4AA18, offset: 0x4AA18, size: 0x8, addend: 0x0, symName: __ZNSt3__112__tuple_implINS_15__tuple_indicesIJLm0EEEEJOZNK11ToppingList16getRandomToppingEvEUlvE0_EEC1B8ue170006IJLm0EEJS5_EJEJEJS4_EEENS1_IJXspT_EEEENS_13__tuple_typesIJDpT0_EEENS1_IJXspT1_EEEENS9_IJDpT2_EEEDpOT3_, symObjAddr: 0x1B1B0, symBinAddr: 0x10001E090, symSize: 0x34 }
  - { offsetInCU: 0x4AAAD, offset: 0x4AAAD, size: 0x8, addend: 0x0, symName: __ZNSt3__112__tuple_implINS_15__tuple_indicesIJLm0EEEEJOZNK11ToppingList16getRandomToppingEvEUlvE0_EEC2B8ue170006IJLm0EEJS5_EJEJEJS4_EEENS1_IJXspT_EEEENS_13__tuple_typesIJDpT0_EEENS1_IJXspT1_EEEENS9_IJDpT2_EEEDpOT3_, symObjAddr: 0x1B1E4, symBinAddr: 0x10001E0C4, symSize: 0x34 }
  - { offsetInCU: 0x4AB42, offset: 0x4AB42, size: 0x8, addend: 0x0, symName: __ZNSt3__112__tuple_leafILm0EOZNK11ToppingList16getRandomToppingEvEUlvE0_Lb0EEC2B8ue170006IS2_vEEOT_, symObjAddr: 0x1B218, symBinAddr: 0x10001E0F8, symSize: 0x20 }
  - { offsetInCU: 0x4AB85, offset: 0x4AB85, size: 0x8, addend: 0x0, symName: __ZNSt3__15tupleIJONS_9allocatorIZNK11ToppingList16getRandomToppingEvEUlvE0_EEEEC1B8ue170006IJS4_ELi0EEEDpOT_, symObjAddr: 0x1B238, symBinAddr: 0x10001E118, symSize: 0x34 }
  - { offsetInCU: 0x4ABCF, offset: 0x4ABCF, size: 0x8, addend: 0x0, symName: __ZNSt3__15tupleIJONS_9allocatorIZNK11ToppingList16getRandomToppingEvEUlvE0_EEEEC2B8ue170006IJS4_ELi0EEEDpOT_, symObjAddr: 0x1B26C, symBinAddr: 0x10001E14C, symSize: 0x34 }
  - { offsetInCU: 0x4AC19, offset: 0x4AC19, size: 0x8, addend: 0x0, symName: __ZNSt3__112__tuple_implINS_15__tuple_indicesIJLm0EEEEJONS_9allocatorIZNK11ToppingList16getRandomToppingEvEUlvE0_EEEEC1B8ue170006IJLm0EEJS7_EJEJEJS6_EEENS1_IJXspT_EEEENS_13__tuple_typesIJDpT0_EEENS1_IJXspT1_EEEENSB_IJDpT2_EEEDpOT3_, symObjAddr: 0x1B2A0, symBinAddr: 0x10001E180, symSize: 0x34 }
  - { offsetInCU: 0x4ACAE, offset: 0x4ACAE, size: 0x8, addend: 0x0, symName: __ZNSt3__112__tuple_implINS_15__tuple_indicesIJLm0EEEEJONS_9allocatorIZNK11ToppingList16getRandomToppingEvEUlvE0_EEEEC2B8ue170006IJLm0EEJS7_EJEJEJS6_EEENS1_IJXspT_EEEENS_13__tuple_typesIJDpT0_EEENS1_IJXspT1_EEEENSB_IJDpT2_EEEDpOT3_, symObjAddr: 0x1B2D4, symBinAddr: 0x10001E1B4, symSize: 0x34 }
  - { offsetInCU: 0x4AD43, offset: 0x4AD43, size: 0x8, addend: 0x0, symName: __ZNSt3__112__tuple_leafILm0EONS_9allocatorIZNK11ToppingList16getRandomToppingEvEUlvE0_EELb0EEC2B8ue170006IS4_vEEOT_, symObjAddr: 0x1B308, symBinAddr: 0x10001E1E8, symSize: 0x20 }
  - { offsetInCU: 0x4AD86, offset: 0x4AD86, size: 0x8, addend: 0x0, symName: __ZNSt3__117__compressed_pairIZNK11ToppingList16getRandomToppingEvEUlvE0_NS_9allocatorIS2_EEEC2B8ue170006IJOS2_EJOS4_EEENS_21piecewise_construct_tENS_5tupleIJDpT_EEENSA_IJDpT0_EEE, symObjAddr: 0x1B328, symBinAddr: 0x10001E208, symSize: 0x7C }
  - { offsetInCU: 0x4ADF0, offset: 0x4ADF0, size: 0x8, addend: 0x0, symName: __ZNSt3__122__compressed_pair_elemIZNK11ToppingList16getRandomToppingEvEUlvE0_Li0ELb0EEC2B8ue170006IJOS2_EJLm0EEEENS_21piecewise_construct_tENS_5tupleIJDpT_EEENS_15__tuple_indicesIJXspT0_EEEE, symObjAddr: 0x1B3A4, symBinAddr: 0x10001E284, symSize: 0x44 }
  - { offsetInCU: 0x4AE53, offset: 0x4AE53, size: 0x8, addend: 0x0, symName: __ZNSt3__122__compressed_pair_elemINS_9allocatorIZNK11ToppingList16getRandomToppingEvEUlvE0_EELi1ELb1EEC2B8ue170006IJOS4_EJLm0EEEENS_21piecewise_construct_tENS_5tupleIJDpT_EEENS_15__tuple_indicesIJXspT0_EEEE, symObjAddr: 0x1B3E8, symBinAddr: 0x10001E2C8, symSize: 0x38 }
  - { offsetInCU: 0x4AEB6, offset: 0x4AEB6, size: 0x8, addend: 0x0, symName: __ZNSt3__122__compressed_pair_elemIZNK11ToppingList16getRandomToppingEvEUlvE0_Li0ELb0EED2Ev, symObjAddr: 0x1B420, symBinAddr: 0x10001E300, symSize: 0x2C }
  - { offsetInCU: 0x4AEE2, offset: 0x4AEE2, size: 0x8, addend: 0x0, symName: __ZZNK11ToppingList16getRandomToppingEvENUlvE0_C1EOS0_, symObjAddr: 0x1B470, symBinAddr: 0x10001E350, symSize: 0x34 }
  - { offsetInCU: 0x4AF17, offset: 0x4AF17, size: 0x8, addend: 0x0, symName: __ZNSt3__112__tuple_leafILm0EOZNK11ToppingList16getRandomToppingEvEUlvE0_Lb0EE3getB8ue170006Ev, symObjAddr: 0x1B4A4, symBinAddr: 0x10001E384, symSize: 0x18 }
  - { offsetInCU: 0x4AF3D, offset: 0x4AF3D, size: 0x8, addend: 0x0, symName: __ZZNK11ToppingList16getRandomToppingEvENUlvE0_C2EOS0_, symObjAddr: 0x1B4BC, symBinAddr: 0x10001E39C, symSize: 0x34 }
  - { offsetInCU: 0x4AF72, offset: 0x4AF72, size: 0x8, addend: 0x0, symName: __ZNSt3__112__tuple_leafILm0EONS_9allocatorIZNK11ToppingList16getRandomToppingEvEUlvE0_EELb0EE3getB8ue170006Ev, symObjAddr: 0x1B514, symBinAddr: 0x10001E3F4, symSize: 0x18 }
  - { offsetInCU: 0x4AF98, offset: 0x4AF98, size: 0x8, addend: 0x0, symName: __ZNSt3__110__function6__funcIZNK11ToppingList16getRandomToppingEvEUlvE0_NS_9allocatorIS3_EEFNS_10unique_ptrI7ToppingNS_14default_deleteIS7_EEEEvEED2Ev, symObjAddr: 0x1B52C, symBinAddr: 0x10001E40C, symSize: 0x48 }
  - { offsetInCU: 0x4AFC5, offset: 0x4AFC5, size: 0x8, addend: 0x0, symName: __ZNSt3__110__function12__alloc_funcIZNK11ToppingList16getRandomToppingEvEUlvE0_NS_9allocatorIS3_EEFNS_10unique_ptrI7ToppingNS_14default_deleteIS7_EEEEvEED1Ev, symObjAddr: 0x1B574, symBinAddr: 0x10001E454, symSize: 0x2C }
  - { offsetInCU: 0x4AFF1, offset: 0x4AFF1, size: 0x8, addend: 0x0, symName: __ZNSt3__110__function12__alloc_funcIZNK11ToppingList16getRandomToppingEvEUlvE0_NS_9allocatorIS3_EEFNS_10unique_ptrI7ToppingNS_14default_deleteIS7_EEEEvEED2Ev, symObjAddr: 0x1B5A0, symBinAddr: 0x10001E480, symSize: 0x2C }
  - { offsetInCU: 0x4B01D, offset: 0x4B01D, size: 0x8, addend: 0x0, symName: __ZNSt3__117__compressed_pairIZNK11ToppingList16getRandomToppingEvEUlvE0_NS_9allocatorIS2_EEED1Ev, symObjAddr: 0x1B5CC, symBinAddr: 0x10001E4AC, symSize: 0x2C }
  - { offsetInCU: 0x4B049, offset: 0x4B049, size: 0x8, addend: 0x0, symName: __ZNSt3__117__compressed_pairIZNK11ToppingList16getRandomToppingEvEUlvE0_NS_9allocatorIS2_EEED2Ev, symObjAddr: 0x1B5F8, symBinAddr: 0x10001E4D8, symSize: 0x2C }
  - { offsetInCU: 0x4B075, offset: 0x4B075, size: 0x8, addend: 0x0, symName: __ZNKSt3__110__function12__alloc_funcIZNK11ToppingList16getRandomToppingEvEUlvE0_NS_9allocatorIS3_EEFNS_10unique_ptrI7ToppingNS_14default_deleteIS7_EEEEvEE15__get_allocatorB8ue170006Ev, symObjAddr: 0x1B624, symBinAddr: 0x10001E504, symSize: 0x24 }
  - { offsetInCU: 0x4B0CB, offset: 0x4B0CB, size: 0x8, addend: 0x0, symName: __ZNSt3__110unique_ptrINS_10__function6__funcIZNK11ToppingList16getRandomToppingEvEUlvE0_NS_9allocatorIS4_EEFNS0_I7ToppingNS_14default_deleteIS7_EEEEvEEENS_22__allocator_destructorINS5_ISC_EEEEEC1B8ue170006ILb1EvEEPSC_NS_16__dependent_typeINS_27__unique_ptr_deleter_sfinaeISF_EEXT_EE20__good_rval_ref_typeE, symObjAddr: 0x1B648, symBinAddr: 0x10001E528, symSize: 0x3C }
  - { offsetInCU: 0x4B11C, offset: 0x4B11C, size: 0x8, addend: 0x0, symName: __ZNKSt3__110unique_ptrINS_10__function6__funcIZNK11ToppingList16getRandomToppingEvEUlvE0_NS_9allocatorIS4_EEFNS0_I7ToppingNS_14default_deleteIS7_EEEEvEEENS_22__allocator_destructorINS5_ISC_EEEEE3getB8ue170006Ev, symObjAddr: 0x1B684, symBinAddr: 0x10001E564, symSize: 0x28 }
  - { offsetInCU: 0x4B142, offset: 0x4B142, size: 0x8, addend: 0x0, symName: __ZNKSt3__110__function12__alloc_funcIZNK11ToppingList16getRandomToppingEvEUlvE0_NS_9allocatorIS3_EEFNS_10unique_ptrI7ToppingNS_14default_deleteIS7_EEEEvEE8__targetB8ue170006Ev, symObjAddr: 0x1B6AC, symBinAddr: 0x10001E58C, symSize: 0x24 }
  - { offsetInCU: 0x4B16E, offset: 0x4B16E, size: 0x8, addend: 0x0, symName: __ZNSt3__19allocatorIZNK11ToppingList16getRandomToppingEvEUlvE0_EC1B8ue170006INS_10__function6__funcIS2_S3_FNS_10unique_ptrI7ToppingNS_14default_deleteIS8_EEEEvEEEEERKNS0_IT_EE, symObjAddr: 0x1B6D0, symBinAddr: 0x10001E5B0, symSize: 0x34 }
  - { offsetInCU: 0x4B1AB, offset: 0x4B1AB, size: 0x8, addend: 0x0, symName: __ZNSt3__110__function6__funcIZNK11ToppingList16getRandomToppingEvEUlvE0_NS_9allocatorIS3_EEFNS_10unique_ptrI7ToppingNS_14default_deleteIS7_EEEEvEEC1B8ue170006ERKS3_OS5_, symObjAddr: 0x1B704, symBinAddr: 0x10001E5E4, symSize: 0x3C }
  - { offsetInCU: 0x4B1F3, offset: 0x4B1F3, size: 0x8, addend: 0x0, symName: __ZNSt3__110unique_ptrINS_10__function6__funcIZNK11ToppingList16getRandomToppingEvEUlvE0_NS_9allocatorIS4_EEFNS0_I7ToppingNS_14default_deleteIS7_EEEEvEEENS_22__allocator_destructorINS5_ISC_EEEEE7releaseB8ue170006Ev, symObjAddr: 0x1B740, symBinAddr: 0x10001E620, symSize: 0x44 }
  - { offsetInCU: 0x4B228, offset: 0x4B228, size: 0x8, addend: 0x0, symName: __ZNSt3__110unique_ptrINS_10__function6__funcIZNK11ToppingList16getRandomToppingEvEUlvE0_NS_9allocatorIS4_EEFNS0_I7ToppingNS_14default_deleteIS7_EEEEvEEENS_22__allocator_destructorINS5_ISC_EEEEED1B8ue170006Ev, symObjAddr: 0x1B784, symBinAddr: 0x10001E664, symSize: 0x2C }
  - { offsetInCU: 0x4B252, offset: 0x4B252, size: 0x8, addend: 0x0, symName: __ZNKSt3__117__compressed_pairIZNK11ToppingList16getRandomToppingEvEUlvE0_NS_9allocatorIS2_EEE6secondB8ue170006Ev, symObjAddr: 0x1B7B0, symBinAddr: 0x10001E690, symSize: 0x24 }
  - { offsetInCU: 0x4B278, offset: 0x4B278, size: 0x8, addend: 0x0, symName: __ZNKSt3__122__compressed_pair_elemINS_9allocatorIZNK11ToppingList16getRandomToppingEvEUlvE0_EELi1ELb1EE5__getB8ue170006Ev, symObjAddr: 0x1B7D4, symBinAddr: 0x10001E6B4, symSize: 0x14 }
  - { offsetInCU: 0x4B29E, offset: 0x4B29E, size: 0x8, addend: 0x0, symName: __ZNSt3__110unique_ptrINS_10__function6__funcIZNK11ToppingList16getRandomToppingEvEUlvE0_NS_9allocatorIS4_EEFNS0_I7ToppingNS_14default_deleteIS7_EEEEvEEENS_22__allocator_destructorINS5_ISC_EEEEEC2B8ue170006ILb1EvEEPSC_NS_16__dependent_typeINS_27__unique_ptr_deleter_sfinaeISF_EEXT_EE20__good_rval_ref_typeE, symObjAddr: 0x1B7E8, symBinAddr: 0x10001E6C8, symSize: 0x48 }
  - { offsetInCU: 0x4B2EF, offset: 0x4B2EF, size: 0x8, addend: 0x0, symName: __ZNKSt3__117__compressed_pairIZNK11ToppingList16getRandomToppingEvEUlvE0_NS_9allocatorIS2_EEE5firstB8ue170006Ev, symObjAddr: 0x1B830, symBinAddr: 0x10001E710, symSize: 0x24 }
  - { offsetInCU: 0x4B315, offset: 0x4B315, size: 0x8, addend: 0x0, symName: __ZNKSt3__122__compressed_pair_elemIZNK11ToppingList16getRandomToppingEvEUlvE0_Li0ELb0EE5__getB8ue170006Ev, symObjAddr: 0x1B854, symBinAddr: 0x10001E734, symSize: 0x14 }
  - { offsetInCU: 0x4B33B, offset: 0x4B33B, size: 0x8, addend: 0x0, symName: __ZNSt3__19allocatorIZNK11ToppingList16getRandomToppingEvEUlvE0_EC2B8ue170006INS_10__function6__funcIS2_S3_FNS_10unique_ptrI7ToppingNS_14default_deleteIS8_EEEEvEEEEERKNS0_IT_EE, symObjAddr: 0x1B868, symBinAddr: 0x10001E748, symSize: 0x30 }
  - { offsetInCU: 0x4B378, offset: 0x4B378, size: 0x8, addend: 0x0, symName: __ZNSt3__110__function6__funcIZNK11ToppingList16getRandomToppingEvEUlvE0_NS_9allocatorIS3_EEFNS_10unique_ptrI7ToppingNS_14default_deleteIS7_EEEEvEEC2B8ue170006ERKS3_OS5_, symObjAddr: 0x1B898, symBinAddr: 0x10001E778, symSize: 0x88 }
  - { offsetInCU: 0x4B3C0, offset: 0x4B3C0, size: 0x8, addend: 0x0, symName: __ZNSt3__110__function12__alloc_funcIZNK11ToppingList16getRandomToppingEvEUlvE0_NS_9allocatorIS3_EEFNS_10unique_ptrI7ToppingNS_14default_deleteIS7_EEEEvEEC1B8ue170006ERKS3_OS5_, symObjAddr: 0x1B920, symBinAddr: 0x10001E800, symSize: 0x3C }
  - { offsetInCU: 0x4B406, offset: 0x4B406, size: 0x8, addend: 0x0, symName: __ZNSt3__110__function12__alloc_funcIZNK11ToppingList16getRandomToppingEvEUlvE0_NS_9allocatorIS3_EEFNS_10unique_ptrI7ToppingNS_14default_deleteIS7_EEEEvEEC2B8ue170006ERKS3_OS5_, symObjAddr: 0x1B95C, symBinAddr: 0x10001E83C, symSize: 0x5C }
  - { offsetInCU: 0x4B44C, offset: 0x4B44C, size: 0x8, addend: 0x0, symName: __ZNSt3__117__compressed_pairIZNK11ToppingList16getRandomToppingEvEUlvE0_NS_9allocatorIS2_EEEC1B8ue170006IJRKS2_EJOS4_EEENS_21piecewise_construct_tENS_5tupleIJDpT_EEENSB_IJDpT0_EEE, symObjAddr: 0x1B9E4, symBinAddr: 0x10001E8C4, symSize: 0x3C }
  - { offsetInCU: 0x4B4B6, offset: 0x4B4B6, size: 0x8, addend: 0x0, symName: __ZNSt3__15tupleIJRKZNK11ToppingList16getRandomToppingEvEUlvE0_EEC1B8ue170006INS_4_AndELi0EEES4_, symObjAddr: 0x1BA20, symBinAddr: 0x10001E900, symSize: 0x34 }
  - { offsetInCU: 0x4B4FE, offset: 0x4B4FE, size: 0x8, addend: 0x0, symName: __ZNSt3__15tupleIJRKZNK11ToppingList16getRandomToppingEvEUlvE0_EEC2B8ue170006INS_4_AndELi0EEES4_, symObjAddr: 0x1BA54, symBinAddr: 0x10001E934, symSize: 0x34 }
  - { offsetInCU: 0x4B546, offset: 0x4B546, size: 0x8, addend: 0x0, symName: __ZNSt3__112__tuple_implINS_15__tuple_indicesIJLm0EEEEJRKZNK11ToppingList16getRandomToppingEvEUlvE0_EEC1B8ue170006IJLm0EEJS6_EJEJEJS6_EEENS1_IJXspT_EEEENS_13__tuple_typesIJDpT0_EEENS1_IJXspT1_EEEENSA_IJDpT2_EEEDpOT3_, symObjAddr: 0x1BA88, symBinAddr: 0x10001E968, symSize: 0x34 }
  - { offsetInCU: 0x4B5DB, offset: 0x4B5DB, size: 0x8, addend: 0x0, symName: __ZNSt3__112__tuple_implINS_15__tuple_indicesIJLm0EEEEJRKZNK11ToppingList16getRandomToppingEvEUlvE0_EEC2B8ue170006IJLm0EEJS6_EJEJEJS6_EEENS1_IJXspT_EEEENS_13__tuple_typesIJDpT0_EEENS1_IJXspT1_EEEENSA_IJDpT2_EEEDpOT3_, symObjAddr: 0x1BABC, symBinAddr: 0x10001E99C, symSize: 0x34 }
  - { offsetInCU: 0x4B670, offset: 0x4B670, size: 0x8, addend: 0x0, symName: __ZNSt3__112__tuple_leafILm0ERKZNK11ToppingList16getRandomToppingEvEUlvE0_Lb0EEC2B8ue170006IS4_vEEOT_, symObjAddr: 0x1BAF0, symBinAddr: 0x10001E9D0, symSize: 0x20 }
  - { offsetInCU: 0x4B6B3, offset: 0x4B6B3, size: 0x8, addend: 0x0, symName: __ZNSt3__117__compressed_pairIZNK11ToppingList16getRandomToppingEvEUlvE0_NS_9allocatorIS2_EEEC2B8ue170006IJRKS2_EJOS4_EEENS_21piecewise_construct_tENS_5tupleIJDpT_EEENSB_IJDpT0_EEE, symObjAddr: 0x1BB10, symBinAddr: 0x10001E9F0, symSize: 0x54 }
  - { offsetInCU: 0x4B71D, offset: 0x4B71D, size: 0x8, addend: 0x0, symName: __ZNSt3__122__compressed_pair_elemIZNK11ToppingList16getRandomToppingEvEUlvE0_Li0ELb0EEC2B8ue170006IJRKS2_EJLm0EEEENS_21piecewise_construct_tENS_5tupleIJDpT_EEENS_15__tuple_indicesIJXspT0_EEEE, symObjAddr: 0x1BB64, symBinAddr: 0x10001EA44, symSize: 0x44 }
  - { offsetInCU: 0x4B780, offset: 0x4B780, size: 0x8, addend: 0x0, symName: __ZZNK11ToppingList16getRandomToppingEvENUlvE0_C1ERKS0_, symObjAddr: 0x1BBCC, symBinAddr: 0x10001EAAC, symSize: 0x34 }
  - { offsetInCU: 0x4B7B5, offset: 0x4B7B5, size: 0x8, addend: 0x0, symName: __ZNSt3__112__tuple_leafILm0ERKZNK11ToppingList16getRandomToppingEvEUlvE0_Lb0EE3getB8ue170006Ev, symObjAddr: 0x1BC00, symBinAddr: 0x10001EAE0, symSize: 0x18 }
  - { offsetInCU: 0x4B7DB, offset: 0x4B7DB, size: 0x8, addend: 0x0, symName: __ZZNK11ToppingList16getRandomToppingEvENUlvE0_C2ERKS0_, symObjAddr: 0x1BC18, symBinAddr: 0x10001EAF8, symSize: 0x34 }
  - { offsetInCU: 0x4B810, offset: 0x4B810, size: 0x8, addend: 0x0, symName: __ZNSt3__117__compressed_pairIPNS_10__function6__funcIZNK11ToppingList16getRandomToppingEvEUlvE0_NS_9allocatorIS4_EEFNS_10unique_ptrI7ToppingNS_14default_deleteIS8_EEEEvEEENS_22__allocator_destructorINS5_ISD_EEEEE5firstB8ue170006Ev, symObjAddr: 0x1BC4C, symBinAddr: 0x10001EB2C, symSize: 0x24 }
  - { offsetInCU: 0x4B836, offset: 0x4B836, size: 0x8, addend: 0x0, symName: __ZNSt3__122__compressed_pair_elemIPNS_10__function6__funcIZNK11ToppingList16getRandomToppingEvEUlvE0_NS_9allocatorIS4_EEFNS_10unique_ptrI7ToppingNS_14default_deleteIS8_EEEEvEEELi0ELb0EE5__getB8ue170006Ev, symObjAddr: 0x1BC70, symBinAddr: 0x10001EB50, symSize: 0x14 }
  - { offsetInCU: 0x4B85C, offset: 0x4B85C, size: 0x8, addend: 0x0, symName: __ZNSt3__110unique_ptrINS_10__function6__funcIZNK11ToppingList16getRandomToppingEvEUlvE0_NS_9allocatorIS4_EEFNS0_I7ToppingNS_14default_deleteIS7_EEEEvEEENS_22__allocator_destructorINS5_ISC_EEEEED2B8ue170006Ev, symObjAddr: 0x1BC84, symBinAddr: 0x10001EB64, symSize: 0x30 }
  - { offsetInCU: 0x4B886, offset: 0x4B886, size: 0x8, addend: 0x0, symName: __ZNSt3__110unique_ptrINS_10__function6__funcIZNK11ToppingList16getRandomToppingEvEUlvE0_NS_9allocatorIS4_EEFNS0_I7ToppingNS_14default_deleteIS7_EEEEvEEENS_22__allocator_destructorINS5_ISC_EEEEE5resetB8ue170006EPSC_, symObjAddr: 0x1BCB4, symBinAddr: 0x10001EB94, symSize: 0x78 }
  - { offsetInCU: 0x4B8CA, offset: 0x4B8CA, size: 0x8, addend: 0x0, symName: __ZNSt3__117__compressed_pairIPNS_10__function6__funcIZNK11ToppingList16getRandomToppingEvEUlvE0_NS_9allocatorIS4_EEFNS_10unique_ptrI7ToppingNS_14default_deleteIS8_EEEEvEEENS_22__allocator_destructorINS5_ISD_EEEEE6secondB8ue170006Ev, symObjAddr: 0x1BD2C, symBinAddr: 0x10001EC0C, symSize: 0x28 }
  - { offsetInCU: 0x4B8F0, offset: 0x4B8F0, size: 0x8, addend: 0x0, symName: __ZNSt3__122__allocator_destructorINS_9allocatorINS_10__function6__funcIZNK11ToppingList16getRandomToppingEvEUlvE0_NS1_IS5_EEFNS_10unique_ptrI7ToppingNS_14default_deleteIS8_EEEEvEEEEEEclB8ue170006EPSD_, symObjAddr: 0x1BD54, symBinAddr: 0x10001EC34, symSize: 0x34 }
  - { offsetInCU: 0x4B924, offset: 0x4B924, size: 0x8, addend: 0x0, symName: __ZNSt3__122__compressed_pair_elemINS_22__allocator_destructorINS_9allocatorINS_10__function6__funcIZNK11ToppingList16getRandomToppingEvEUlvE0_NS2_IS6_EEFNS_10unique_ptrI7ToppingNS_14default_deleteIS9_EEEEvEEEEEEELi1ELb0EE5__getB8ue170006Ev, symObjAddr: 0x1BD88, symBinAddr: 0x10001EC68, symSize: 0x14 }
  - { offsetInCU: 0x4B94A, offset: 0x4B94A, size: 0x8, addend: 0x0, symName: __ZNSt3__116allocator_traitsINS_9allocatorINS_10__function6__funcIZNK11ToppingList16getRandomToppingEvEUlvE0_NS1_IS5_EEFNS_10unique_ptrI7ToppingNS_14default_deleteIS8_EEEEvEEEEEE10deallocateB8ue170006ERSE_PSD_m, symObjAddr: 0x1BD9C, symBinAddr: 0x10001EC7C, symSize: 0x34 }
  - { offsetInCU: 0x4B98C, offset: 0x4B98C, size: 0x8, addend: 0x0, symName: __ZNSt3__19allocatorINS_10__function6__funcIZNK11ToppingList16getRandomToppingEvEUlvE0_NS0_IS4_EEFNS_10unique_ptrI7ToppingNS_14default_deleteIS7_EEEEvEEEE10deallocateB8ue170006EPSC_m, symObjAddr: 0x1BDD0, symBinAddr: 0x10001ECB0, symSize: 0x44 }
  - { offsetInCU: 0x4B9CE, offset: 0x4B9CE, size: 0x8, addend: 0x0, symName: __ZNSt3__110__function6__funcIZNK11ToppingList16getRandomToppingEvEUlvE0_NS_9allocatorIS3_EEFNS_10unique_ptrI7ToppingNS_14default_deleteIS7_EEEEvEEC1B8ue170006ERKS3_RKS5_, symObjAddr: 0x1BE14, symBinAddr: 0x10001ECF4, symSize: 0x3C }
  - { offsetInCU: 0x4BA16, offset: 0x4BA16, size: 0x8, addend: 0x0, symName: __ZNSt3__110__function6__funcIZNK11ToppingList16getRandomToppingEvEUlvE0_NS_9allocatorIS3_EEFNS_10unique_ptrI7ToppingNS_14default_deleteIS7_EEEEvEEC2B8ue170006ERKS3_RKS5_, symObjAddr: 0x1BE50, symBinAddr: 0x10001ED30, symSize: 0x88 }
  - { offsetInCU: 0x4BA5E, offset: 0x4BA5E, size: 0x8, addend: 0x0, symName: __ZNSt3__110__function12__alloc_funcIZNK11ToppingList16getRandomToppingEvEUlvE0_NS_9allocatorIS3_EEFNS_10unique_ptrI7ToppingNS_14default_deleteIS7_EEEEvEEC1B8ue170006ERKS3_RKS5_, symObjAddr: 0x1BED8, symBinAddr: 0x10001EDB8, symSize: 0x3C }
  - { offsetInCU: 0x4BAA4, offset: 0x4BAA4, size: 0x8, addend: 0x0, symName: __ZNSt3__110__function12__alloc_funcIZNK11ToppingList16getRandomToppingEvEUlvE0_NS_9allocatorIS3_EEFNS_10unique_ptrI7ToppingNS_14default_deleteIS7_EEEEvEEC2B8ue170006ERKS3_RKS5_, symObjAddr: 0x1BF14, symBinAddr: 0x10001EDF4, symSize: 0x5C }
  - { offsetInCU: 0x4BAEA, offset: 0x4BAEA, size: 0x8, addend: 0x0, symName: __ZNSt3__117__compressed_pairIZNK11ToppingList16getRandomToppingEvEUlvE0_NS_9allocatorIS2_EEEC1B8ue170006IJRKS2_EJRKS4_EEENS_21piecewise_construct_tENS_5tupleIJDpT_EEENSC_IJDpT0_EEE, symObjAddr: 0x1BF9C, symBinAddr: 0x10001EE7C, symSize: 0x3C }
  - { offsetInCU: 0x4BB54, offset: 0x4BB54, size: 0x8, addend: 0x0, symName: __ZNSt3__15tupleIJRKNS_9allocatorIZNK11ToppingList16getRandomToppingEvEUlvE0_EEEEC1B8ue170006INS_4_AndELi0EEES6_, symObjAddr: 0x1BFD8, symBinAddr: 0x10001EEB8, symSize: 0x34 }
  - { offsetInCU: 0x4BB9C, offset: 0x4BB9C, size: 0x8, addend: 0x0, symName: __ZNSt3__15tupleIJRKNS_9allocatorIZNK11ToppingList16getRandomToppingEvEUlvE0_EEEEC2B8ue170006INS_4_AndELi0EEES6_, symObjAddr: 0x1C00C, symBinAddr: 0x10001EEEC, symSize: 0x34 }
  - { offsetInCU: 0x4BBE4, offset: 0x4BBE4, size: 0x8, addend: 0x0, symName: __ZNSt3__112__tuple_implINS_15__tuple_indicesIJLm0EEEEJRKNS_9allocatorIZNK11ToppingList16getRandomToppingEvEUlvE0_EEEEC1B8ue170006IJLm0EEJS8_EJEJEJS8_EEENS1_IJXspT_EEEENS_13__tuple_typesIJDpT0_EEENS1_IJXspT1_EEEENSC_IJDpT2_EEEDpOT3_, symObjAddr: 0x1C040, symBinAddr: 0x10001EF20, symSize: 0x34 }
  - { offsetInCU: 0x4BC79, offset: 0x4BC79, size: 0x8, addend: 0x0, symName: __ZNSt3__112__tuple_implINS_15__tuple_indicesIJLm0EEEEJRKNS_9allocatorIZNK11ToppingList16getRandomToppingEvEUlvE0_EEEEC2B8ue170006IJLm0EEJS8_EJEJEJS8_EEENS1_IJXspT_EEEENS_13__tuple_typesIJDpT0_EEENS1_IJXspT1_EEEENSC_IJDpT2_EEEDpOT3_, symObjAddr: 0x1C074, symBinAddr: 0x10001EF54, symSize: 0x34 }
  - { offsetInCU: 0x4BD0E, offset: 0x4BD0E, size: 0x8, addend: 0x0, symName: __ZNSt3__112__tuple_leafILm0ERKNS_9allocatorIZNK11ToppingList16getRandomToppingEvEUlvE0_EELb0EEC2B8ue170006IS6_vEEOT_, symObjAddr: 0x1C0A8, symBinAddr: 0x10001EF88, symSize: 0x20 }
  - { offsetInCU: 0x4BD51, offset: 0x4BD51, size: 0x8, addend: 0x0, symName: __ZNSt3__117__compressed_pairIZNK11ToppingList16getRandomToppingEvEUlvE0_NS_9allocatorIS2_EEEC2B8ue170006IJRKS2_EJRKS4_EEENS_21piecewise_construct_tENS_5tupleIJDpT_EEENSC_IJDpT0_EEE, symObjAddr: 0x1C0C8, symBinAddr: 0x10001EFA8, symSize: 0x7C }
  - { offsetInCU: 0x4BDBB, offset: 0x4BDBB, size: 0x8, addend: 0x0, symName: __ZNSt3__122__compressed_pair_elemINS_9allocatorIZNK11ToppingList16getRandomToppingEvEUlvE0_EELi1ELb1EEC2B8ue170006IJRKS4_EJLm0EEEENS_21piecewise_construct_tENS_5tupleIJDpT_EEENS_15__tuple_indicesIJXspT0_EEEE, symObjAddr: 0x1C144, symBinAddr: 0x10001F024, symSize: 0x38 }
  - { offsetInCU: 0x4BE1E, offset: 0x4BE1E, size: 0x8, addend: 0x0, symName: __ZNSt3__112__tuple_leafILm0ERKNS_9allocatorIZNK11ToppingList16getRandomToppingEvEUlvE0_EELb0EE3getB8ue170006Ev, symObjAddr: 0x1C1A0, symBinAddr: 0x10001F080, symSize: 0x18 }
  - { offsetInCU: 0x4BE44, offset: 0x4BE44, size: 0x8, addend: 0x0, symName: __ZNSt3__110__function12__alloc_funcIZNK11ToppingList16getRandomToppingEvEUlvE0_NS_9allocatorIS3_EEFNS_10unique_ptrI7ToppingNS_14default_deleteIS7_EEEEvEE7destroyB8ue170006Ev, symObjAddr: 0x1C1B8, symBinAddr: 0x10001F098, symSize: 0x24 }
  - { offsetInCU: 0x4BE6A, offset: 0x4BE6A, size: 0x8, addend: 0x0, symName: __ZNSt3__110__function12__alloc_funcIZNK11ToppingList16getRandomToppingEvEUlvE0_NS_9allocatorIS3_EEFNS_10unique_ptrI7ToppingNS_14default_deleteIS7_EEEEvEEclB8ue170006Ev, symObjAddr: 0x1C1DC, symBinAddr: 0x10001F0BC, symSize: 0x34 }
  - { offsetInCU: 0x4BE90, offset: 0x4BE90, size: 0x8, addend: 0x0, symName: __ZNSt3__128__invoke_void_return_wrapperINS_10unique_ptrI7ToppingNS_14default_deleteIS2_EEEELb0EE6__callB8ue170006IJRZNK11ToppingList16getRandomToppingEvEUlvE0_EEES5_DpOT_, symObjAddr: 0x1C210, symBinAddr: 0x10001F0F0, symSize: 0x48 }
  - { offsetInCU: 0x4BEBF, offset: 0x4BEBF, size: 0x8, addend: 0x0, symName: __ZNSt3__117__compressed_pairIZNK11ToppingList16getRandomToppingEvEUlvE0_NS_9allocatorIS2_EEE5firstB8ue170006Ev, symObjAddr: 0x1C258, symBinAddr: 0x10001F138, symSize: 0x24 }
  - { offsetInCU: 0x4BEE5, offset: 0x4BEE5, size: 0x8, addend: 0x0, symName: __ZNSt3__110unique_ptrI7ToppingNS_14default_deleteIS1_EEEC1B8ue170006I12SweetToppingNS2_IS6_EEvvEEONS0_IT_T0_EE, symObjAddr: 0x1C2A8, symBinAddr: 0x10001F188, symSize: 0x34 }
  - { offsetInCU: 0x4BF31, offset: 0x4BF31, size: 0x8, addend: 0x0, symName: __ZNSt3__110unique_ptrI12SweetToppingNS_14default_deleteIS1_EEED1B8ue170006Ev, symObjAddr: 0x1C2DC, symBinAddr: 0x10001F1BC, symSize: 0x2C }
  - { offsetInCU: 0x4BF61, offset: 0x4BF61, size: 0x8, addend: 0x0, symName: __ZZNK11ToppingList16getRandomToppingEvENKUlvE0_clEv, symObjAddr: 0x1C308, symBinAddr: 0x10001F1E8, symSize: 0x2C }
  - { offsetInCU: 0x4BF8B, offset: 0x4BF8B, size: 0x8, addend: 0x0, symName: __ZNKSt3__18functionIFNS_10unique_ptrI12SweetToppingNS_14default_deleteIS2_EEEEvEEclEv, symObjAddr: 0x1C334, symBinAddr: 0x10001F214, symSize: 0x2C }
  - { offsetInCU: 0x4BFB3, offset: 0x4BFB3, size: 0x8, addend: 0x0, symName: __ZNKSt3__110__function12__value_funcIFNS_10unique_ptrI12SweetToppingNS_14default_deleteIS3_EEEEvEEclB8ue170006Ev, symObjAddr: 0x1C360, symBinAddr: 0x10001F240, symSize: 0x5C }
  - { offsetInCU: 0x4BFD9, offset: 0x4BFD9, size: 0x8, addend: 0x0, symName: __ZNSt3__110unique_ptrI7ToppingNS_14default_deleteIS1_EEEC2B8ue170006I12SweetToppingNS2_IS6_EEvvEEONS0_IT_T0_EE, symObjAddr: 0x1C3BC, symBinAddr: 0x10001F29C, symSize: 0x60 }
  - { offsetInCU: 0x4C025, offset: 0x4C025, size: 0x8, addend: 0x0, symName: __ZNSt3__110unique_ptrI12SweetToppingNS_14default_deleteIS1_EEE7releaseB8ue170006Ev, symObjAddr: 0x1C41C, symBinAddr: 0x10001F2FC, symSize: 0x44 }
  - { offsetInCU: 0x4C05A, offset: 0x4C05A, size: 0x8, addend: 0x0, symName: __ZNSt3__110unique_ptrI12SweetToppingNS_14default_deleteIS1_EEE11get_deleterB8ue170006Ev, symObjAddr: 0x1C460, symBinAddr: 0x10001F340, symSize: 0x24 }
  - { offsetInCU: 0x4C08C, offset: 0x4C08C, size: 0x8, addend: 0x0, symName: __ZNSt3__117__compressed_pairIP7ToppingNS_14default_deleteIS1_EEEC1B8ue170006IP12SweetToppingNS3_IS7_EEEEOT_OT0_, symObjAddr: 0x1C484, symBinAddr: 0x10001F364, symSize: 0x3C }
  - { offsetInCU: 0x4C0E4, offset: 0x4C0E4, size: 0x8, addend: 0x0, symName: __ZNSt3__117__compressed_pairIP12SweetToppingNS_14default_deleteIS1_EEE5firstB8ue170006Ev, symObjAddr: 0x1C4C0, symBinAddr: 0x10001F3A0, symSize: 0x24 }
  - { offsetInCU: 0x4C10A, offset: 0x4C10A, size: 0x8, addend: 0x0, symName: __ZNSt3__122__compressed_pair_elemIP12SweetToppingLi0ELb0EE5__getB8ue170006Ev, symObjAddr: 0x1C4E4, symBinAddr: 0x10001F3C4, symSize: 0x14 }
  - { offsetInCU: 0x4C130, offset: 0x4C130, size: 0x8, addend: 0x0, symName: __ZNSt3__117__compressed_pairIP12SweetToppingNS_14default_deleteIS1_EEE6secondB8ue170006Ev, symObjAddr: 0x1C4F8, symBinAddr: 0x10001F3D8, symSize: 0x24 }
  - { offsetInCU: 0x4C156, offset: 0x4C156, size: 0x8, addend: 0x0, symName: __ZNSt3__122__compressed_pair_elemINS_14default_deleteI12SweetToppingEELi1ELb1EE5__getB8ue170006Ev, symObjAddr: 0x1C51C, symBinAddr: 0x10001F3FC, symSize: 0x14 }
  - { offsetInCU: 0x4C17C, offset: 0x4C17C, size: 0x8, addend: 0x0, symName: __ZNSt3__117__compressed_pairIP7ToppingNS_14default_deleteIS1_EEEC2B8ue170006IP12SweetToppingNS3_IS7_EEEEOT_OT0_, symObjAddr: 0x1C530, symBinAddr: 0x10001F410, symSize: 0x44 }
  - { offsetInCU: 0x4C1D4, offset: 0x4C1D4, size: 0x8, addend: 0x0, symName: __ZNSt3__122__compressed_pair_elemIP7ToppingLi0ELb0EEC2B8ue170006IP12SweetToppingvEEOT_, symObjAddr: 0x1C574, symBinAddr: 0x10001F454, symSize: 0x24 }
  - { offsetInCU: 0x4C216, offset: 0x4C216, size: 0x8, addend: 0x0, symName: __ZNSt3__122__compressed_pair_elemINS_14default_deleteI7ToppingEELi1ELb1EEC2B8ue170006INS1_I12SweetToppingEEvEEOT_, symObjAddr: 0x1C598, symBinAddr: 0x10001F478, symSize: 0x38 }
  - { offsetInCU: 0x4C258, offset: 0x4C258, size: 0x8, addend: 0x0, symName: __ZNSt3__114default_deleteI7ToppingEC2B8ue170006I12SweetToppingEERKNS0_IT_EEPNS_9enable_ifIXsr14is_convertibleIPS5_PS1_EE5valueEvE4typeE, symObjAddr: 0x1C5D0, symBinAddr: 0x10001F4B0, symSize: 0x1C }
  - { offsetInCU: 0x4C29F, offset: 0x4C29F, size: 0x8, addend: 0x0, symName: __ZNSt3__110unique_ptrI12SweetToppingNS_14default_deleteIS1_EEED2B8ue170006Ev, symObjAddr: 0x1C5EC, symBinAddr: 0x10001F4CC, symSize: 0x30 }
  - { offsetInCU: 0x4C2C9, offset: 0x4C2C9, size: 0x8, addend: 0x0, symName: __ZNSt3__110unique_ptrI12SweetToppingNS_14default_deleteIS1_EEE5resetB8ue170006EPS1_, symObjAddr: 0x1C61C, symBinAddr: 0x10001F4FC, symSize: 0x78 }
  - { offsetInCU: 0x4C30D, offset: 0x4C30D, size: 0x8, addend: 0x0, symName: __ZNKSt3__114default_deleteI12SweetToppingEclB8ue170006EPS1_, symObjAddr: 0x1C694, symBinAddr: 0x10001F574, symSize: 0x4C }
  - { offsetInCU: 0x4C341, offset: 0x4C341, size: 0x8, addend: 0x0, symName: __ZNSt3__122__compressed_pair_elemIZNK11ToppingList16getRandomToppingEvEUlvE0_Li0ELb0EE5__getB8ue170006Ev, symObjAddr: 0x1C6E0, symBinAddr: 0x10001F5C0, symSize: 0x14 }
  - { offsetInCU: 0x4C367, offset: 0x4C367, size: 0x8, addend: 0x0, symName: __ZNSt3__110unique_ptrINS_10__function6__baseIFNS0_I7ToppingNS_14default_deleteIS3_EEEEvEEENS_22__allocator_destructorINS_9allocatorINS1_6__funcIZNK11ToppingList16getRandomToppingEvEUlvE0_NSA_ISD_EES7_EEEEEEED2B8ue170006Ev, symObjAddr: 0x1C6F4, symBinAddr: 0x10001F5D4, symSize: 0x30 }
  - { offsetInCU: 0x4C391, offset: 0x4C391, size: 0x8, addend: 0x0, symName: __ZNSt3__110unique_ptrINS_10__function6__baseIFNS0_I7ToppingNS_14default_deleteIS3_EEEEvEEENS_22__allocator_destructorINS_9allocatorINS1_6__funcIZNK11ToppingList16getRandomToppingEvEUlvE0_NSA_ISD_EES7_EEEEEEE5resetB8ue170006EPSF_, symObjAddr: 0x1C724, symBinAddr: 0x10001F604, symSize: 0x78 }
  - { offsetInCU: 0x4C3D5, offset: 0x4C3D5, size: 0x8, addend: 0x0, symName: __ZZNK11ToppingList16getRandomToppingEvENUlvE0_D2Ev, symObjAddr: 0x1C79C, symBinAddr: 0x10001F67C, symSize: 0x2C }
  - { offsetInCU: 0x4C401, offset: 0x4C401, size: 0x8, addend: 0x0, symName: __ZNKSt3__110__function12__value_funcIFNS_10unique_ptrI7ToppingNS_14default_deleteIS3_EEEEvEEclB8ue170006Ev, symObjAddr: 0x1C7C8, symBinAddr: 0x10001F6A8, symSize: 0x5C }
  - { offsetInCU: 0x4C427, offset: 0x4C427, size: 0x8, addend: 0x0, symName: __ZNSt3__16vectorINS_8functionIFNS_10unique_ptrI7ToppingNS_14default_deleteIS3_EEEEvEEENS_9allocatorIS8_EEED2B8ue170006Ev, symObjAddr: 0x1C824, symBinAddr: 0x10001F704, symSize: 0x44 }
  - { offsetInCU: 0x4C451, offset: 0x4C451, size: 0x8, addend: 0x0, symName: __ZNSt3__16vectorINS_8functionIFNS_10unique_ptrI7ToppingNS_14default_deleteIS3_EEEEvEEENS_9allocatorIS8_EEE16__destroy_vectorC1B8ue170006ERSB_, symObjAddr: 0x1C868, symBinAddr: 0x10001F748, symSize: 0x34 }
  - { offsetInCU: 0x4C48A, offset: 0x4C48A, size: 0x8, addend: 0x0, symName: __ZNSt3__16vectorINS_8functionIFNS_10unique_ptrI7ToppingNS_14default_deleteIS3_EEEEvEEENS_9allocatorIS8_EEE16__destroy_vectorclB8ue170006Ev, symObjAddr: 0x1C89C, symBinAddr: 0x10001F77C, symSize: 0x90 }
  - { offsetInCU: 0x4C4B0, offset: 0x4C4B0, size: 0x8, addend: 0x0, symName: __ZNSt3__16vectorINS_8functionIFNS_10unique_ptrI7ToppingNS_14default_deleteIS3_EEEEvEEENS_9allocatorIS8_EEE16__destroy_vectorC2B8ue170006ERSB_, symObjAddr: 0x1C92C, symBinAddr: 0x10001F80C, symSize: 0x20 }
  - { offsetInCU: 0x4C4E9, offset: 0x4C4E9, size: 0x8, addend: 0x0, symName: __ZNSt3__16vectorINS_8functionIFNS_10unique_ptrI7ToppingNS_14default_deleteIS3_EEEEvEEENS_9allocatorIS8_EEE7__clearB8ue170006Ev, symObjAddr: 0x1C94C, symBinAddr: 0x10001F82C, symSize: 0x28 }
  - { offsetInCU: 0x4C50F, offset: 0x4C50F, size: 0x8, addend: 0x0, symName: __ZNSt3__16vectorINS_8functionIFNS_10unique_ptrI7ToppingNS_14default_deleteIS3_EEEEvEEENS_9allocatorIS8_EEE22__base_destruct_at_endB8ue170006EPS8_, symObjAddr: 0x1C974, symBinAddr: 0x10001F854, symSize: 0x8C }
  - { offsetInCU: 0x4C553, offset: 0x4C553, size: 0x8, addend: 0x0, symName: __ZNSt3__110unique_ptrI7ToppingNS_14default_deleteIS1_EEEC1B8ue170006EOS4_, symObjAddr: 0x1CA00, symBinAddr: 0x10001F8E0, symSize: 0x34 }
  - { offsetInCU: 0x4C58B, offset: 0x4C58B, size: 0x8, addend: 0x0, symName: __ZN5OrderC1ENSt3__112basic_stringIcNS0_11char_traitsIcEENS0_9allocatorIcEEEENS0_10unique_ptrI7ToppingNS0_14default_deleteIS8_EEEES6_, symObjAddr: 0x1CA34, symBinAddr: 0x10001F914, symSize: 0x44 }
  - { offsetInCU: 0x4C5E2, offset: 0x4C5E2, size: 0x8, addend: 0x0, symName: __ZNSt3__110unique_ptrI5OrderNS_14default_deleteIS1_EEEC1B8ue170006ILb1EvEEPS1_, symObjAddr: 0x1CA78, symBinAddr: 0x10001F958, symSize: 0x34 }
  - { offsetInCU: 0x4C625, offset: 0x4C625, size: 0x8, addend: 0x0, symName: __ZNSt3__110unique_ptrI7ToppingNS_14default_deleteIS1_EEEC2B8ue170006EOS4_, symObjAddr: 0x1CAAC, symBinAddr: 0x10001F98C, symSize: 0x60 }
  - { offsetInCU: 0x4C65D, offset: 0x4C65D, size: 0x8, addend: 0x0, symName: __ZNSt3__110unique_ptrI7ToppingNS_14default_deleteIS1_EEE7releaseB8ue170006Ev, symObjAddr: 0x1CB0C, symBinAddr: 0x10001F9EC, symSize: 0x44 }
  - { offsetInCU: 0x4C692, offset: 0x4C692, size: 0x8, addend: 0x0, symName: __ZNSt3__110unique_ptrI7ToppingNS_14default_deleteIS1_EEE11get_deleterB8ue170006Ev, symObjAddr: 0x1CB50, symBinAddr: 0x10001FA30, symSize: 0x24 }
  - { offsetInCU: 0x4C6C4, offset: 0x4C6C4, size: 0x8, addend: 0x0, symName: __ZNSt3__117__compressed_pairIP7ToppingNS_14default_deleteIS1_EEEC1B8ue170006IS2_S4_EEOT_OT0_, symObjAddr: 0x1CB74, symBinAddr: 0x10001FA54, symSize: 0x3C }
  - { offsetInCU: 0x4C71C, offset: 0x4C71C, size: 0x8, addend: 0x0, symName: __ZNSt3__117__compressed_pairIP7ToppingNS_14default_deleteIS1_EEEC2B8ue170006IS2_S4_EEOT_OT0_, symObjAddr: 0x1CBB0, symBinAddr: 0x10001FA90, symSize: 0x44 }
  - { offsetInCU: 0x4C774, offset: 0x4C774, size: 0x8, addend: 0x0, symName: __ZNSt3__122__compressed_pair_elemIP7ToppingLi0ELb0EEC2B8ue170006IS2_vEEOT_, symObjAddr: 0x1CBF4, symBinAddr: 0x10001FAD4, symSize: 0x24 }
  - { offsetInCU: 0x4C7B6, offset: 0x4C7B6, size: 0x8, addend: 0x0, symName: __ZNSt3__122__compressed_pair_elemINS_14default_deleteI7ToppingEELi1ELb1EEC2B8ue170006IS3_vEEOT_, symObjAddr: 0x1CC18, symBinAddr: 0x10001FAF8, symSize: 0x18 }
  - { offsetInCU: 0x4C7F8, offset: 0x4C7F8, size: 0x8, addend: 0x0, symName: __ZN5OrderC2ENSt3__112basic_stringIcNS0_11char_traitsIcEENS0_9allocatorIcEEEENS0_10unique_ptrI7ToppingNS0_14default_deleteIS8_EEEES6_, symObjAddr: 0x1CC30, symBinAddr: 0x10001FB10, symSize: 0x3DC }
  - { offsetInCU: 0x4C853, offset: 0x4C853, size: 0x8, addend: 0x0, symName: __ZNSt3__110unique_ptrI5OrderNS_14default_deleteIS1_EEEC2B8ue170006ILb1EvEEPS1_, symObjAddr: 0x1D00C, symBinAddr: 0x10001FEEC, symSize: 0x44 }
  - { offsetInCU: 0x4C896, offset: 0x4C896, size: 0x8, addend: 0x0, symName: __ZNSt3__117__compressed_pairIP5OrderNS_14default_deleteIS1_EEEC1B8ue170006IRS2_NS_16__value_init_tagEEEOT_OT0_, symObjAddr: 0x1D050, symBinAddr: 0x10001FF30, symSize: 0x3C }
  - { offsetInCU: 0x4C8EE, offset: 0x4C8EE, size: 0x8, addend: 0x0, symName: __ZNSt3__117__compressed_pairIP5OrderNS_14default_deleteIS1_EEEC2B8ue170006IRS2_NS_16__value_init_tagEEEOT_OT0_, symObjAddr: 0x1D08C, symBinAddr: 0x10001FF6C, symSize: 0x40 }
  - { offsetInCU: 0x4C946, offset: 0x4C946, size: 0x8, addend: 0x0, symName: __ZNSt3__122__compressed_pair_elemIP5OrderLi0ELb0EEC2B8ue170006IRS2_vEEOT_, symObjAddr: 0x1D0CC, symBinAddr: 0x10001FFAC, symSize: 0x24 }
  - { offsetInCU: 0x4C988, offset: 0x4C988, size: 0x8, addend: 0x0, symName: __ZNSt3__16vectorI8CustomerNS_9allocatorIS1_EEE11__make_iterB8ue170006EPS1_, symObjAddr: 0x1D0F0, symBinAddr: 0x10001FFD0, symSize: 0x30 }
  - { offsetInCU: 0x4C9BD, offset: 0x4C9BD, size: 0x8, addend: 0x0, symName: __ZNSt3__111__wrap_iterIP8CustomerEC1B8ue170006ES2_, symObjAddr: 0x1D120, symBinAddr: 0x100020000, symSize: 0x34 }
  - { offsetInCU: 0x4C9F5, offset: 0x4C9F5, size: 0x8, addend: 0x0, symName: __ZNSt3__111__wrap_iterIP8CustomerEC2B8ue170006ES2_, symObjAddr: 0x1D154, symBinAddr: 0x100020034, symSize: 0x20 }
  - { offsetInCU: 0x4CA2D, offset: 0x4CA2D, size: 0x8, addend: 0x0, symName: __ZNKSt3__111__wrap_iterIP8CustomerE4baseB8ue170006Ev, symObjAddr: 0x1D1BC, symBinAddr: 0x10002009C, symSize: 0x18 }
  - { offsetInCU: 0x4CA53, offset: 0x4CA53, size: 0x8, addend: 0x0, symName: __ZNKSt3__110unique_ptrI5OrderNS_14default_deleteIS1_EEEdeB8ue170006Ev, symObjAddr: 0x1D1D4, symBinAddr: 0x1000200B4, symSize: 0x28 }
  - { offsetInCU: 0x4CA79, offset: 0x4CA79, size: 0x8, addend: 0x0, symName: __ZNKSt3__117__compressed_pairIP5OrderNS_14default_deleteIS1_EEE5firstB8ue170006Ev, symObjAddr: 0x1D1FC, symBinAddr: 0x1000200DC, symSize: 0x24 }
  - { offsetInCU: 0x4CA9F, offset: 0x4CA9F, size: 0x8, addend: 0x0, symName: __ZNKSt3__122__compressed_pair_elemIP5OrderLi0ELb0EE5__getB8ue170006Ev, symObjAddr: 0x1D220, symBinAddr: 0x100020100, symSize: 0x14 }
  - { offsetInCU: 0x4CAC5, offset: 0x4CAC5, size: 0x8, addend: 0x0, symName: __ZNKSt3__110unique_ptrI7ToppingNS_14default_deleteIS1_EEEptB8ue170006Ev, symObjAddr: 0x1D234, symBinAddr: 0x100020114, symSize: 0x28 }
  - { offsetInCU: 0x4CAEB, offset: 0x4CAEB, size: 0x8, addend: 0x0, symName: __ZNKSt3__117__compressed_pairIP7ToppingNS_14default_deleteIS1_EEE5firstB8ue170006Ev, symObjAddr: 0x1D25C, symBinAddr: 0x10002013C, symSize: 0x24 }
