---
triple:          'arm64-apple-darwin'
binary-path:     papas-freezeria
relocations:
  - { offset: 0x39, size: 0x8, addend: 0x0, symName: __ZN8Customer6nextIDE, symObjAddr: 0x1BAB0, symBinAddr: 0x100024000, symSize: 0x0 }
  - { offset: 0x7584, size: 0x8, addend: 0x0, symName: __ZNSt3__110__function10__not_nullB8ne180100IZN11ToppingListC1EvEUlvE_EEbRKT_, symObjAddr: 0x8150, symBinAddr: 0x10000A5B0, symSize: 0x18 }
  - { offset: 0x75B5, size: 0x8, addend: 0x0, symName: __ZNSt3__110__function10__not_nullB8ne180100IZN11ToppingListC1EvEUlvE0_EEbRKT_, symObjAddr: 0xA0A8, symBinAddr: 0x10000C508, symSize: 0x18 }
  - { offset: 0x75E6, size: 0x8, addend: 0x0, symName: __ZNSt3__110__function10__not_nullB8ne180100IZN11ToppingListC1EvEUlvE1_EEbRKT_, symObjAddr: 0xCE8C, symBinAddr: 0x10000F2EC, symSize: 0x18 }
  - { offset: 0x7617, size: 0x8, addend: 0x0, symName: __ZNSt3__110__function10__not_nullB8ne180100IZN11ToppingListC1EvEUlvE2_EEbRKT_, symObjAddr: 0xEBCC, symBinAddr: 0x10001102C, symSize: 0x18 }
  - { offset: 0x7648, size: 0x8, addend: 0x0, symName: __ZNSt3__110__function10__not_nullB8ne180100IZNK11ToppingList16getRandomToppingEvEUlvE_EEbRKT_, symObjAddr: 0x139A8, symBinAddr: 0x100015E08, symSize: 0x18 }
  - { offset: 0x7679, size: 0x8, addend: 0x0, symName: __ZNSt3__110__function10__not_nullB8ne180100IZNK11ToppingList16getRandomToppingEvEUlvE0_EEbRKT_, symObjAddr: 0x15F38, symBinAddr: 0x100018398, symSize: 0x18 }
  - { offset: 0xA1CA, size: 0x8, addend: 0x0, symName: __ZNSt3__1L19piecewise_constructE, symObjAddr: 0x1C3F0, symBinAddr: 0x10001E865, symSize: 0x0 }
  - { offset: 0xB23D, size: 0x8, addend: 0x0, symName: __ZNSt3__124__put_character_sequenceB8ne180100IcNS_11char_traitsIcEEEERNS_13basic_ostreamIT_T0_EES7_PKS4_m, symObjAddr: 0x2F5C, symBinAddr: 0x1000053BC, symSize: 0x1EC }
  - { offset: 0x126A8, size: 0x8, addend: 0x0, symName: __ZNSt3__17advanceB8ne180100IPNS_12basic_stringIcNS_11char_traitsIcEENS_9allocatorIcEEEEllvEEvRT_T0_, symObjAddr: 0x10F70, symBinAddr: 0x1000133D0, symSize: 0x38 }
  - { offset: 0x16A54, size: 0x8, addend: 0x0, symName: __ZNSt3__118__constexpr_strlenB8ne180100EPKc, symObjAddr: 0xCBC, symBinAddr: 0x10000311C, symSize: 0x24 }
  - { offset: 0x16A80, size: 0x8, addend: 0x0, symName: __ZNSt3__122__make_exception_guardB8ne180100INS_6vectorINS_12basic_stringIcNS_11char_traitsIcEENS_9allocatorIcEEEENS5_IS7_EEE16__destroy_vectorEEENS_28__exception_guard_exceptionsIT_EESC_, symObjAddr: 0xE4C, symBinAddr: 0x1000032AC, symSize: 0x40 }
  - { offset: 0x16AB5, size: 0x8, addend: 0x0, symName: __ZNSt3__119__allocate_at_leastB8ne180100INS_9allocatorINS_12basic_stringIcNS_11char_traitsIcEENS1_IcEEEEEEEENS_19__allocation_resultINS_16allocator_traitsIT_E7pointerEEERSA_m, symObjAddr: 0x125C, symBinAddr: 0x1000036BC, symSize: 0x40 }
  - { offset: 0x16AF8, size: 0x8, addend: 0x0, symName: __ZNSt3__13minB8ne180100ImEERKT_S3_S3_, symObjAddr: 0x1300, symBinAddr: 0x100003760, symSize: 0x2C }
  - { offset: 0x16D3C, size: 0x8, addend: 0x0, symName: __ZNSt3__13minB8ne180100ImNS_6__lessIvvEEEERKT_S5_S5_T0_, symObjAddr: 0x138C, symBinAddr: 0x1000037EC, symSize: 0x54 }
  - { offset: 0x16DDB, size: 0x8, addend: 0x0, symName: __ZNSt3__120__throw_length_errorB8ne180100EPKc, symObjAddr: 0x146C, symBinAddr: 0x1000038CC, symSize: 0x64 }
  - { offset: 0x16E03, size: 0x8, addend: 0x0, symName: __ZNSt3__117__libcpp_allocateB8ne180100Emm, symObjAddr: 0x15D8, symBinAddr: 0x100003A38, symSize: 0x28 }
  - { offset: 0x16E40, size: 0x8, addend: 0x0, symName: __ZNSt3__121__libcpp_operator_newB8ne180100IJmEEEPvDpT_, symObjAddr: 0x1600, symBinAddr: 0x100003A60, symSize: 0x24 }
  - { offset: 0x16E79, size: 0x8, addend: 0x0, symName: __ZNSt3__130__uninitialized_allocator_copyB8ne180100INS_9allocatorINS_12basic_stringIcNS_11char_traitsIcEENS1_IcEEEEEEPKS6_S9_PS6_EET2_RT_T0_T1_SB_, symObjAddr: 0x16D0, symBinAddr: 0x100003B30, symSize: 0x80 }
  - { offset: 0x16F16, size: 0x8, addend: 0x0, symName: __ZNSt3__114__unwrap_rangeB8ne180100IPKNS_12basic_stringIcNS_11char_traitsIcEENS_9allocatorIcEEEES8_EENS_4pairIT0_SA_EET_SC_, symObjAddr: 0x17C8, symBinAddr: 0x100003C28, symSize: 0x60 }
  - { offset: 0x16F62, size: 0x8, addend: 0x0, symName: __ZNSt3__135__uninitialized_allocator_copy_implB8ne180100INS_9allocatorINS_12basic_stringIcNS_11char_traitsIcEENS1_IcEEEEEEPKS6_S9_PS6_EET2_RT_T0_T1_SB_, symObjAddr: 0x1828, symBinAddr: 0x100003C88, symSize: 0xF4 }
  - { offset: 0x17000, size: 0x8, addend: 0x0, symName: __ZNSt3__113__unwrap_iterB8ne180100IPNS_12basic_stringIcNS_11char_traitsIcEENS_9allocatorIcEEEENS_18__unwrap_iter_implIS7_Lb1EEELi0EEEDTclsrT0_8__unwrapclsr3stdE7declvalIT_EEEESB_, symObjAddr: 0x191C, symBinAddr: 0x100003D7C, symSize: 0x24 }
  - { offset: 0x17044, size: 0x8, addend: 0x0, symName: __ZNSt3__113__rewrap_iterB8ne180100IPNS_12basic_stringIcNS_11char_traitsIcEENS_9allocatorIcEEEES7_NS_18__unwrap_iter_implIS7_Lb1EEEEET_SA_T0_, symObjAddr: 0x1940, symBinAddr: 0x100003DA0, symSize: 0x3C }
  - { offset: 0x17099, size: 0x8, addend: 0x0, symName: __ZNSt3__19make_pairB8ne180100IPKNS_12basic_stringIcNS_11char_traitsIcEENS_9allocatorIcEEEES8_EENS_4pairINS_18__unwrap_ref_decayIT_E4typeENSA_IT0_E4typeEEEOSB_OSE_, symObjAddr: 0x197C, symBinAddr: 0x100003DDC, symSize: 0x38 }
  - { offset: 0x170E8, size: 0x8, addend: 0x0, symName: __ZNSt3__113__unwrap_iterB8ne180100IPKNS_12basic_stringIcNS_11char_traitsIcEENS_9allocatorIcEEEENS_18__unwrap_iter_implIS8_Lb1EEELi0EEEDTclsrT0_8__unwrapclsr3stdE7declvalIT_EEEESC_, symObjAddr: 0x19B4, symBinAddr: 0x100003E14, symSize: 0x24 }
  - { offset: 0x17253, size: 0x8, addend: 0x0, symName: __ZNSt3__112__to_addressB8ne180100IKNS_12basic_stringIcNS_11char_traitsIcEENS_9allocatorIcEEEEEEPT_S9_, symObjAddr: 0x1A6C, symBinAddr: 0x100003ECC, symSize: 0x14 }
  - { offset: 0x17288, size: 0x8, addend: 0x0, symName: __ZNSt3__122__make_exception_guardB8ne180100INS_29_AllocatorDestroyRangeReverseINS_9allocatorINS_12basic_stringIcNS_11char_traitsIcEENS2_IcEEEEEEPS7_EEEENS_28__exception_guard_exceptionsIT_EESC_, symObjAddr: 0x1A80, symBinAddr: 0x100003EE0, symSize: 0x4C }
  - { offset: 0x172BE, size: 0x8, addend: 0x0, symName: __ZNSt3__112__to_addressB8ne180100INS_12basic_stringIcNS_11char_traitsIcEENS_9allocatorIcEEEEEEPT_S8_, symObjAddr: 0x1B44, symBinAddr: 0x100003FA4, symSize: 0x14 }
  - { offset: 0x172F3, size: 0x8, addend: 0x0, symName: __ZNSt3__119__allocator_destroyB8ne180100INS_9allocatorINS_12basic_stringIcNS_11char_traitsIcEENS1_IcEEEEEENS_16reverse_iteratorIPS6_EESA_EEvRT_T0_T1_, symObjAddr: 0x1D24, symBinAddr: 0x100004184, symSize: 0x70 }
  - { offset: 0x17356, size: 0x8, addend: 0x0, symName: __ZNSt3__1neB8ne180100IPNS_12basic_stringIcNS_11char_traitsIcEENS_9allocatorIcEEEES7_EEbRKNS_16reverse_iteratorIT_EERKNS8_IT0_EE, symObjAddr: 0x1DC8, symBinAddr: 0x100004228, symSize: 0x48 }
  - { offset: 0x173A2, size: 0x8, addend: 0x0, symName: __ZNSt3__112__to_addressB8ne180100INS_16reverse_iteratorIPNS_12basic_stringIcNS_11char_traitsIcEENS_9allocatorIcEEEEEEvEEu7__decayIDTclsr19__to_address_helperIT_EE6__callclsr3stdE7declvalIRKSA_EEEEESC_, symObjAddr: 0x1E3C, symBinAddr: 0x10000429C, symSize: 0x24 }
  - { offset: 0x17454, size: 0x8, addend: 0x0, symName: __ZNSt3__119__libcpp_deallocateB8ne180100EPvmm, symObjAddr: 0x2264, symBinAddr: 0x1000046C4, symSize: 0x30 }
  - { offset: 0x1749C, size: 0x8, addend: 0x0, symName: __ZNSt3__127__do_deallocate_handle_sizeB8ne180100IJEEEvPvmDpT_, symObjAddr: 0x2294, symBinAddr: 0x1000046F4, symSize: 0x28 }
  - { offset: 0x174DA, size: 0x8, addend: 0x0, symName: __ZNSt3__124__libcpp_operator_deleteB8ne180100IJPvEEEvDpT_, symObjAddr: 0x22BC, symBinAddr: 0x10000471C, symSize: 0x24 }
  - { offset: 0x1750F, size: 0x8, addend: 0x0, symName: __ZNSt3__1lsB8ne180100INS_11char_traitsIcEEEERNS_13basic_ostreamIcT_EES6_PKc, symObjAddr: 0x23A0, symBinAddr: 0x100004800, symSize: 0x48 }
  - { offset: 0x17555, size: 0x8, addend: 0x0, symName: __ZNSt3__1plB8ne180100IcNS_11char_traitsIcEENS_9allocatorIcEEEENS_12basic_stringIT_T0_T1_EEPKS6_OS9_, symObjAddr: 0x2498, symBinAddr: 0x1000048F8, symSize: 0x44 }
  - { offset: 0x175AD, size: 0x8, addend: 0x0, symName: __ZNSt3__1neB8ne180100IP8CustomerEEbRKNS_11__wrap_iterIT_EES7_, symObjAddr: 0x2758, symBinAddr: 0x100004BB8, symSize: 0x34 }
  - { offset: 0x175F0, size: 0x8, addend: 0x0, symName: __ZNSt3__1lsB8ne180100IcNS_11char_traitsIcEENS_9allocatorIcEEEERNS_13basic_ostreamIT_T0_EES9_RKNS_12basic_stringIS6_S7_T1_EE, symObjAddr: 0x27A4, symBinAddr: 0x100004C04, symSize: 0x4C }
  - { offset: 0x17648, size: 0x8, addend: 0x0, symName: __ZNSt3__116__pad_and_outputB8ne180100IcNS_11char_traitsIcEEEENS_19ostreambuf_iteratorIT_T0_EES6_PKS4_S8_S8_RNS_8ios_baseES4_, symObjAddr: 0x3164, symBinAddr: 0x1000055C4, symSize: 0x240 }
  - { offset: 0x17717, size: 0x8, addend: 0x0, symName: __ZNSt3__112__to_addressB8ne180100IKcEEPT_S3_, symObjAddr: 0x35D4, symBinAddr: 0x100005A34, symSize: 0x14 }
  - { offset: 0x1777F, size: 0x8, addend: 0x0, symName: __ZNSt3__19use_facetB8ne180100INS_5ctypeIcEEEERKT_RKNS_6localeE, symObjAddr: 0x3854, symBinAddr: 0x100005CB4, symSize: 0x2C }
  - { offset: 0x17C4C, size: 0x8, addend: 0x0, symName: __ZNSt3__112__to_addressB8ne180100I8CustomerEEPT_S3_, symObjAddr: 0x3EE4, symBinAddr: 0x100006344, symSize: 0x14 }
  - { offset: 0x17C81, size: 0x8, addend: 0x0, symName: __ZNSt3__13maxB8ne180100ImEERKT_S3_S3_, symObjAddr: 0x4D10, symBinAddr: 0x100007170, symSize: 0x2C }
  - { offset: 0x17CC4, size: 0x8, addend: 0x0, symName: __ZNSt3__13maxB8ne180100ImNS_6__lessIvvEEEERKT_S5_S5_T0_, symObjAddr: 0x4E40, symBinAddr: 0x1000072A0, symSize: 0x54 }
  - { offset: 0x17D1E, size: 0x8, addend: 0x0, symName: __ZNSt3__119__allocate_at_leastB8ne180100INS_9allocatorI8CustomerEEEENS_19__allocation_resultINS_16allocator_traitsIT_E7pointerEEERS6_m, symObjAddr: 0x4FB0, symBinAddr: 0x100007410, symSize: 0x40 }
  - { offset: 0x17D61, size: 0x8, addend: 0x0, symName: __ZNSt3__142__uninitialized_allocator_move_if_noexceptB8ne180100INS_9allocatorI8CustomerEENS_16reverse_iteratorIPS2_EES6_S6_EET2_RT_T0_T1_S7_, symObjAddr: 0x5178, symBinAddr: 0x1000075D8, symSize: 0x12C }
  - { offset: 0x17E01, size: 0x8, addend: 0x0, symName: __ZNSt3__14swapB8ne180100IP8CustomerEENS_9enable_ifIXaasr21is_move_constructibleIT_EE5valuesr18is_move_assignableIS4_EE5valueEvE4typeERS4_S7_, symObjAddr: 0x52F0, symBinAddr: 0x100007750, symSize: 0x3C }
  - { offset: 0x17E52, size: 0x8, addend: 0x0, symName: __ZNSt3__122__make_exception_guardB8ne180100INS_29_AllocatorDestroyRangeReverseINS_9allocatorI8CustomerEENS_16reverse_iteratorIPS3_EEEEEENS_28__exception_guard_exceptionsIT_EESA_, symObjAddr: 0x5340, symBinAddr: 0x1000077A0, symSize: 0x4C }
  - { offset: 0x17E88, size: 0x8, addend: 0x0, symName: __ZNSt3__1neB8ne180100IP8CustomerS2_EEbRKNS_16reverse_iteratorIT_EERKNS3_IT0_EE, symObjAddr: 0x53D0, symBinAddr: 0x100007830, symSize: 0x48 }
  - { offset: 0x17ED4, size: 0x8, addend: 0x0, symName: __ZNSt3__112__to_addressB8ne180100INS_16reverse_iteratorIP8CustomerEEvEEu7__decayIDTclsr19__to_address_helperIT_EE6__callclsr3stdE7declvalIRKS5_EEEEES7_, symObjAddr: 0x5418, symBinAddr: 0x100007878, symSize: 0x24 }
  - { offset: 0x17F33, size: 0x8, addend: 0x0, symName: __ZNSt3__119__allocator_destroyB8ne180100INS_9allocatorI8CustomerEENS_16reverse_iteratorINS4_IPS2_EEEES7_EEvRT_T0_T1_, symObjAddr: 0x56C8, symBinAddr: 0x100007B28, symSize: 0x70 }
  - { offset: 0x17F98, size: 0x8, addend: 0x0, symName: __ZNSt3__1neB8ne180100INS_16reverse_iteratorIP8CustomerEES4_EEbRKNS1_IT_EERKNS1_IT0_EE, symObjAddr: 0x5774, symBinAddr: 0x100007BD4, symSize: 0x60 }
  - { offset: 0x17FE4, size: 0x8, addend: 0x0, symName: __ZNSt3__112__to_addressB8ne180100INS_16reverse_iteratorINS1_IP8CustomerEEEEvEEu7__decayIDTclsr19__to_address_helperIT_EE6__callclsr3stdE7declvalIRKS6_EEEEES8_, symObjAddr: 0x5800, symBinAddr: 0x100007C60, symSize: 0x24 }
  - { offset: 0x18043, size: 0x8, addend: 0x0, symName: __ZNSt3__112__to_addressB8ne180100INS_8functionIFNS_10unique_ptrI12FruitToppingNS_14default_deleteIS3_EEEEvEEEEEPT_SA_, symObjAddr: 0x6BD0, symBinAddr: 0x100009030, symSize: 0x14 }
  - { offset: 0x18078, size: 0x8, addend: 0x0, symName: __ZNSt3__119__allocate_at_leastB8ne180100INS_9allocatorINS_8functionIFNS_10unique_ptrI12FruitToppingNS_14default_deleteIS4_EEEEvEEEEEEENS_19__allocation_resultINS_16allocator_traitsIT_E7pointerEEERSD_m, symObjAddr: 0x7344, symBinAddr: 0x1000097A4, symSize: 0x40 }
  - { offset: 0x180BB, size: 0x8, addend: 0x0, symName: __ZNSt3__142__uninitialized_allocator_move_if_noexceptB8ne180100INS_9allocatorINS_8functionIFNS_10unique_ptrI12FruitToppingNS_14default_deleteIS4_EEEEvEEEEENS_16reverse_iteratorIPS9_EESD_SD_EET2_RT_T0_T1_SE_, symObjAddr: 0x7508, symBinAddr: 0x100009968, symSize: 0x12C }
  - { offset: 0x1815B, size: 0x8, addend: 0x0, symName: __ZNSt3__14swapB8ne180100IPNS_8functionIFNS_10unique_ptrI12FruitToppingNS_14default_deleteIS3_EEEEvEEEEENS_9enable_ifIXaasr21is_move_constructibleIT_EE5valuesr18is_move_assignableISB_EE5valueEvE4typeERSB_SE_, symObjAddr: 0x7680, symBinAddr: 0x100009AE0, symSize: 0x3C }
  - { offset: 0x181AC, size: 0x8, addend: 0x0, symName: __ZNSt3__122__make_exception_guardB8ne180100INS_29_AllocatorDestroyRangeReverseINS_9allocatorINS_8functionIFNS_10unique_ptrI12FruitToppingNS_14default_deleteIS5_EEEEvEEEEENS_16reverse_iteratorIPSA_EEEEEENS_28__exception_guard_exceptionsIT_EESH_, symObjAddr: 0x76D0, symBinAddr: 0x100009B30, symSize: 0x4C }
  - { offset: 0x181E2, size: 0x8, addend: 0x0, symName: __ZNSt3__1neB8ne180100IPNS_8functionIFNS_10unique_ptrI12FruitToppingNS_14default_deleteIS3_EEEEvEEES9_EEbRKNS_16reverse_iteratorIT_EERKNSA_IT0_EE, symObjAddr: 0x7760, symBinAddr: 0x100009BC0, symSize: 0x48 }
  - { offset: 0x1822E, size: 0x8, addend: 0x0, symName: __ZNSt3__112__to_addressB8ne180100INS_16reverse_iteratorIPNS_8functionIFNS_10unique_ptrI12FruitToppingNS_14default_deleteIS4_EEEEvEEEEEvEEu7__decayIDTclsr19__to_address_helperIT_EE6__callclsr3stdE7declvalIRKSC_EEEEESE_, symObjAddr: 0x77A8, symBinAddr: 0x100009C08, symSize: 0x24 }
  - { offset: 0x1828D, size: 0x8, addend: 0x0, symName: __ZNSt3__119__allocator_destroyB8ne180100INS_9allocatorINS_8functionIFNS_10unique_ptrI12FruitToppingNS_14default_deleteIS4_EEEEvEEEEENS_16reverse_iteratorINSB_IPS9_EEEESE_EEvRT_T0_T1_, symObjAddr: 0x7A58, symBinAddr: 0x100009EB8, symSize: 0x70 }
  - { offset: 0x182F2, size: 0x8, addend: 0x0, symName: __ZNSt3__1neB8ne180100INS_16reverse_iteratorIPNS_8functionIFNS_10unique_ptrI12FruitToppingNS_14default_deleteIS4_EEEEvEEEEESB_EEbRKNS1_IT_EERKNS1_IT0_EE, symObjAddr: 0x7B04, symBinAddr: 0x100009F64, symSize: 0x60 }
  - { offset: 0x1833E, size: 0x8, addend: 0x0, symName: __ZNSt3__112__to_addressB8ne180100INS_16reverse_iteratorINS1_IPNS_8functionIFNS_10unique_ptrI12FruitToppingNS_14default_deleteIS4_EEEEvEEEEEEEvEEu7__decayIDTclsr19__to_address_helperIT_EE6__callclsr3stdE7declvalIRKSD_EEEEESF_, symObjAddr: 0x7B90, symBinAddr: 0x100009FF0, symSize: 0x24 }
  - { offset: 0x18500, size: 0x8, addend: 0x0, symName: __ZNSt3__116forward_as_tupleB8ne180100IJZN11ToppingListC1EvEUlvE_EEENS_5tupleIJDpOT_EEES6_, symObjAddr: 0x86C8, symBinAddr: 0x10000AB28, symSize: 0x2C }
  - { offset: 0x18539, size: 0x8, addend: 0x0, symName: __ZNSt3__116forward_as_tupleB8ne180100IJNS_9allocatorIZN11ToppingListC1EvEUlvE_EEEEENS_5tupleIJDpOT_EEES8_, symObjAddr: 0x86F4, symBinAddr: 0x10000AB54, symSize: 0x2C }
  - { offset: 0x185B6, size: 0x8, addend: 0x0, symName: __ZNSt3__13getB8ne180100ILm0EJOZN11ToppingListC1EvEUlvE_EEERNS_13tuple_elementIXT_ENS_5tupleIJDpT0_EEEE4typeERS8_, symObjAddr: 0x8A00, symBinAddr: 0x10000AE60, symSize: 0x24 }
  - { offset: 0x185F8, size: 0x8, addend: 0x0, symName: __ZNSt3__13getB8ne180100ILm0EJONS_9allocatorIZN11ToppingListC1EvEUlvE_EEEEERNS_13tuple_elementIXT_ENS_5tupleIJDpT0_EEEE4typeERSA_, symObjAddr: 0x8A3C, symBinAddr: 0x10000AE9C, symSize: 0x24 }
  - { offset: 0x18B16, size: 0x8, addend: 0x0, symName: __ZNSt3__116forward_as_tupleB8ne180100IJRKZN11ToppingListC1EvEUlvE_EEENS_5tupleIJDpOT_EEES8_, symObjAddr: 0x8FC8, symBinAddr: 0x10000B428, symSize: 0x2C }
  - { offset: 0x18B64, size: 0x8, addend: 0x0, symName: __ZNSt3__13getB8ne180100ILm0EJRKZN11ToppingListC1EvEUlvE_EEERNS_13tuple_elementIXT_ENS_5tupleIJDpT0_EEEE4typeERS9_, symObjAddr: 0x91AC, symBinAddr: 0x10000B60C, symSize: 0x24 }
  - { offset: 0x18BA6, size: 0x8, addend: 0x0, symName: __ZNSt3__116forward_as_tupleB8ne180100IJRKNS_9allocatorIZN11ToppingListC1EvEUlvE_EEEEENS_5tupleIJDpOT_EEESA_, symObjAddr: 0x9500, symBinAddr: 0x10000B960, symSize: 0x2C }
  - { offset: 0x18BF4, size: 0x8, addend: 0x0, symName: __ZNSt3__13getB8ne180100ILm0EJRKNS_9allocatorIZN11ToppingListC1EvEUlvE_EEEEERNS_13tuple_elementIXT_ENS_5tupleIJDpT0_EEEE4typeERSB_, symObjAddr: 0x96E4, symBinAddr: 0x10000BB44, symSize: 0x24 }
  - { offset: 0x18C92, size: 0x8, addend: 0x0, symName: __ZNSt3__18__invokeB8ne180100IRZN11ToppingListC1EvEUlvE_JEEEDTclclsr3stdE7declvalIT_EEspclsr3stdE7declvalIT0_EEEEOS4_DpOS5_, symObjAddr: 0x97B4, symBinAddr: 0x10000BC14, symSize: 0x2C }
  - { offset: 0x18CEE, size: 0x8, addend: 0x0, symName: __ZNSt3__111make_uniqueB8ne180100I12FruitToppingJRA7_KcEEENS_11__unique_ifIT_E15__unique_singleEDpOT0_, symObjAddr: 0x9810, symBinAddr: 0x10000BC70, symSize: 0xD0 }
  - { offset: 0x18E93, size: 0x8, addend: 0x0, symName: __ZNSt3__116forward_as_tupleB8ne180100IJZN11ToppingListC1EvEUlvE0_EEENS_5tupleIJDpOT_EEES6_, symObjAddr: 0xA5C8, symBinAddr: 0x10000CA28, symSize: 0x2C }
  - { offset: 0x18ECC, size: 0x8, addend: 0x0, symName: __ZNSt3__116forward_as_tupleB8ne180100IJNS_9allocatorIZN11ToppingListC1EvEUlvE0_EEEEENS_5tupleIJDpOT_EEES8_, symObjAddr: 0xA5F4, symBinAddr: 0x10000CA54, symSize: 0x2C }
  - { offset: 0x18F2F, size: 0x8, addend: 0x0, symName: __ZNSt3__13getB8ne180100ILm0EJOZN11ToppingListC1EvEUlvE0_EEERNS_13tuple_elementIXT_ENS_5tupleIJDpT0_EEEE4typeERS8_, symObjAddr: 0xA900, symBinAddr: 0x10000CD60, symSize: 0x24 }
  - { offset: 0x18F71, size: 0x8, addend: 0x0, symName: __ZNSt3__13getB8ne180100ILm0EJONS_9allocatorIZN11ToppingListC1EvEUlvE0_EEEEERNS_13tuple_elementIXT_ENS_5tupleIJDpT0_EEEE4typeERSA_, symObjAddr: 0xA93C, symBinAddr: 0x10000CD9C, symSize: 0x24 }
  - { offset: 0x1948F, size: 0x8, addend: 0x0, symName: __ZNSt3__116forward_as_tupleB8ne180100IJRKZN11ToppingListC1EvEUlvE0_EEENS_5tupleIJDpOT_EEES8_, symObjAddr: 0xAEC8, symBinAddr: 0x10000D328, symSize: 0x2C }
  - { offset: 0x194DD, size: 0x8, addend: 0x0, symName: __ZNSt3__13getB8ne180100ILm0EJRKZN11ToppingListC1EvEUlvE0_EEERNS_13tuple_elementIXT_ENS_5tupleIJDpT0_EEEE4typeERS9_, symObjAddr: 0xB0AC, symBinAddr: 0x10000D50C, symSize: 0x24 }
  - { offset: 0x1951F, size: 0x8, addend: 0x0, symName: __ZNSt3__116forward_as_tupleB8ne180100IJRKNS_9allocatorIZN11ToppingListC1EvEUlvE0_EEEEENS_5tupleIJDpOT_EEESA_, symObjAddr: 0xB400, symBinAddr: 0x10000D860, symSize: 0x2C }
  - { offset: 0x1956D, size: 0x8, addend: 0x0, symName: __ZNSt3__13getB8ne180100ILm0EJRKNS_9allocatorIZN11ToppingListC1EvEUlvE0_EEEEERNS_13tuple_elementIXT_ENS_5tupleIJDpT0_EEEE4typeERSB_, symObjAddr: 0xB5E4, symBinAddr: 0x10000DA44, symSize: 0x24 }
  - { offset: 0x195AF, size: 0x8, addend: 0x0, symName: __ZNSt3__18__invokeB8ne180100IRZN11ToppingListC1EvEUlvE0_JEEEDTclclsr3stdE7declvalIT_EEspclsr3stdE7declvalIT0_EEEEOS4_DpOS5_, symObjAddr: 0xB6B4, symBinAddr: 0x10000DB14, symSize: 0x2C }
  - { offset: 0x195EB, size: 0x8, addend: 0x0, symName: __ZNSt3__112__to_addressB8ne180100INS_8functionIFNS_10unique_ptrI12SweetToppingNS_14default_deleteIS3_EEEEvEEEEEPT_SA_, symObjAddr: 0xB90C, symBinAddr: 0x10000DD6C, symSize: 0x14 }
  - { offset: 0x19620, size: 0x8, addend: 0x0, symName: __ZNSt3__119__allocate_at_leastB8ne180100INS_9allocatorINS_8functionIFNS_10unique_ptrI12SweetToppingNS_14default_deleteIS4_EEEEvEEEEEEENS_19__allocation_resultINS_16allocator_traitsIT_E7pointerEEERSD_m, symObjAddr: 0xC080, symBinAddr: 0x10000E4E0, symSize: 0x40 }
  - { offset: 0x19663, size: 0x8, addend: 0x0, symName: __ZNSt3__142__uninitialized_allocator_move_if_noexceptB8ne180100INS_9allocatorINS_8functionIFNS_10unique_ptrI12SweetToppingNS_14default_deleteIS4_EEEEvEEEEENS_16reverse_iteratorIPS9_EESD_SD_EET2_RT_T0_T1_SE_, symObjAddr: 0xC244, symBinAddr: 0x10000E6A4, symSize: 0x12C }
  - { offset: 0x19703, size: 0x8, addend: 0x0, symName: __ZNSt3__14swapB8ne180100IPNS_8functionIFNS_10unique_ptrI12SweetToppingNS_14default_deleteIS3_EEEEvEEEEENS_9enable_ifIXaasr21is_move_constructibleIT_EE5valuesr18is_move_assignableISB_EE5valueEvE4typeERSB_SE_, symObjAddr: 0xC3BC, symBinAddr: 0x10000E81C, symSize: 0x3C }
  - { offset: 0x19754, size: 0x8, addend: 0x0, symName: __ZNSt3__122__make_exception_guardB8ne180100INS_29_AllocatorDestroyRangeReverseINS_9allocatorINS_8functionIFNS_10unique_ptrI12SweetToppingNS_14default_deleteIS5_EEEEvEEEEENS_16reverse_iteratorIPSA_EEEEEENS_28__exception_guard_exceptionsIT_EESH_, symObjAddr: 0xC40C, symBinAddr: 0x10000E86C, symSize: 0x4C }
  - { offset: 0x1978A, size: 0x8, addend: 0x0, symName: __ZNSt3__1neB8ne180100IPNS_8functionIFNS_10unique_ptrI12SweetToppingNS_14default_deleteIS3_EEEEvEEES9_EEbRKNS_16reverse_iteratorIT_EERKNSA_IT0_EE, symObjAddr: 0xC49C, symBinAddr: 0x10000E8FC, symSize: 0x48 }
  - { offset: 0x197D6, size: 0x8, addend: 0x0, symName: __ZNSt3__112__to_addressB8ne180100INS_16reverse_iteratorIPNS_8functionIFNS_10unique_ptrI12SweetToppingNS_14default_deleteIS4_EEEEvEEEEEvEEu7__decayIDTclsr19__to_address_helperIT_EE6__callclsr3stdE7declvalIRKSC_EEEEESE_, symObjAddr: 0xC4E4, symBinAddr: 0x10000E944, symSize: 0x24 }
  - { offset: 0x19835, size: 0x8, addend: 0x0, symName: __ZNSt3__119__allocator_destroyB8ne180100INS_9allocatorINS_8functionIFNS_10unique_ptrI12SweetToppingNS_14default_deleteIS4_EEEEvEEEEENS_16reverse_iteratorINSB_IPS9_EEEESE_EEvRT_T0_T1_, symObjAddr: 0xC794, symBinAddr: 0x10000EBF4, symSize: 0x70 }
  - { offset: 0x1989A, size: 0x8, addend: 0x0, symName: __ZNSt3__1neB8ne180100INS_16reverse_iteratorIPNS_8functionIFNS_10unique_ptrI12SweetToppingNS_14default_deleteIS4_EEEEvEEEEESB_EEbRKNS1_IT_EERKNS1_IT0_EE, symObjAddr: 0xC840, symBinAddr: 0x10000ECA0, symSize: 0x60 }
  - { offset: 0x198E6, size: 0x8, addend: 0x0, symName: __ZNSt3__112__to_addressB8ne180100INS_16reverse_iteratorINS1_IPNS_8functionIFNS_10unique_ptrI12SweetToppingNS_14default_deleteIS4_EEEEvEEEEEEEvEEu7__decayIDTclsr19__to_address_helperIT_EE6__callclsr3stdE7declvalIRKSD_EEEEESF_, symObjAddr: 0xC8CC, symBinAddr: 0x10000ED2C, symSize: 0x24 }
  - { offset: 0x19AA8, size: 0x8, addend: 0x0, symName: __ZNSt3__116forward_as_tupleB8ne180100IJZN11ToppingListC1EvEUlvE1_EEENS_5tupleIJDpOT_EEES6_, symObjAddr: 0xD404, symBinAddr: 0x10000F864, symSize: 0x2C }
  - { offset: 0x19AE1, size: 0x8, addend: 0x0, symName: __ZNSt3__116forward_as_tupleB8ne180100IJNS_9allocatorIZN11ToppingListC1EvEUlvE1_EEEEENS_5tupleIJDpOT_EEES8_, symObjAddr: 0xD430, symBinAddr: 0x10000F890, symSize: 0x2C }
  - { offset: 0x19B44, size: 0x8, addend: 0x0, symName: __ZNSt3__13getB8ne180100ILm0EJOZN11ToppingListC1EvEUlvE1_EEERNS_13tuple_elementIXT_ENS_5tupleIJDpT0_EEEE4typeERS8_, symObjAddr: 0xD73C, symBinAddr: 0x10000FB9C, symSize: 0x24 }
  - { offset: 0x19B86, size: 0x8, addend: 0x0, symName: __ZNSt3__13getB8ne180100ILm0EJONS_9allocatorIZN11ToppingListC1EvEUlvE1_EEEEERNS_13tuple_elementIXT_ENS_5tupleIJDpT0_EEEE4typeERSA_, symObjAddr: 0xD778, symBinAddr: 0x10000FBD8, symSize: 0x24 }
  - { offset: 0x1A0A4, size: 0x8, addend: 0x0, symName: __ZNSt3__116forward_as_tupleB8ne180100IJRKZN11ToppingListC1EvEUlvE1_EEENS_5tupleIJDpOT_EEES8_, symObjAddr: 0xDD04, symBinAddr: 0x100010164, symSize: 0x2C }
  - { offset: 0x1A0F2, size: 0x8, addend: 0x0, symName: __ZNSt3__13getB8ne180100ILm0EJRKZN11ToppingListC1EvEUlvE1_EEERNS_13tuple_elementIXT_ENS_5tupleIJDpT0_EEEE4typeERS9_, symObjAddr: 0xDEE8, symBinAddr: 0x100010348, symSize: 0x24 }
  - { offset: 0x1A134, size: 0x8, addend: 0x0, symName: __ZNSt3__116forward_as_tupleB8ne180100IJRKNS_9allocatorIZN11ToppingListC1EvEUlvE1_EEEEENS_5tupleIJDpOT_EEESA_, symObjAddr: 0xE23C, symBinAddr: 0x10001069C, symSize: 0x2C }
  - { offset: 0x1A182, size: 0x8, addend: 0x0, symName: __ZNSt3__13getB8ne180100ILm0EJRKNS_9allocatorIZN11ToppingListC1EvEUlvE1_EEEEERNS_13tuple_elementIXT_ENS_5tupleIJDpT0_EEEE4typeERSB_, symObjAddr: 0xE420, symBinAddr: 0x100010880, symSize: 0x24 }
  - { offset: 0x1A220, size: 0x8, addend: 0x0, symName: __ZNSt3__18__invokeB8ne180100IRZN11ToppingListC1EvEUlvE1_JEEEDTclclsr3stdE7declvalIT_EEspclsr3stdE7declvalIT0_EEEEOS4_DpOS5_, symObjAddr: 0xE4F0, symBinAddr: 0x100010950, symSize: 0x2C }
  - { offset: 0x1A27C, size: 0x8, addend: 0x0, symName: __ZNSt3__111make_uniqueB8ne180100I12SweetToppingJRA10_KcEEENS_11__unique_ifIT_E15__unique_singleEDpOT0_, symObjAddr: 0xE54C, symBinAddr: 0x1000109AC, symSize: 0xD0 }
  - { offset: 0x1A421, size: 0x8, addend: 0x0, symName: __ZNSt3__116forward_as_tupleB8ne180100IJZN11ToppingListC1EvEUlvE2_EEENS_5tupleIJDpOT_EEES6_, symObjAddr: 0xF0EC, symBinAddr: 0x10001154C, symSize: 0x2C }
  - { offset: 0x1A45A, size: 0x8, addend: 0x0, symName: __ZNSt3__116forward_as_tupleB8ne180100IJNS_9allocatorIZN11ToppingListC1EvEUlvE2_EEEEENS_5tupleIJDpOT_EEES8_, symObjAddr: 0xF118, symBinAddr: 0x100011578, symSize: 0x2C }
  - { offset: 0x1A4BD, size: 0x8, addend: 0x0, symName: __ZNSt3__13getB8ne180100ILm0EJOZN11ToppingListC1EvEUlvE2_EEERNS_13tuple_elementIXT_ENS_5tupleIJDpT0_EEEE4typeERS8_, symObjAddr: 0xF424, symBinAddr: 0x100011884, symSize: 0x24 }
  - { offset: 0x1A4FF, size: 0x8, addend: 0x0, symName: __ZNSt3__13getB8ne180100ILm0EJONS_9allocatorIZN11ToppingListC1EvEUlvE2_EEEEERNS_13tuple_elementIXT_ENS_5tupleIJDpT0_EEEE4typeERSA_, symObjAddr: 0xF460, symBinAddr: 0x1000118C0, symSize: 0x24 }
  - { offset: 0x1AA1D, size: 0x8, addend: 0x0, symName: __ZNSt3__116forward_as_tupleB8ne180100IJRKZN11ToppingListC1EvEUlvE2_EEENS_5tupleIJDpOT_EEES8_, symObjAddr: 0xF9EC, symBinAddr: 0x100011E4C, symSize: 0x2C }
  - { offset: 0x1AA6B, size: 0x8, addend: 0x0, symName: __ZNSt3__13getB8ne180100ILm0EJRKZN11ToppingListC1EvEUlvE2_EEERNS_13tuple_elementIXT_ENS_5tupleIJDpT0_EEEE4typeERS9_, symObjAddr: 0xFBD0, symBinAddr: 0x100012030, symSize: 0x24 }
  - { offset: 0x1AAAD, size: 0x8, addend: 0x0, symName: __ZNSt3__116forward_as_tupleB8ne180100IJRKNS_9allocatorIZN11ToppingListC1EvEUlvE2_EEEEENS_5tupleIJDpOT_EEESA_, symObjAddr: 0xFF24, symBinAddr: 0x100012384, symSize: 0x2C }
  - { offset: 0x1AAFB, size: 0x8, addend: 0x0, symName: __ZNSt3__13getB8ne180100ILm0EJRKNS_9allocatorIZN11ToppingListC1EvEUlvE2_EEEEERNS_13tuple_elementIXT_ENS_5tupleIJDpT0_EEEE4typeERSB_, symObjAddr: 0x10108, symBinAddr: 0x100012568, symSize: 0x24 }
  - { offset: 0x1AB3D, size: 0x8, addend: 0x0, symName: __ZNSt3__18__invokeB8ne180100IRZN11ToppingListC1EvEUlvE2_JEEEDTclclsr3stdE7declvalIT_EEspclsr3stdE7declvalIT0_EEEEOS4_DpOS5_, symObjAddr: 0x101D8, symBinAddr: 0x100012638, symSize: 0x2C }
  - { offset: 0x1AB79, size: 0x8, addend: 0x0, symName: __ZNSt3__111make_uniqueB8ne180100I12SweetToppingJRA6_KcEEENS_11__unique_ifIT_E15__unique_singleEDpOT0_, symObjAddr: 0x10234, symBinAddr: 0x100012694, symSize: 0xD0 }
  - { offset: 0x1ABBB, size: 0x8, addend: 0x0, symName: __ZNSt3__18distanceB8ne180100IPNS_12basic_stringIcNS_11char_traitsIcEENS_9allocatorIcEEEEEENS_15iterator_traitsIT_E15difference_typeES9_S9_, symObjAddr: 0x10C44, symBinAddr: 0x1000130A4, symSize: 0x2C }
  - { offset: 0x1ABFE, size: 0x8, addend: 0x0, symName: __ZNSt3__14nextB8ne180100IPNS_12basic_stringIcNS_11char_traitsIcEENS_9allocatorIcEEEELi0EEET_S8_NS_15iterator_traitsIS8_E15difference_typeE, symObjAddr: 0x10C98, symBinAddr: 0x1000130F8, symSize: 0x34 }
  - { offset: 0x1AC47, size: 0x8, addend: 0x0, symName: __ZNSt3__14copyB8ne180100IPNS_12basic_stringIcNS_11char_traitsIcEENS_9allocatorIcEEEES7_EET0_T_S9_S8_, symObjAddr: 0x10CCC, symBinAddr: 0x10001312C, symSize: 0x40 }
  - { offset: 0x1ACA1, size: 0x8, addend: 0x0, symName: __ZNSt3__16__copyB8ne180100INS_17_ClassicAlgPolicyEPNS_12basic_stringIcNS_11char_traitsIcEENS_9allocatorIcEEEES8_S8_EENS_4pairIT0_T2_EESA_T1_SB_, symObjAddr: 0x10D98, symBinAddr: 0x1000131F8, symSize: 0x44 }
  - { offset: 0x1AD0D, size: 0x8, addend: 0x0, symName: __ZNSt3__121__convert_to_integralB8ne180100El, symObjAddr: 0x10FA8, symBinAddr: 0x100013408, symSize: 0x14 }
  - { offset: 0x1AD39, size: 0x8, addend: 0x0, symName: __ZNSt3__19__advanceB8ne180100IPNS_12basic_stringIcNS_11char_traitsIcEENS_9allocatorIcEEEEEEvRT_NS_15iterator_traitsIS8_E15difference_typeENS_26random_access_iterator_tagE, symObjAddr: 0x10FBC, symBinAddr: 0x10001341C, symSize: 0x30 }
  - { offset: 0x1AD82, size: 0x8, addend: 0x0, symName: __ZNSt3__130__uninitialized_allocator_copyB8ne180100INS_9allocatorINS_12basic_stringIcNS_11char_traitsIcEENS1_IcEEEEEEPS6_S8_S8_EET2_RT_T0_T1_S9_, symObjAddr: 0x10FEC, symBinAddr: 0x10001344C, symSize: 0x80 }
  - { offset: 0x1AE1F, size: 0x8, addend: 0x0, symName: __ZNSt3__114__unwrap_rangeB8ne180100IPNS_12basic_stringIcNS_11char_traitsIcEENS_9allocatorIcEEEES7_EENS_4pairIT0_S9_EET_SB_, symObjAddr: 0x1106C, symBinAddr: 0x1000134CC, symSize: 0x60 }
  - { offset: 0x1AE6B, size: 0x8, addend: 0x0, symName: __ZNSt3__135__uninitialized_allocator_copy_implB8ne180100INS_9allocatorINS_12basic_stringIcNS_11char_traitsIcEENS1_IcEEEEEEPS6_S8_S8_EET2_RT_T0_T1_S9_, symObjAddr: 0x110CC, symBinAddr: 0x10001352C, symSize: 0xF4 }
  - { offset: 0x1AF09, size: 0x8, addend: 0x0, symName: __ZNSt3__19make_pairB8ne180100IPNS_12basic_stringIcNS_11char_traitsIcEENS_9allocatorIcEEEES7_EENS_4pairINS_18__unwrap_ref_decayIT_E4typeENS9_IT0_E4typeEEEOSA_OSD_, symObjAddr: 0x111C0, symBinAddr: 0x100013620, symSize: 0x38 }
  - { offset: 0x1B02C, size: 0x8, addend: 0x0, symName: __ZNSt3__123__dispatch_copy_or_moveB8ne180100INS_17_ClassicAlgPolicyENS_11__copy_loopIS1_EENS_14__copy_trivialEPNS_12basic_stringIcNS_11char_traitsIcEENS_9allocatorIcEEEESB_SB_EENS_4pairIT2_T4_EESD_T3_SE_, symObjAddr: 0x112CC, symBinAddr: 0x10001372C, symSize: 0x44 }
  - { offset: 0x1B0AA, size: 0x8, addend: 0x0, symName: __ZNSt3__121__unwrap_and_dispatchB8ne180100INS_10__overloadINS_11__copy_loopINS_17_ClassicAlgPolicyEEENS_14__copy_trivialEEEPNS_12basic_stringIcNS_11char_traitsIcEENS_9allocatorIcEEEESD_SD_Li0EEENS_4pairIT0_T2_EESF_T1_SG_, symObjAddr: 0x11310, symBinAddr: 0x100013770, symSize: 0xB4 }
  - { offset: 0x1B193, size: 0x8, addend: 0x0, symName: __ZNSt3__114__rewrap_rangeB8ne180100IPNS_12basic_stringIcNS_11char_traitsIcEENS_9allocatorIcEEEES7_EET_S8_T0_, symObjAddr: 0x1144C, symBinAddr: 0x1000138AC, symSize: 0x2C }
  - { offset: 0x1B1DF, size: 0x8, addend: 0x0, symName: __ZNSt3__110__distanceB8ne180100IPNS_12basic_stringIcNS_11char_traitsIcEENS_9allocatorIcEEEEEENS_15iterator_traitsIT_E15difference_typeES9_S9_NS_26random_access_iterator_tagE, symObjAddr: 0x114D0, symBinAddr: 0x100013930, symSize: 0x28 }
  - { offset: 0x1B22C, size: 0x8, addend: 0x0, symName: __ZNSt3__111make_uniqueB8ne180100I5OrderJRNS_12basic_stringIcNS_11char_traitsIcEENS_9allocatorIcEEEENS_10unique_ptrI7ToppingNS_14default_deleteISA_EEEES8_EEENS_11__unique_ifIT_E15__unique_singleEDpOT0_, symObjAddr: 0x117F0, symBinAddr: 0x100013C50, symSize: 0x130 }
  - { offset: 0x1B296, size: 0x8, addend: 0x0, symName: __ZNSt3__1neB8ne180100IPKNS_8functionIFNS_10unique_ptrI12FruitToppingNS_14default_deleteIS3_EEEEvEEEEEbRKNS_11__wrap_iterIT_EESF_, symObjAddr: 0x11A28, symBinAddr: 0x100013E88, symSize: 0x34 }
  - { offset: 0x1B2D9, size: 0x8, addend: 0x0, symName: __ZNSt3__1neB8ne180100IPKNS_8functionIFNS_10unique_ptrI12SweetToppingNS_14default_deleteIS3_EEEEvEEEEEbRKNS_11__wrap_iterIT_EESF_, symObjAddr: 0x11C44, symBinAddr: 0x1000140A4, symSize: 0x34 }
  - { offset: 0x1B31C, size: 0x8, addend: 0x0, symName: __ZNSt3__1eqB8ne180100IPKNS_8functionIFNS_10unique_ptrI12FruitToppingNS_14default_deleteIS3_EEEEvEEEEEbRKNS_11__wrap_iterIT_EESF_, symObjAddr: 0x11FBC, symBinAddr: 0x10001441C, symSize: 0x48 }
  - { offset: 0x1B35F, size: 0x8, addend: 0x0, symName: __ZNSt3__112__to_addressB8ne180100INS_8functionIFNS_10unique_ptrI7ToppingNS_14default_deleteIS3_EEEEvEEEEEPT_SA_, symObjAddr: 0x1228C, symBinAddr: 0x1000146EC, symSize: 0x14 }
  - { offset: 0x1B394, size: 0x8, addend: 0x0, symName: __ZNSt3__119__allocate_at_leastB8ne180100INS_9allocatorINS_8functionIFNS_10unique_ptrI7ToppingNS_14default_deleteIS4_EEEEvEEEEEEENS_19__allocation_resultINS_16allocator_traitsIT_E7pointerEEERSD_m, symObjAddr: 0x12A10, symBinAddr: 0x100014E70, symSize: 0x40 }
  - { offset: 0x1B3D7, size: 0x8, addend: 0x0, symName: __ZNSt3__142__uninitialized_allocator_move_if_noexceptB8ne180100INS_9allocatorINS_8functionIFNS_10unique_ptrI7ToppingNS_14default_deleteIS4_EEEEvEEEEENS_16reverse_iteratorIPS9_EESD_SD_EET2_RT_T0_T1_SE_, symObjAddr: 0x12BD4, symBinAddr: 0x100015034, symSize: 0x12C }
  - { offset: 0x1B477, size: 0x8, addend: 0x0, symName: __ZNSt3__14swapB8ne180100IPNS_8functionIFNS_10unique_ptrI7ToppingNS_14default_deleteIS3_EEEEvEEEEENS_9enable_ifIXaasr21is_move_constructibleIT_EE5valuesr18is_move_assignableISB_EE5valueEvE4typeERSB_SE_, symObjAddr: 0x12D4C, symBinAddr: 0x1000151AC, symSize: 0x3C }
  - { offset: 0x1B4C8, size: 0x8, addend: 0x0, symName: __ZNSt3__122__make_exception_guardB8ne180100INS_29_AllocatorDestroyRangeReverseINS_9allocatorINS_8functionIFNS_10unique_ptrI7ToppingNS_14default_deleteIS5_EEEEvEEEEENS_16reverse_iteratorIPSA_EEEEEENS_28__exception_guard_exceptionsIT_EESH_, symObjAddr: 0x12D9C, symBinAddr: 0x1000151FC, symSize: 0x4C }
  - { offset: 0x1B4FE, size: 0x8, addend: 0x0, symName: __ZNSt3__1neB8ne180100IPNS_8functionIFNS_10unique_ptrI7ToppingNS_14default_deleteIS3_EEEEvEEES9_EEbRKNS_16reverse_iteratorIT_EERKNSA_IT0_EE, symObjAddr: 0x12E2C, symBinAddr: 0x10001528C, symSize: 0x48 }
  - { offset: 0x1B54A, size: 0x8, addend: 0x0, symName: __ZNSt3__112__to_addressB8ne180100INS_16reverse_iteratorIPNS_8functionIFNS_10unique_ptrI7ToppingNS_14default_deleteIS4_EEEEvEEEEEvEEu7__decayIDTclsr19__to_address_helperIT_EE6__callclsr3stdE7declvalIRKSC_EEEEESE_, symObjAddr: 0x12E74, symBinAddr: 0x1000152D4, symSize: 0x24 }
  - { offset: 0x1B5A9, size: 0x8, addend: 0x0, symName: __ZNSt3__119__allocator_destroyB8ne180100INS_9allocatorINS_8functionIFNS_10unique_ptrI7ToppingNS_14default_deleteIS4_EEEEvEEEEENS_16reverse_iteratorINSB_IPS9_EEEESE_EEvRT_T0_T1_, symObjAddr: 0x13124, symBinAddr: 0x100015584, symSize: 0x70 }
  - { offset: 0x1B60E, size: 0x8, addend: 0x0, symName: __ZNSt3__1neB8ne180100INS_16reverse_iteratorIPNS_8functionIFNS_10unique_ptrI7ToppingNS_14default_deleteIS4_EEEEvEEEEESB_EEbRKNS1_IT_EERKNS1_IT0_EE, symObjAddr: 0x131D0, symBinAddr: 0x100015630, symSize: 0x60 }
  - { offset: 0x1B65A, size: 0x8, addend: 0x0, symName: __ZNSt3__112__to_addressB8ne180100INS_16reverse_iteratorINS1_IPNS_8functionIFNS_10unique_ptrI7ToppingNS_14default_deleteIS4_EEEEvEEEEEEEvEEu7__decayIDTclsr19__to_address_helperIT_EE6__callclsr3stdE7declvalIRKSD_EEEEESF_, symObjAddr: 0x1325C, symBinAddr: 0x1000156BC, symSize: 0x24 }
  - { offset: 0x1BCF8, size: 0x8, addend: 0x0, symName: __ZNSt3__116forward_as_tupleB8ne180100IJZNK11ToppingList16getRandomToppingEvEUlvE_EEENS_5tupleIJDpOT_EEES6_, symObjAddr: 0x141DC, symBinAddr: 0x10001663C, symSize: 0x2C }
  - { offset: 0x1BD31, size: 0x8, addend: 0x0, symName: __ZNSt3__116forward_as_tupleB8ne180100IJNS_9allocatorIZNK11ToppingList16getRandomToppingEvEUlvE_EEEEENS_5tupleIJDpOT_EEES8_, symObjAddr: 0x14208, symBinAddr: 0x100016668, symSize: 0x2C }
  - { offset: 0x1BD94, size: 0x8, addend: 0x0, symName: __ZNSt3__13getB8ne180100ILm0EJOZNK11ToppingList16getRandomToppingEvEUlvE_EEERNS_13tuple_elementIXT_ENS_5tupleIJDpT0_EEEE4typeERS8_, symObjAddr: 0x14574, symBinAddr: 0x1000169D4, symSize: 0x24 }
  - { offset: 0x1BDD6, size: 0x8, addend: 0x0, symName: __ZNSt3__13getB8ne180100ILm0EJONS_9allocatorIZNK11ToppingList16getRandomToppingEvEUlvE_EEEEERNS_13tuple_elementIXT_ENS_5tupleIJDpT0_EEEE4typeERSA_, symObjAddr: 0x14618, symBinAddr: 0x100016A78, symSize: 0x24 }
  - { offset: 0x1BF9C, size: 0x8, addend: 0x0, symName: __ZNSt3__116forward_as_tupleB8ne180100IJRKZNK11ToppingList16getRandomToppingEvEUlvE_EEENS_5tupleIJDpOT_EEES8_, symObjAddr: 0x14AD8, symBinAddr: 0x100016F38, symSize: 0x2C }
  - { offset: 0x1BFEA, size: 0x8, addend: 0x0, symName: __ZNSt3__13getB8ne180100ILm0EJRKZNK11ToppingList16getRandomToppingEvEUlvE_EEERNS_13tuple_elementIXT_ENS_5tupleIJDpT0_EEEE4typeERS9_, symObjAddr: 0x14CC8, symBinAddr: 0x100017128, symSize: 0x24 }
  - { offset: 0x1C02C, size: 0x8, addend: 0x0, symName: __ZNSt3__116forward_as_tupleB8ne180100IJRKNS_9allocatorIZNK11ToppingList16getRandomToppingEvEUlvE_EEEEENS_5tupleIJDpOT_EEESA_, symObjAddr: 0x15088, symBinAddr: 0x1000174E8, symSize: 0x2C }
  - { offset: 0x1C07A, size: 0x8, addend: 0x0, symName: __ZNSt3__13getB8ne180100ILm0EJRKNS_9allocatorIZNK11ToppingList16getRandomToppingEvEUlvE_EEEEERNS_13tuple_elementIXT_ENS_5tupleIJDpT0_EEEE4typeERSB_, symObjAddr: 0x15294, symBinAddr: 0x1000176F4, symSize: 0x24 }
  - { offset: 0x1C118, size: 0x8, addend: 0x0, symName: __ZNSt3__18__invokeB8ne180100IRZNK11ToppingList16getRandomToppingEvEUlvE_JEEEDTclclsr3stdE7declvalIT_EEspclsr3stdE7declvalIT0_EEEEOS4_DpOS5_, symObjAddr: 0x15394, symBinAddr: 0x1000177F4, symSize: 0x2C }
  - { offset: 0x1C154, size: 0x8, addend: 0x0, symName: __ZNSt3__125__throw_bad_function_callB8ne180100Ev, symObjAddr: 0x154D4, symBinAddr: 0x100017934, symSize: 0x38 }
  - { offset: 0x1C1D4, size: 0x8, addend: 0x0, symName: __ZNSt3__1eqB8ne180100IPKNS_8functionIFNS_10unique_ptrI12SweetToppingNS_14default_deleteIS3_EEEEvEEEEEbRKNS_11__wrap_iterIT_EESF_, symObjAddr: 0x15B90, symBinAddr: 0x100017FF0, symSize: 0x48 }
  - { offset: 0x1C84B, size: 0x8, addend: 0x0, symName: __ZNSt3__116forward_as_tupleB8ne180100IJZNK11ToppingList16getRandomToppingEvEUlvE0_EEENS_5tupleIJDpOT_EEES6_, symObjAddr: 0x16714, symBinAddr: 0x100018B74, symSize: 0x2C }
  - { offset: 0x1C884, size: 0x8, addend: 0x0, symName: __ZNSt3__116forward_as_tupleB8ne180100IJNS_9allocatorIZNK11ToppingList16getRandomToppingEvEUlvE0_EEEEENS_5tupleIJDpOT_EEES8_, symObjAddr: 0x16740, symBinAddr: 0x100018BA0, symSize: 0x2C }
  - { offset: 0x1C8E7, size: 0x8, addend: 0x0, symName: __ZNSt3__13getB8ne180100ILm0EJOZNK11ToppingList16getRandomToppingEvEUlvE0_EEERNS_13tuple_elementIXT_ENS_5tupleIJDpT0_EEEE4typeERS8_, symObjAddr: 0x16AAC, symBinAddr: 0x100018F0C, symSize: 0x24 }
  - { offset: 0x1C929, size: 0x8, addend: 0x0, symName: __ZNSt3__13getB8ne180100ILm0EJONS_9allocatorIZNK11ToppingList16getRandomToppingEvEUlvE0_EEEEERNS_13tuple_elementIXT_ENS_5tupleIJDpT0_EEEE4typeERSA_, symObjAddr: 0x16B50, symBinAddr: 0x100018FB0, symSize: 0x24 }
  - { offset: 0x1CAEF, size: 0x8, addend: 0x0, symName: __ZNSt3__116forward_as_tupleB8ne180100IJRKZNK11ToppingList16getRandomToppingEvEUlvE0_EEENS_5tupleIJDpOT_EEES8_, symObjAddr: 0x17010, symBinAddr: 0x100019470, symSize: 0x2C }
  - { offset: 0x1CB3D, size: 0x8, addend: 0x0, symName: __ZNSt3__13getB8ne180100ILm0EJRKZNK11ToppingList16getRandomToppingEvEUlvE0_EEERNS_13tuple_elementIXT_ENS_5tupleIJDpT0_EEEE4typeERS9_, symObjAddr: 0x17200, symBinAddr: 0x100019660, symSize: 0x24 }
  - { offset: 0x1CB7F, size: 0x8, addend: 0x0, symName: __ZNSt3__116forward_as_tupleB8ne180100IJRKNS_9allocatorIZNK11ToppingList16getRandomToppingEvEUlvE0_EEEEENS_5tupleIJDpOT_EEESA_, symObjAddr: 0x175C0, symBinAddr: 0x100019A20, symSize: 0x2C }
  - { offset: 0x1CBCD, size: 0x8, addend: 0x0, symName: __ZNSt3__13getB8ne180100ILm0EJRKNS_9allocatorIZNK11ToppingList16getRandomToppingEvEUlvE0_EEEEERNS_13tuple_elementIXT_ENS_5tupleIJDpT0_EEEE4typeERSB_, symObjAddr: 0x177CC, symBinAddr: 0x100019C2C, symSize: 0x24 }
  - { offset: 0x1CC0F, size: 0x8, addend: 0x0, symName: __ZNSt3__18__invokeB8ne180100IRZNK11ToppingList16getRandomToppingEvEUlvE0_JEEEDTclclsr3stdE7declvalIT_EEspclsr3stdE7declvalIT0_EEEEOS4_DpOS5_, symObjAddr: 0x178CC, symBinAddr: 0x100019D2C, symSize: 0x2C }
  - { offset: 0x1CC4B, size: 0x8, addend: 0x0, symName: __ZNSt3__1eqB8ne180100IP8CustomerEEbRKNS_11__wrap_iterIT_EES7_, symObjAddr: 0x18898, symBinAddr: 0x10001ACF8, symSize: 0x48 }
  - { offset: 0x1CC8E, size: 0x8, addend: 0x0, symName: __ZNSt3__17getlineB8ne180100IcNS_11char_traitsIcEENS_9allocatorIcEEEERNS_13basic_istreamIT_T0_EES9_RNS_12basic_stringIS6_S7_T1_EE, symObjAddr: 0x18C20, symBinAddr: 0x10001B080, symSize: 0x5C }
  - { offset: 0x1CCE6, size: 0x8, addend: 0x0, symName: __ZNSt3__17getlineB8ne180100IcNS_11char_traitsIcEENS_9allocatorIcEEEERNS_13basic_istreamIT_T0_EES9_RNS_12basic_stringIS6_S7_T1_EES6_, symObjAddr: 0x18C7C, symBinAddr: 0x10001B0DC, symSize: 0x238 }
  - { offset: 0x1D577, size: 0x8, addend: 0x0, symName: __ZNSt3__1neB8ne180100IPNS_12basic_stringIcNS_11char_traitsIcEENS_9allocatorIcEEEEEEbRKNS_11__wrap_iterIT_EESC_, symObjAddr: 0x198D8, symBinAddr: 0x10001BD38, symSize: 0x34 }
  - { offset: 0x1D5BA, size: 0x8, addend: 0x0, symName: __ZNSt3__1eqB8ne180100IPNS_12basic_stringIcNS_11char_traitsIcEENS_9allocatorIcEEEEEEbRKNS_11__wrap_iterIT_EESC_, symObjAddr: 0x19924, symBinAddr: 0x10001BD84, symSize: 0x48 }
  - { offset: 0x1D5FD, size: 0x8, addend: 0x0, symName: __ZNSt3__14findB8ne180100INS_11__wrap_iterIPNS_12basic_stringIcNS_11char_traitsIcEENS_9allocatorIcEEEEEES7_EET_SA_SA_RKT0_, symObjAddr: 0x1996C, symBinAddr: 0x10001BDCC, symSize: 0x78 }
  - { offset: 0x1D665, size: 0x8, addend: 0x0, symName: __ZNSt3__113__rewrap_iterB8ne180100INS_11__wrap_iterIPNS_12basic_stringIcNS_11char_traitsIcEENS_9allocatorIcEEEEEES8_NS_18__unwrap_iter_implIS9_Lb1EEEEET_SC_T0_, symObjAddr: 0x19B30, symBinAddr: 0x10001BF90, symSize: 0x4C }
  - { offset: 0x1D6BA, size: 0x8, addend: 0x0, symName: __ZNSt3__111__find_implB8ne180100IPNS_12basic_stringIcNS_11char_traitsIcEENS_9allocatorIcEEEES7_S6_NS_10__identityEEET_S9_T0_RKT1_RT2_, symObjAddr: 0x19B7C, symBinAddr: 0x10001BFDC, symSize: 0x7C }
  - { offset: 0x1D734, size: 0x8, addend: 0x0, symName: __ZNSt3__113__unwrap_iterB8ne180100INS_11__wrap_iterIPNS_12basic_stringIcNS_11char_traitsIcEENS_9allocatorIcEEEEEENS_18__unwrap_iter_implIS9_Lb1EEELi0EEEDTclsrT0_8__unwrapclsr3stdE7declvalIT_EEEESD_, symObjAddr: 0x19BF8, symBinAddr: 0x10001C058, symSize: 0x2C }
  - { offset: 0x1D7CB, size: 0x8, addend: 0x0, symName: __ZNSt3__112__to_addressB8ne180100INS_11__wrap_iterIPNS_12basic_stringIcNS_11char_traitsIcEENS_9allocatorIcEEEEEEvEEu7__decayIDTclsr19__to_address_helperIT_EE6__callclsr3stdE7declvalIRKSA_EEEEESC_, symObjAddr: 0x19CBC, symBinAddr: 0x10001C11C, symSize: 0x24 }
  - { offset: 0x1D8A6, size: 0x8, addend: 0x0, symName: __ZNSt3__1eqB8ne180100INS_9allocatorIcEEEEbRKNS_12basic_stringIcNS_11char_traitsIcEET_EES9_, symObjAddr: 0x19D6C, symBinAddr: 0x10001C1CC, symSize: 0x148 }
  - { offset: 0x1D919, size: 0x8, addend: 0x0, symName: __ZNSt3__18__invokeB8ne180100IRNS_10__identityEJRNS_12basic_stringIcNS_11char_traitsIcEENS_9allocatorIcEEEEEEEDTclclsr3stdE7declvalIT_EEspclsr3stdE7declvalIT0_EEEEOSA_DpOSB_, symObjAddr: 0x19EB4, symBinAddr: 0x10001C314, symSize: 0x2C }
  - { offset: 0x1D997, size: 0x8, addend: 0x0, symName: __ZNSt3__142__uninitialized_allocator_move_if_noexceptB8ne180100INS_9allocatorINS_12basic_stringIcNS_11char_traitsIcEENS1_IcEEEEEENS_16reverse_iteratorIPS6_EESA_SA_EET2_RT_T0_T1_SB_, symObjAddr: 0x1A484, symBinAddr: 0x10001C8E4, symSize: 0x11C }
  - { offset: 0x1DA37, size: 0x8, addend: 0x0, symName: __ZNSt3__14swapB8ne180100IPNS_12basic_stringIcNS_11char_traitsIcEENS_9allocatorIcEEEEEENS_9enable_ifIXaasr21is_move_constructibleIT_EE5valuesr18is_move_assignableIS9_EE5valueEvE4typeERS9_SC_, symObjAddr: 0x1A5A0, symBinAddr: 0x10001CA00, symSize: 0x3C }
  - { offset: 0x1DA88, size: 0x8, addend: 0x0, symName: __ZNSt3__122__make_exception_guardB8ne180100INS_29_AllocatorDestroyRangeReverseINS_9allocatorINS_12basic_stringIcNS_11char_traitsIcEENS2_IcEEEEEENS_16reverse_iteratorIPS7_EEEEEENS_28__exception_guard_exceptionsIT_EESE_, symObjAddr: 0x1A5DC, symBinAddr: 0x10001CA3C, symSize: 0x4C }
  - { offset: 0x1DABE, size: 0x8, addend: 0x0, symName: __ZNSt3__119__allocator_destroyB8ne180100INS_9allocatorINS_12basic_stringIcNS_11char_traitsIcEENS1_IcEEEEEENS_16reverse_iteratorINS8_IPS6_EEEESB_EEvRT_T0_T1_, symObjAddr: 0x1A8B8, symBinAddr: 0x10001CD18, symSize: 0x70 }
  - { offset: 0x1DB23, size: 0x8, addend: 0x0, symName: __ZNSt3__1neB8ne180100INS_16reverse_iteratorIPNS_12basic_stringIcNS_11char_traitsIcEENS_9allocatorIcEEEEEES9_EEbRKNS1_IT_EERKNS1_IT0_EE, symObjAddr: 0x1A964, symBinAddr: 0x10001CDC4, symSize: 0x60 }
  - { offset: 0x1DB6F, size: 0x8, addend: 0x0, symName: __ZNSt3__112__to_addressB8ne180100INS_16reverse_iteratorINS1_IPNS_12basic_stringIcNS_11char_traitsIcEENS_9allocatorIcEEEEEEEEvEEu7__decayIDTclsr19__to_address_helperIT_EE6__callclsr3stdE7declvalIRKSB_EEEEESD_, symObjAddr: 0x1A9C4, symBinAddr: 0x10001CE24, symSize: 0x24 }
  - { offset: 0x1F16C, size: 0x8, addend: 0x0, symName: __ZSt28__throw_bad_array_new_lengthB8ne180100v, symObjAddr: 0x15A4, symBinAddr: 0x100003A04, symSize: 0x34 }
  - { offset: 0x20394, size: 0x8, addend: 0x0, symName: __ZNSt3__16vectorI8CustomerNS_9allocatorIS1_EEE26__swap_out_circular_bufferERNS_14__split_bufferIS1_RS3_EE, symObjAddr: 0x4B18, symBinAddr: 0x100006F78, symSize: 0x110 }
  - { offset: 0x20428, size: 0x8, addend: 0x0, symName: __ZNSt3__16vectorINS_8functionIFNS_10unique_ptrI12FruitToppingNS_14default_deleteIS3_EEEEvEEENS_9allocatorIS8_EEE26__swap_out_circular_bufferERNS_14__split_bufferIS8_RSA_EE, symObjAddr: 0x6F44, symBinAddr: 0x1000093A4, symSize: 0x110 }
  - { offset: 0x204BC, size: 0x8, addend: 0x0, symName: __ZN11ToppingListC2Ev, symObjAddr: 0x6304, symBinAddr: 0x100008764, symSize: 0x1A4 }
  - { offset: 0x20980, size: 0x8, addend: 0x0, symName: __ZNSt3__16vectorINS_8functionIFNS_10unique_ptrI12SweetToppingNS_14default_deleteIS3_EEEEvEEENS_9allocatorIS8_EEE26__swap_out_circular_bufferERNS_14__split_bufferIS8_RSA_EE, symObjAddr: 0xBC80, symBinAddr: 0x10000E0E0, symSize: 0x110 }
  - { offset: 0x20FFF, size: 0x8, addend: 0x0, symName: __ZNSt3__16vectorINS_8functionIFNS_10unique_ptrI7ToppingNS_14default_deleteIS3_EEEEvEEENS_9allocatorIS8_EEE26__swap_out_circular_bufferERNS_14__split_bufferIS8_RSA_EE, symObjAddr: 0x12610, symBinAddr: 0x100014A70, symSize: 0x110 }
  - { offset: 0x21093, size: 0x8, addend: 0x0, symName: __ZNK11ToppingList16getRandomToppingEv, symObjAddr: 0x11568, symBinAddr: 0x1000139C8, symSize: 0x288 }
  - { offset: 0x21636, size: 0x8, addend: 0x0, symName: __ZNSt3__16vectorINS_12basic_stringIcNS_11char_traitsIcEENS_9allocatorIcEEEENS4_IS6_EEE26__swap_out_circular_bufferERNS_14__split_bufferIS6_RS7_EE, symObjAddr: 0x1A110, symBinAddr: 0x10001C570, symSize: 0x110 }
  - { offset: 0x216D9, size: 0x8, addend: 0x0, symName: _main, symObjAddr: 0x0, symBinAddr: 0x100002460, symSize: 0x64 }
  - { offset: 0x219D0, size: 0x8, addend: 0x0, symName: __ZN4GameC1Ev, symObjAddr: 0x64, symBinAddr: 0x1000024C4, symSize: 0x2C }
  - { offset: 0x219FC, size: 0x8, addend: 0x0, symName: __ZN4Game4playEv, symObjAddr: 0x90, symBinAddr: 0x1000024F0, symSize: 0x5B0 }
  - { offset: 0x21AFB, size: 0x8, addend: 0x0, symName: __ZN4GameD1Ev, symObjAddr: 0x640, symBinAddr: 0x100002AA0, symSize: 0x2C }
  - { offset: 0x21B27, size: 0x8, addend: 0x0, symName: __ZN4GameC2Ev, symObjAddr: 0x66C, symBinAddr: 0x100002ACC, symSize: 0x404 }
  - { offset: 0x21B59, size: 0x8, addend: 0x0, symName: __ZNSt3__112basic_stringIcNS_11char_traitsIcEENS_9allocatorIcEEEC1B8ne180100ILi0EEEPKc, symObjAddr: 0xA70, symBinAddr: 0x100002ED0, symSize: 0x34 }
  - { offset: 0x21B98, size: 0x8, addend: 0x0, symName: __ZNSt3__16vectorINS_12basic_stringIcNS_11char_traitsIcEENS_9allocatorIcEEEENS4_IS6_EEEC1B8ne180100ESt16initializer_listIS6_E, symObjAddr: 0xAA4, symBinAddr: 0x100002F04, symSize: 0x3C }
  - { offset: 0x21BD3, size: 0x8, addend: 0x0, symName: __ZN11PlayerLevelC1Ev, symObjAddr: 0xAE0, symBinAddr: 0x100002F40, symSize: 0x2C }
  - { offset: 0x21BFD, size: 0x8, addend: 0x0, symName: __ZNSt3__16vectorINS_12basic_stringIcNS_11char_traitsIcEENS_9allocatorIcEEEENS4_IS6_EEED1B8ne180100Ev, symObjAddr: 0xB0C, symBinAddr: 0x100002F6C, symSize: 0x2C }
  - { offset: 0x21C27, size: 0x8, addend: 0x0, symName: __ZNSt3__112basic_stringIcNS_11char_traitsIcEENS_9allocatorIcEEEC2B8ne180100ILi0EEEPKc, symObjAddr: 0xB38, symBinAddr: 0x100002F98, symSize: 0x58 }
  - { offset: 0x21C6C, size: 0x8, addend: 0x0, symName: __ZNSt3__117__compressed_pairINS_12basic_stringIcNS_11char_traitsIcEENS_9allocatorIcEEE5__repES5_EC1B8ne180100INS_18__default_init_tagESA_EEOT_OT0_, symObjAddr: 0xB90, symBinAddr: 0x100002FF0, symSize: 0x3C }
  - { offset: 0x21CC4, size: 0x8, addend: 0x0, symName: __ZNSt3__111char_traitsIcE6lengthB8ne180100EPKc, symObjAddr: 0xBCC, symBinAddr: 0x10000302C, symSize: 0x34 }
  - { offset: 0x21CE7, size: 0x8, addend: 0x0, symName: __ZNSt3__117__compressed_pairINS_12basic_stringIcNS_11char_traitsIcEENS_9allocatorIcEEE5__repES5_EC2B8ne180100INS_18__default_init_tagESA_EEOT_OT0_, symObjAddr: 0xC00, symBinAddr: 0x100003060, symSize: 0x3C }
  - { offset: 0x21D3F, size: 0x8, addend: 0x0, symName: __ZNSt3__122__compressed_pair_elemINS_12basic_stringIcNS_11char_traitsIcEENS_9allocatorIcEEE5__repELi0ELb0EEC2B8ne180100ENS_18__default_init_tagE, symObjAddr: 0xC3C, symBinAddr: 0x10000309C, symSize: 0x14 }
  - { offset: 0x21D73, size: 0x8, addend: 0x0, symName: __ZNSt3__122__compressed_pair_elemINS_9allocatorIcEELi1ELb1EEC2B8ne180100ENS_18__default_init_tagE, symObjAddr: 0xC50, symBinAddr: 0x1000030B0, symSize: 0x2C }
  - { offset: 0x21DA7, size: 0x8, addend: 0x0, symName: __ZNSt3__19allocatorIcEC2B8ne180100Ev, symObjAddr: 0xC7C, symBinAddr: 0x1000030DC, symSize: 0x2C }
  - { offset: 0x21DD1, size: 0x8, addend: 0x0, symName: __ZNSt3__116__non_trivial_ifILb1ENS_9allocatorIcEEEC2B8ne180100Ev, symObjAddr: 0xCA8, symBinAddr: 0x100003108, symSize: 0x14 }
  - { offset: 0x21DFB, size: 0x8, addend: 0x0, symName: __ZNSt3__16vectorINS_12basic_stringIcNS_11char_traitsIcEENS_9allocatorIcEEEENS4_IS6_EEEC2B8ne180100ESt16initializer_listIS6_E, symObjAddr: 0xCF0, symBinAddr: 0x100003150, symSize: 0x120 }
  - { offset: 0x21E51, size: 0x8, addend: 0x0, symName: __ZNSt3__117__compressed_pairIPNS_12basic_stringIcNS_11char_traitsIcEENS_9allocatorIcEEEENS4_IS6_EEEC1B8ne180100IDnNS_18__default_init_tagEEEOT_OT0_, symObjAddr: 0xE10, symBinAddr: 0x100003270, symSize: 0x3C }
  - { offset: 0x21EA9, size: 0x8, addend: 0x0, symName: __ZNSt3__16vectorINS_12basic_stringIcNS_11char_traitsIcEENS_9allocatorIcEEEENS4_IS6_EEE16__destroy_vectorC1B8ne180100ERS8_, symObjAddr: 0xE8C, symBinAddr: 0x1000032EC, symSize: 0x34 }
  - { offset: 0x21EE2, size: 0x8, addend: 0x0, symName: __ZNKSt16initializer_listINSt3__112basic_stringIcNS0_11char_traitsIcEENS0_9allocatorIcEEEEE4sizeB8ne180100Ev, symObjAddr: 0xEC0, symBinAddr: 0x100003320, symSize: 0x18 }
  - { offset: 0x21F08, size: 0x8, addend: 0x0, symName: __ZNSt3__16vectorINS_12basic_stringIcNS_11char_traitsIcEENS_9allocatorIcEEEENS4_IS6_EEE11__vallocateB8ne180100Em, symObjAddr: 0xED8, symBinAddr: 0x100003338, symSize: 0xB4 }
  - { offset: 0x21F4C, size: 0x8, addend: 0x0, symName: __ZNSt3__16vectorINS_12basic_stringIcNS_11char_traitsIcEENS_9allocatorIcEEEENS4_IS6_EEE18__construct_at_endIPKS6_SB_EEvT_T0_m, symObjAddr: 0xF8C, symBinAddr: 0x1000033EC, symSize: 0x8C }
  - { offset: 0x21FC2, size: 0x8, addend: 0x0, symName: __ZNKSt16initializer_listINSt3__112basic_stringIcNS0_11char_traitsIcEENS0_9allocatorIcEEEEE5beginB8ne180100Ev, symObjAddr: 0x1018, symBinAddr: 0x100003478, symSize: 0x18 }
  - { offset: 0x21FE8, size: 0x8, addend: 0x0, symName: __ZNKSt16initializer_listINSt3__112basic_stringIcNS0_11char_traitsIcEENS0_9allocatorIcEEEEE3endB8ne180100Ev, symObjAddr: 0x1030, symBinAddr: 0x100003490, symSize: 0x28 }
  - { offset: 0x2200E, size: 0x8, addend: 0x0, symName: __ZNSt3__128__exception_guard_exceptionsINS_6vectorINS_12basic_stringIcNS_11char_traitsIcEENS_9allocatorIcEEEENS5_IS7_EEE16__destroy_vectorEE10__completeB8ne180100Ev, symObjAddr: 0x1058, symBinAddr: 0x1000034B8, symSize: 0x1C }
  - { offset: 0x22034, size: 0x8, addend: 0x0, symName: __ZNSt3__128__exception_guard_exceptionsINS_6vectorINS_12basic_stringIcNS_11char_traitsIcEENS_9allocatorIcEEEENS5_IS7_EEE16__destroy_vectorEED1B8ne180100Ev, symObjAddr: 0x1074, symBinAddr: 0x1000034D4, symSize: 0x2C }
  - { offset: 0x2205E, size: 0x8, addend: 0x0, symName: __ZNSt3__117__compressed_pairIPNS_12basic_stringIcNS_11char_traitsIcEENS_9allocatorIcEEEENS4_IS6_EEEC2B8ne180100IDnNS_18__default_init_tagEEEOT_OT0_, symObjAddr: 0x10A0, symBinAddr: 0x100003500, symSize: 0x40 }
  - { offset: 0x220B6, size: 0x8, addend: 0x0, symName: __ZNSt3__122__compressed_pair_elemIPNS_12basic_stringIcNS_11char_traitsIcEENS_9allocatorIcEEEELi0ELb0EEC2B8ne180100IDnvEEOT_, symObjAddr: 0x10E0, symBinAddr: 0x100003540, symSize: 0x1C }
  - { offset: 0x220F8, size: 0x8, addend: 0x0, symName: __ZNSt3__122__compressed_pair_elemINS_9allocatorINS_12basic_stringIcNS_11char_traitsIcEENS1_IcEEEEEELi1ELb1EEC2B8ne180100ENS_18__default_init_tagE, symObjAddr: 0x10FC, symBinAddr: 0x10000355C, symSize: 0x2C }
  - { offset: 0x2212C, size: 0x8, addend: 0x0, symName: __ZNSt3__19allocatorINS_12basic_stringIcNS_11char_traitsIcEENS0_IcEEEEEC2B8ne180100Ev, symObjAddr: 0x1128, symBinAddr: 0x100003588, symSize: 0x2C }
  - { offset: 0x22156, size: 0x8, addend: 0x0, symName: __ZNSt3__116__non_trivial_ifILb1ENS_9allocatorINS_12basic_stringIcNS_11char_traitsIcEENS1_IcEEEEEEEC2B8ne180100Ev, symObjAddr: 0x1154, symBinAddr: 0x1000035B4, symSize: 0x14 }
  - { offset: 0x22180, size: 0x8, addend: 0x0, symName: __ZNSt3__128__exception_guard_exceptionsINS_6vectorINS_12basic_stringIcNS_11char_traitsIcEENS_9allocatorIcEEEENS5_IS7_EEE16__destroy_vectorEEC1B8ne180100ESA_, symObjAddr: 0x1168, symBinAddr: 0x1000035C8, symSize: 0x34 }
  - { offset: 0x221B8, size: 0x8, addend: 0x0, symName: __ZNSt3__128__exception_guard_exceptionsINS_6vectorINS_12basic_stringIcNS_11char_traitsIcEENS_9allocatorIcEEEENS5_IS7_EEE16__destroy_vectorEEC2B8ne180100ESA_, symObjAddr: 0x119C, symBinAddr: 0x1000035FC, symSize: 0x24 }
  - { offset: 0x221F0, size: 0x8, addend: 0x0, symName: __ZNSt3__16vectorINS_12basic_stringIcNS_11char_traitsIcEENS_9allocatorIcEEEENS4_IS6_EEE16__destroy_vectorC2B8ne180100ERS8_, symObjAddr: 0x11C0, symBinAddr: 0x100003620, symSize: 0x20 }
  - { offset: 0x22229, size: 0x8, addend: 0x0, symName: __ZNKSt3__16vectorINS_12basic_stringIcNS_11char_traitsIcEENS_9allocatorIcEEEENS4_IS6_EEE8max_sizeEv, symObjAddr: 0x11E0, symBinAddr: 0x100003640, symSize: 0x60 }
  - { offset: 0x22251, size: 0x8, addend: 0x0, symName: __ZNKSt3__16vectorINS_12basic_stringIcNS_11char_traitsIcEENS_9allocatorIcEEEENS4_IS6_EEE20__throw_length_errorB8ne180100Ev, symObjAddr: 0x1240, symBinAddr: 0x1000036A0, symSize: 0x1C }
  - { offset: 0x22277, size: 0x8, addend: 0x0, symName: __ZNSt3__16vectorINS_12basic_stringIcNS_11char_traitsIcEENS_9allocatorIcEEEENS4_IS6_EEE7__allocB8ne180100Ev, symObjAddr: 0x129C, symBinAddr: 0x1000036FC, symSize: 0x28 }
  - { offset: 0x2229D, size: 0x8, addend: 0x0, symName: __ZNSt3__16vectorINS_12basic_stringIcNS_11char_traitsIcEENS_9allocatorIcEEEENS4_IS6_EEE9__end_capB8ne180100Ev, symObjAddr: 0x12C4, symBinAddr: 0x100003724, symSize: 0x28 }
  - { offset: 0x222C3, size: 0x8, addend: 0x0, symName: __ZNKSt3__16vectorINS_12basic_stringIcNS_11char_traitsIcEENS_9allocatorIcEEEENS4_IS6_EEE14__annotate_newB8ne180100Em, symObjAddr: 0x12EC, symBinAddr: 0x10000374C, symSize: 0x14 }
  - { offset: 0x22302, size: 0x8, addend: 0x0, symName: __ZNSt3__116allocator_traitsINS_9allocatorINS_12basic_stringIcNS_11char_traitsIcEENS1_IcEEEEEEE8max_sizeB8ne180100IS7_vEEmRKS7_, symObjAddr: 0x132C, symBinAddr: 0x10000378C, symSize: 0x24 }
  - { offset: 0x22330, size: 0x8, addend: 0x0, symName: __ZNKSt3__16vectorINS_12basic_stringIcNS_11char_traitsIcEENS_9allocatorIcEEEENS4_IS6_EEE7__allocB8ne180100Ev, symObjAddr: 0x1350, symBinAddr: 0x1000037B0, symSize: 0x28 }
  - { offset: 0x22356, size: 0x8, addend: 0x0, symName: __ZNSt3__114numeric_limitsIlE3maxB8ne180100Ev, symObjAddr: 0x1378, symBinAddr: 0x1000037D8, symSize: 0x14 }
  - { offset: 0x22379, size: 0x8, addend: 0x0, symName: __ZNKSt3__16__lessIvvEclB8ne180100ImmEEbRKT_RKT0_, symObjAddr: 0x13E0, symBinAddr: 0x100003840, symSize: 0x34 }
  - { offset: 0x223CD, size: 0x8, addend: 0x0, symName: __ZNKSt3__19allocatorINS_12basic_stringIcNS_11char_traitsIcEENS0_IcEEEEE8max_sizeB8ne180100Ev, symObjAddr: 0x1414, symBinAddr: 0x100003874, symSize: 0x18 }
  - { offset: 0x223F3, size: 0x8, addend: 0x0, symName: __ZNKSt3__117__compressed_pairIPNS_12basic_stringIcNS_11char_traitsIcEENS_9allocatorIcEEEENS4_IS6_EEE6secondB8ne180100Ev, symObjAddr: 0x142C, symBinAddr: 0x10000388C, symSize: 0x24 }
  - { offset: 0x22419, size: 0x8, addend: 0x0, symName: __ZNKSt3__122__compressed_pair_elemINS_9allocatorINS_12basic_stringIcNS_11char_traitsIcEENS1_IcEEEEEELi1ELb1EE5__getB8ne180100Ev, symObjAddr: 0x1450, symBinAddr: 0x1000038B0, symSize: 0x14 }
  - { offset: 0x2243F, size: 0x8, addend: 0x0, symName: __ZNSt3__123__libcpp_numeric_limitsIlLb1EE3maxB8ne180100Ev, symObjAddr: 0x1464, symBinAddr: 0x1000038C4, symSize: 0x8 }
  - { offset: 0x22453, size: 0x8, addend: 0x0, symName: __ZNSt12length_errorC1B8ne180100EPKc, symObjAddr: 0x14D0, symBinAddr: 0x100003930, symSize: 0x34 }
  - { offset: 0x2248B, size: 0x8, addend: 0x0, symName: __ZNSt12length_errorC2B8ne180100EPKc, symObjAddr: 0x1504, symBinAddr: 0x100003964, symSize: 0x44 }
  - { offset: 0x224C3, size: 0x8, addend: 0x0, symName: __ZNSt3__19allocatorINS_12basic_stringIcNS_11char_traitsIcEENS0_IcEEEEE8allocateB8ne180100Em, symObjAddr: 0x1548, symBinAddr: 0x1000039A8, symSize: 0x5C }
  - { offset: 0x224F7, size: 0x8, addend: 0x0, symName: __ZNSt3__117__compressed_pairIPNS_12basic_stringIcNS_11char_traitsIcEENS_9allocatorIcEEEENS4_IS6_EEE6secondB8ne180100Ev, symObjAddr: 0x1624, symBinAddr: 0x100003A84, symSize: 0x24 }
  - { offset: 0x2251D, size: 0x8, addend: 0x0, symName: __ZNSt3__122__compressed_pair_elemINS_9allocatorINS_12basic_stringIcNS_11char_traitsIcEENS1_IcEEEEEELi1ELb1EE5__getB8ne180100Ev, symObjAddr: 0x1648, symBinAddr: 0x100003AA8, symSize: 0x14 }
  - { offset: 0x22543, size: 0x8, addend: 0x0, symName: __ZNSt3__117__compressed_pairIPNS_12basic_stringIcNS_11char_traitsIcEENS_9allocatorIcEEEENS4_IS6_EEE5firstB8ne180100Ev, symObjAddr: 0x165C, symBinAddr: 0x100003ABC, symSize: 0x24 }
  - { offset: 0x22569, size: 0x8, addend: 0x0, symName: __ZNSt3__122__compressed_pair_elemIPNS_12basic_stringIcNS_11char_traitsIcEENS_9allocatorIcEEEELi0ELb0EE5__getB8ne180100Ev, symObjAddr: 0x1680, symBinAddr: 0x100003AE0, symSize: 0x14 }
  - { offset: 0x225A8, size: 0x8, addend: 0x0, symName: __ZNSt3__16vectorINS_12basic_stringIcNS_11char_traitsIcEENS_9allocatorIcEEEENS4_IS6_EEE21_ConstructTransactionC1B8ne180100ERS8_m, symObjAddr: 0x1694, symBinAddr: 0x100003AF4, symSize: 0x3C }
  - { offset: 0x225F0, size: 0x8, addend: 0x0, symName: __ZNSt3__16vectorINS_12basic_stringIcNS_11char_traitsIcEENS_9allocatorIcEEEENS4_IS6_EEE21_ConstructTransactionD1B8ne180100Ev, symObjAddr: 0x1750, symBinAddr: 0x100003BB0, symSize: 0x2C }
  - { offset: 0x2261A, size: 0x8, addend: 0x0, symName: __ZNSt3__16vectorINS_12basic_stringIcNS_11char_traitsIcEENS_9allocatorIcEEEENS4_IS6_EEE21_ConstructTransactionC2B8ne180100ERS8_m, symObjAddr: 0x177C, symBinAddr: 0x100003BDC, symSize: 0x4C }
  - { offset: 0x22682, size: 0x8, addend: 0x0, symName: __ZNSt3__14pairIPKNS_12basic_stringIcNS_11char_traitsIcEENS_9allocatorIcEEEES8_EC1B8ne180100IS8_S8_Li0EEEOT_OT0_, symObjAddr: 0x19D8, symBinAddr: 0x100003E38, symSize: 0x3C }
  - { offset: 0x226E0, size: 0x8, addend: 0x0, symName: __ZNSt3__14pairIPKNS_12basic_stringIcNS_11char_traitsIcEENS_9allocatorIcEEEES8_EC2B8ne180100IS8_S8_Li0EEEOT_OT0_, symObjAddr: 0x1A14, symBinAddr: 0x100003E74, symSize: 0x34 }
  - { offset: 0x2273E, size: 0x8, addend: 0x0, symName: __ZNSt3__118__unwrap_iter_implIPKNS_12basic_stringIcNS_11char_traitsIcEENS_9allocatorIcEEEELb1EE8__unwrapB8ne180100ES8_, symObjAddr: 0x1A48, symBinAddr: 0x100003EA8, symSize: 0x24 }
  - { offset: 0x22761, size: 0x8, addend: 0x0, symName: __ZNSt3__129_AllocatorDestroyRangeReverseINS_9allocatorINS_12basic_stringIcNS_11char_traitsIcEENS1_IcEEEEEEPS6_EC1B8ne180100ERS7_RS8_SB_, symObjAddr: 0x1ACC, symBinAddr: 0x100003F2C, symSize: 0x44 }
  - { offset: 0x227B8, size: 0x8, addend: 0x0, symName: __ZNSt3__116allocator_traitsINS_9allocatorINS_12basic_stringIcNS_11char_traitsIcEENS1_IcEEEEEEE9constructB8ne180100IS6_JRKS6_EvEEvRS7_PT_DpOT0_, symObjAddr: 0x1B10, symBinAddr: 0x100003F70, symSize: 0x34 }
  - { offset: 0x2280F, size: 0x8, addend: 0x0, symName: __ZNSt3__128__exception_guard_exceptionsINS_29_AllocatorDestroyRangeReverseINS_9allocatorINS_12basic_stringIcNS_11char_traitsIcEENS2_IcEEEEEEPS7_EEE10__completeB8ne180100Ev, symObjAddr: 0x1B58, symBinAddr: 0x100003FB8, symSize: 0x1C }
  - { offset: 0x22835, size: 0x8, addend: 0x0, symName: __ZNSt3__128__exception_guard_exceptionsINS_29_AllocatorDestroyRangeReverseINS_9allocatorINS_12basic_stringIcNS_11char_traitsIcEENS2_IcEEEEEEPS7_EEED1B8ne180100Ev, symObjAddr: 0x1B74, symBinAddr: 0x100003FD4, symSize: 0x2C }
  - { offset: 0x2285F, size: 0x8, addend: 0x0, symName: __ZNSt3__128__exception_guard_exceptionsINS_29_AllocatorDestroyRangeReverseINS_9allocatorINS_12basic_stringIcNS_11char_traitsIcEENS2_IcEEEEEEPS7_EEEC1B8ne180100ESA_, symObjAddr: 0x1BA0, symBinAddr: 0x100004000, symSize: 0x34 }
  - { offset: 0x22898, size: 0x8, addend: 0x0, symName: __ZNSt3__128__exception_guard_exceptionsINS_29_AllocatorDestroyRangeReverseINS_9allocatorINS_12basic_stringIcNS_11char_traitsIcEENS2_IcEEEEEEPS7_EEEC2B8ne180100ESA_, symObjAddr: 0x1BD4, symBinAddr: 0x100004034, symSize: 0x30 }
  - { offset: 0x228D1, size: 0x8, addend: 0x0, symName: __ZNSt3__129_AllocatorDestroyRangeReverseINS_9allocatorINS_12basic_stringIcNS_11char_traitsIcEENS1_IcEEEEEEPS6_EC2B8ne180100ERS7_RS8_SB_, symObjAddr: 0x1C04, symBinAddr: 0x100004064, symSize: 0x38 }
  - { offset: 0x22928, size: 0x8, addend: 0x0, symName: __ZNSt3__19allocatorINS_12basic_stringIcNS_11char_traitsIcEENS0_IcEEEEE9constructB8ne180100IS5_JRKS5_EEEvPT_DpOT0_, symObjAddr: 0x1C3C, symBinAddr: 0x10000409C, symSize: 0x30 }
  - { offset: 0x2297E, size: 0x8, addend: 0x0, symName: __ZNSt3__128__exception_guard_exceptionsINS_29_AllocatorDestroyRangeReverseINS_9allocatorINS_12basic_stringIcNS_11char_traitsIcEENS2_IcEEEEEEPS7_EEED2B8ne180100Ev, symObjAddr: 0x1C6C, symBinAddr: 0x1000040CC, symSize: 0x50 }
  - { offset: 0x229A8, size: 0x8, addend: 0x0, symName: __ZNKSt3__129_AllocatorDestroyRangeReverseINS_9allocatorINS_12basic_stringIcNS_11char_traitsIcEENS1_IcEEEEEEPS6_EclB8ne180100Ev, symObjAddr: 0x1CBC, symBinAddr: 0x10000411C, symSize: 0x68 }
  - { offset: 0x229CE, size: 0x8, addend: 0x0, symName: __ZNSt3__116reverse_iteratorIPNS_12basic_stringIcNS_11char_traitsIcEENS_9allocatorIcEEEEEC1B8ne180100ES7_, symObjAddr: 0x1D94, symBinAddr: 0x1000041F4, symSize: 0x34 }
  - { offset: 0x22A06, size: 0x8, addend: 0x0, symName: __ZNSt3__116allocator_traitsINS_9allocatorINS_12basic_stringIcNS_11char_traitsIcEENS1_IcEEEEEEE7destroyB8ne180100IS6_vEEvRS7_PT_, symObjAddr: 0x1E10, symBinAddr: 0x100004270, symSize: 0x2C }
  - { offset: 0x22A43, size: 0x8, addend: 0x0, symName: __ZNSt3__116reverse_iteratorIPNS_12basic_stringIcNS_11char_traitsIcEENS_9allocatorIcEEEEEppB8ne180100Ev, symObjAddr: 0x1E60, symBinAddr: 0x1000042C0, symSize: 0x20 }
  - { offset: 0x22A69, size: 0x8, addend: 0x0, symName: __ZNKSt3__116reverse_iteratorIPNS_12basic_stringIcNS_11char_traitsIcEENS_9allocatorIcEEEEE4baseB8ne180100Ev, symObjAddr: 0x1E80, symBinAddr: 0x1000042E0, symSize: 0x18 }
  - { offset: 0x22A8F, size: 0x8, addend: 0x0, symName: __ZNSt3__19allocatorINS_12basic_stringIcNS_11char_traitsIcEENS0_IcEEEEE7destroyB8ne180100EPS5_, symObjAddr: 0x1E98, symBinAddr: 0x1000042F8, symSize: 0x28 }
  - { offset: 0x22AC8, size: 0x8, addend: 0x0, symName: __ZNSt3__119__to_address_helperINS_16reverse_iteratorIPNS_12basic_stringIcNS_11char_traitsIcEENS_9allocatorIcEEEEEEvE6__callB8ne180100ERKS9_, symObjAddr: 0x1EC0, symBinAddr: 0x100004320, symSize: 0x38 }
  - { offset: 0x22AEB, size: 0x8, addend: 0x0, symName: __ZNKSt3__116reverse_iteratorIPNS_12basic_stringIcNS_11char_traitsIcEENS_9allocatorIcEEEEEptB8ne180100Ev, symObjAddr: 0x1EF8, symBinAddr: 0x100004358, symSize: 0x24 }
  - { offset: 0x22B11, size: 0x8, addend: 0x0, symName: __ZNKSt3__116reverse_iteratorIPNS_12basic_stringIcNS_11char_traitsIcEENS_9allocatorIcEEEEEdeB8ne180100Ev, symObjAddr: 0x1F1C, symBinAddr: 0x10000437C, symSize: 0x28 }
  - { offset: 0x22B45, size: 0x8, addend: 0x0, symName: __ZNSt3__116reverse_iteratorIPNS_12basic_stringIcNS_11char_traitsIcEENS_9allocatorIcEEEEEC2B8ne180100ES7_, symObjAddr: 0x1F44, symBinAddr: 0x1000043A4, symSize: 0x28 }
  - { offset: 0x22B7D, size: 0x8, addend: 0x0, symName: __ZNSt3__118__unwrap_iter_implIPNS_12basic_stringIcNS_11char_traitsIcEENS_9allocatorIcEEEELb1EE8__unwrapB8ne180100ES7_, symObjAddr: 0x1F6C, symBinAddr: 0x1000043CC, symSize: 0x24 }
  - { offset: 0x22BA0, size: 0x8, addend: 0x0, symName: __ZNSt3__118__unwrap_iter_implIPNS_12basic_stringIcNS_11char_traitsIcEENS_9allocatorIcEEEELb1EE8__rewrapB8ne180100ES7_S7_, symObjAddr: 0x1F90, symBinAddr: 0x1000043F0, symSize: 0x58 }
  - { offset: 0x22BD1, size: 0x8, addend: 0x0, symName: __ZNSt3__16vectorINS_12basic_stringIcNS_11char_traitsIcEENS_9allocatorIcEEEENS4_IS6_EEE21_ConstructTransactionD2B8ne180100Ev, symObjAddr: 0x1FE8, symBinAddr: 0x100004448, symSize: 0x20 }
  - { offset: 0x22BFB, size: 0x8, addend: 0x0, symName: __ZNSt3__128__exception_guard_exceptionsINS_6vectorINS_12basic_stringIcNS_11char_traitsIcEENS_9allocatorIcEEEENS5_IS7_EEE16__destroy_vectorEED2B8ne180100Ev, symObjAddr: 0x2008, symBinAddr: 0x100004468, symSize: 0x50 }
  - { offset: 0x22C25, size: 0x8, addend: 0x0, symName: __ZNSt3__16vectorINS_12basic_stringIcNS_11char_traitsIcEENS_9allocatorIcEEEENS4_IS6_EEE16__destroy_vectorclB8ne180100Ev, symObjAddr: 0x2058, symBinAddr: 0x1000044B8, symSize: 0x90 }
  - { offset: 0x22C4B, size: 0x8, addend: 0x0, symName: __ZNSt3__16vectorINS_12basic_stringIcNS_11char_traitsIcEENS_9allocatorIcEEEENS4_IS6_EEE7__clearB8ne180100Ev, symObjAddr: 0x20E8, symBinAddr: 0x100004548, symSize: 0x28 }
  - { offset: 0x22C71, size: 0x8, addend: 0x0, symName: __ZNKSt3__16vectorINS_12basic_stringIcNS_11char_traitsIcEENS_9allocatorIcEEEENS4_IS6_EEE17__annotate_deleteB8ne180100Ev, symObjAddr: 0x2110, symBinAddr: 0x100004570, symSize: 0x10 }
  - { offset: 0x22C97, size: 0x8, addend: 0x0, symName: __ZNSt3__116allocator_traitsINS_9allocatorINS_12basic_stringIcNS_11char_traitsIcEENS1_IcEEEEEEE10deallocateB8ne180100ERS7_PS6_m, symObjAddr: 0x2120, symBinAddr: 0x100004580, symSize: 0x34 }
  - { offset: 0x22CD9, size: 0x8, addend: 0x0, symName: __ZNKSt3__16vectorINS_12basic_stringIcNS_11char_traitsIcEENS_9allocatorIcEEEENS4_IS6_EEE8capacityB8ne180100Ev, symObjAddr: 0x2154, symBinAddr: 0x1000045B4, symSize: 0x40 }
  - { offset: 0x22CFF, size: 0x8, addend: 0x0, symName: __ZNSt3__16vectorINS_12basic_stringIcNS_11char_traitsIcEENS_9allocatorIcEEEENS4_IS6_EEE22__base_destruct_at_endB8ne180100EPS6_, symObjAddr: 0x2194, symBinAddr: 0x1000045F4, symSize: 0x8C }
  - { offset: 0x22D43, size: 0x8, addend: 0x0, symName: __ZNSt3__19allocatorINS_12basic_stringIcNS_11char_traitsIcEENS0_IcEEEEE10deallocateB8ne180100EPS5_m, symObjAddr: 0x2220, symBinAddr: 0x100004680, symSize: 0x44 }
  - { offset: 0x22D85, size: 0x8, addend: 0x0, symName: __ZNKSt3__16vectorINS_12basic_stringIcNS_11char_traitsIcEENS_9allocatorIcEEEENS4_IS6_EEE9__end_capB8ne180100Ev, symObjAddr: 0x22E0, symBinAddr: 0x100004740, symSize: 0x28 }
  - { offset: 0x22DAB, size: 0x8, addend: 0x0, symName: __ZNKSt3__117__compressed_pairIPNS_12basic_stringIcNS_11char_traitsIcEENS_9allocatorIcEEEENS4_IS6_EEE5firstB8ne180100Ev, symObjAddr: 0x2308, symBinAddr: 0x100004768, symSize: 0x24 }
  - { offset: 0x22DD1, size: 0x8, addend: 0x0, symName: __ZNKSt3__122__compressed_pair_elemIPNS_12basic_stringIcNS_11char_traitsIcEENS_9allocatorIcEEEELi0ELb0EE5__getB8ne180100Ev, symObjAddr: 0x232C, symBinAddr: 0x10000478C, symSize: 0x14 }
  - { offset: 0x22DF7, size: 0x8, addend: 0x0, symName: __ZN11PlayerLevelC2Ev, symObjAddr: 0x2340, symBinAddr: 0x1000047A0, symSize: 0x20 }
  - { offset: 0x22E21, size: 0x8, addend: 0x0, symName: __ZNSt3__16vectorINS_12basic_stringIcNS_11char_traitsIcEENS_9allocatorIcEEEENS4_IS6_EEED2B8ne180100Ev, symObjAddr: 0x2360, symBinAddr: 0x1000047C0, symSize: 0x40 }
  - { offset: 0x22E4B, size: 0x8, addend: 0x0, symName: __ZN4Game20getExpectedCustomersEi, symObjAddr: 0x23E8, symBinAddr: 0x100004848, symSize: 0x6C }
  - { offset: 0x22E7F, size: 0x8, addend: 0x0, symName: __ZNK11PlayerLevel8getLevelEv, symObjAddr: 0x2454, symBinAddr: 0x1000048B4, symSize: 0x18 }
  - { offset: 0x22EA5, size: 0x8, addend: 0x0, symName: __ZNSt3__16vectorI8CustomerNS_9allocatorIS1_EEEC1B8ne180100Ev, symObjAddr: 0x246C, symBinAddr: 0x1000048CC, symSize: 0x2C }
  - { offset: 0x22ECF, size: 0x8, addend: 0x0, symName: __ZNSt3__16vectorI8CustomerNS_9allocatorIS1_EEE9push_backB8ne180100EOS1_, symObjAddr: 0x24DC, symBinAddr: 0x10000493C, symSize: 0x90 }
  - { offset: 0x22F15, size: 0x8, addend: 0x0, symName: __ZN4Game16generateCustomerERKNSt3__112basic_stringIcNS0_11char_traitsIcEENS0_9allocatorIcEEEES8_S8_, symObjAddr: 0x256C, symBinAddr: 0x1000049CC, symSize: 0x160 }
  - { offset: 0x22F74, size: 0x8, addend: 0x0, symName: __ZN8CustomerD1Ev, symObjAddr: 0x26CC, symBinAddr: 0x100004B2C, symSize: 0x2C }
  - { offset: 0x22FA0, size: 0x8, addend: 0x0, symName: __ZNSt3__16vectorI8CustomerNS_9allocatorIS1_EEE5beginB8ne180100Ev, symObjAddr: 0x26F8, symBinAddr: 0x100004B58, symSize: 0x30 }
  - { offset: 0x22FC8, size: 0x8, addend: 0x0, symName: __ZNSt3__16vectorI8CustomerNS_9allocatorIS1_EEE3endB8ne180100Ev, symObjAddr: 0x2728, symBinAddr: 0x100004B88, symSize: 0x30 }
  - { offset: 0x22FF0, size: 0x8, addend: 0x0, symName: __ZNKSt3__111__wrap_iterIP8CustomerEdeB8ne180100Ev, symObjAddr: 0x278C, symBinAddr: 0x100004BEC, symSize: 0x18 }
  - { offset: 0x23016, size: 0x8, addend: 0x0, symName: __ZNK8Customer7getNameEv, symObjAddr: 0x27F0, symBinAddr: 0x100004C50, symSize: 0x18 }
  - { offset: 0x2303C, size: 0x8, addend: 0x0, symName: __ZNK8Customer5getIDEv, symObjAddr: 0x2808, symBinAddr: 0x100004C68, symSize: 0x18 }
  - { offset: 0x23062, size: 0x8, addend: 0x0, symName: __ZNK8Customer8getOrderEv, symObjAddr: 0x2820, symBinAddr: 0x100004C80, symSize: 0x28 }
  - { offset: 0x23088, size: 0x8, addend: 0x0, symName: __ZNK5Order4showEv, symObjAddr: 0x2848, symBinAddr: 0x100004CA8, symSize: 0x174 }
  - { offset: 0x230AE, size: 0x8, addend: 0x0, symName: __ZN6SundaeC1Ev, symObjAddr: 0x29BC, symBinAddr: 0x100004E1C, symSize: 0x2C }
  - { offset: 0x230DA, size: 0x8, addend: 0x0, symName: __ZN6Sundae5buildEv, symObjAddr: 0x29E8, symBinAddr: 0x100004E48, symSize: 0xE8 }
  - { offset: 0x2310E, size: 0x8, addend: 0x0, symName: __ZN4Game14calculateScoreER8CustomerR6Sundae, symObjAddr: 0x2AD0, symBinAddr: 0x100004F30, symSize: 0x204 }
  - { offset: 0x2315E, size: 0x8, addend: 0x0, symName: __ZN11PlayerLevel5addXPEi, symObjAddr: 0x2CD4, symBinAddr: 0x100005134, symSize: 0xB8 }
  - { offset: 0x23192, size: 0x8, addend: 0x0, symName: __ZNK11PlayerLevel10showStatusEv, symObjAddr: 0x2D8C, symBinAddr: 0x1000051EC, symSize: 0x90 }
  - { offset: 0x231B8, size: 0x8, addend: 0x0, symName: __ZN6SundaeD1Ev, symObjAddr: 0x2E1C, symBinAddr: 0x10000527C, symSize: 0x2C }
  - { offset: 0x231E4, size: 0x8, addend: 0x0, symName: __ZNSt3__111__wrap_iterIP8CustomerEppB8ne180100Ev, symObjAddr: 0x2E48, symBinAddr: 0x1000052A8, symSize: 0x20 }
  - { offset: 0x2320A, size: 0x8, addend: 0x0, symName: __ZN4Game6endDayEv, symObjAddr: 0x2E68, symBinAddr: 0x1000052C8, symSize: 0xC8 }
  - { offset: 0x23230, size: 0x8, addend: 0x0, symName: __ZNSt3__16vectorI8CustomerNS_9allocatorIS1_EEED1B8ne180100Ev, symObjAddr: 0x2F30, symBinAddr: 0x100005390, symSize: 0x2C }
  - { offset: 0x23278, size: 0x8, addend: 0x0, symName: __ZNKSt3__113basic_ostreamIcNS_11char_traitsIcEEE6sentrycvbB8ne180100Ev, symObjAddr: 0x3148, symBinAddr: 0x1000055A8, symSize: 0x1C }
  - { offset: 0x2329E, size: 0x8, addend: 0x0, symName: __ZNSt3__119ostreambuf_iteratorIcNS_11char_traitsIcEEEC1B8ne180100ERNS_13basic_ostreamIcS2_EE, symObjAddr: 0x33A4, symBinAddr: 0x100005804, symSize: 0x34 }
  - { offset: 0x232D6, size: 0x8, addend: 0x0, symName: __ZNKSt3__18ios_base5flagsB8ne180100Ev, symObjAddr: 0x33D8, symBinAddr: 0x100005838, symSize: 0x18 }
  - { offset: 0x232FE, size: 0x8, addend: 0x0, symName: __ZNKSt3__19basic_iosIcNS_11char_traitsIcEEE4fillB8ne180100Ev, symObjAddr: 0x33F0, symBinAddr: 0x100005850, symSize: 0x64 }
  - { offset: 0x23326, size: 0x8, addend: 0x0, symName: __ZNKSt3__119ostreambuf_iteratorIcNS_11char_traitsIcEEE6failedB8ne180100Ev, symObjAddr: 0x3454, symBinAddr: 0x1000058B4, symSize: 0x24 }
  - { offset: 0x2334C, size: 0x8, addend: 0x0, symName: __ZNSt3__19basic_iosIcNS_11char_traitsIcEEE8setstateB8ne180100Ej, symObjAddr: 0x3478, symBinAddr: 0x1000058D8, symSize: 0x2C }
  - { offset: 0x23381, size: 0x8, addend: 0x0, symName: __ZNKSt3__18ios_base5widthB8ne180100Ev, symObjAddr: 0x34A4, symBinAddr: 0x100005904, symSize: 0x18 }
  - { offset: 0x233A9, size: 0x8, addend: 0x0, symName: __ZNSt3__115basic_streambufIcNS_11char_traitsIcEEE5sputnB8ne180100EPKcl, symObjAddr: 0x34BC, symBinAddr: 0x10000591C, symSize: 0x3C }
  - { offset: 0x233EB, size: 0x8, addend: 0x0, symName: __ZNSt3__112basic_stringIcNS_11char_traitsIcEENS_9allocatorIcEEEC1B8ne180100Emc, symObjAddr: 0x34F8, symBinAddr: 0x100005958, symSize: 0x3C }
  - { offset: 0x23433, size: 0x8, addend: 0x0, symName: __ZNKSt3__112basic_stringIcNS_11char_traitsIcEENS_9allocatorIcEEE4dataB8ne180100Ev, symObjAddr: 0x3534, symBinAddr: 0x100005994, symSize: 0x28 }
  - { offset: 0x23459, size: 0x8, addend: 0x0, symName: __ZNSt3__18ios_base5widthB8ne180100El, symObjAddr: 0x355C, symBinAddr: 0x1000059BC, symSize: 0x2C }
  - { offset: 0x2349F, size: 0x8, addend: 0x0, symName: __ZNSt3__112basic_stringIcNS_11char_traitsIcEENS_9allocatorIcEEEC2B8ne180100Emc, symObjAddr: 0x3588, symBinAddr: 0x1000059E8, symSize: 0x4C }
  - { offset: 0x234E7, size: 0x8, addend: 0x0, symName: __ZNKSt3__112basic_stringIcNS_11char_traitsIcEENS_9allocatorIcEEE13__get_pointerB8ne180100Ev, symObjAddr: 0x35E8, symBinAddr: 0x100005A48, symSize: 0x54 }
  - { offset: 0x2350D, size: 0x8, addend: 0x0, symName: __ZNKSt3__112basic_stringIcNS_11char_traitsIcEENS_9allocatorIcEEE9__is_longB8ne180100Ev, symObjAddr: 0x363C, symBinAddr: 0x100005A9C, symSize: 0x38 }
  - { offset: 0x23533, size: 0x8, addend: 0x0, symName: __ZNKSt3__112basic_stringIcNS_11char_traitsIcEENS_9allocatorIcEEE18__get_long_pointerB8ne180100Ev, symObjAddr: 0x3674, symBinAddr: 0x100005AD4, symSize: 0x28 }
  - { offset: 0x23559, size: 0x8, addend: 0x0, symName: __ZNKSt3__112basic_stringIcNS_11char_traitsIcEENS_9allocatorIcEEE19__get_short_pointerB8ne180100Ev, symObjAddr: 0x369C, symBinAddr: 0x100005AFC, symSize: 0x28 }
  - { offset: 0x2357F, size: 0x8, addend: 0x0, symName: __ZNKSt3__117__compressed_pairINS_12basic_stringIcNS_11char_traitsIcEENS_9allocatorIcEEE5__repES5_E5firstB8ne180100Ev, symObjAddr: 0x36C4, symBinAddr: 0x100005B24, symSize: 0x24 }
  - { offset: 0x235A5, size: 0x8, addend: 0x0, symName: __ZNKSt3__122__compressed_pair_elemINS_12basic_stringIcNS_11char_traitsIcEENS_9allocatorIcEEE5__repELi0ELb0EE5__getB8ne180100Ev, symObjAddr: 0x36E8, symBinAddr: 0x100005B48, symSize: 0x14 }
  - { offset: 0x235CB, size: 0x8, addend: 0x0, symName: __ZNSt3__114pointer_traitsIPKcE10pointer_toB8ne180100ERS1_, symObjAddr: 0x36FC, symBinAddr: 0x100005B5C, symSize: 0x14 }
  - { offset: 0x235EE, size: 0x8, addend: 0x0, symName: __ZNSt3__119ostreambuf_iteratorIcNS_11char_traitsIcEEEC2B8ne180100ERNS_13basic_ostreamIcS2_EE, symObjAddr: 0x3710, symBinAddr: 0x100005B70, symSize: 0x54 }
  - { offset: 0x23626, size: 0x8, addend: 0x0, symName: __ZNKSt3__19basic_iosIcNS_11char_traitsIcEEE5rdbufB8ne180100Ev, symObjAddr: 0x3764, symBinAddr: 0x100005BC4, symSize: 0x24 }
  - { offset: 0x2364E, size: 0x8, addend: 0x0, symName: __ZNKSt3__18ios_base5rdbufB8ne180100Ev, symObjAddr: 0x3788, symBinAddr: 0x100005BE8, symSize: 0x18 }
  - { offset: 0x23674, size: 0x8, addend: 0x0, symName: __ZNSt3__111char_traitsIcE11eq_int_typeB8ne180100Eii, symObjAddr: 0x37A0, symBinAddr: 0x100005C00, symSize: 0x28 }
  - { offset: 0x236A7, size: 0x8, addend: 0x0, symName: __ZNSt3__111char_traitsIcE3eofB8ne180100Ev, symObjAddr: 0x37C8, symBinAddr: 0x100005C28, symSize: 0x8 }
  - { offset: 0x236BB, size: 0x8, addend: 0x0, symName: __ZNKSt3__19basic_iosIcNS_11char_traitsIcEEE5widenB8ne180100Ec, symObjAddr: 0x37D0, symBinAddr: 0x100005C30, symSize: 0x84 }
  - { offset: 0x23734, size: 0x8, addend: 0x0, symName: __ZNKSt3__15ctypeIcE5widenB8ne180100Ec, symObjAddr: 0x3880, symBinAddr: 0x100005CE0, symSize: 0x38 }
  - { offset: 0x23769, size: 0x8, addend: 0x0, symName: __ZNSt3__18ios_base8setstateB8ne180100Ej, symObjAddr: 0x38B8, symBinAddr: 0x100005D18, symSize: 0x34 }
  - { offset: 0x237A0, size: 0x8, addend: 0x0, symName: __ZNSt3__16vectorI8CustomerNS_9allocatorIS1_EEEC2B8ne180100Ev, symObjAddr: 0x38EC, symBinAddr: 0x100005D4C, symSize: 0x4C }
  - { offset: 0x237CA, size: 0x8, addend: 0x0, symName: __ZNSt3__117__compressed_pairIP8CustomerNS_9allocatorIS1_EEEC1B8ne180100IDnNS_18__default_init_tagEEEOT_OT0_, symObjAddr: 0x3938, symBinAddr: 0x100005D98, symSize: 0x3C }
  - { offset: 0x23822, size: 0x8, addend: 0x0, symName: __ZNSt3__117__compressed_pairIP8CustomerNS_9allocatorIS1_EEEC2B8ne180100IDnNS_18__default_init_tagEEEOT_OT0_, symObjAddr: 0x3974, symBinAddr: 0x100005DD4, symSize: 0x40 }
  - { offset: 0x2387A, size: 0x8, addend: 0x0, symName: __ZNSt3__122__compressed_pair_elemIP8CustomerLi0ELb0EEC2B8ne180100IDnvEEOT_, symObjAddr: 0x39B4, symBinAddr: 0x100005E14, symSize: 0x1C }
  - { offset: 0x238BC, size: 0x8, addend: 0x0, symName: __ZNSt3__122__compressed_pair_elemINS_9allocatorI8CustomerEELi1ELb1EEC2B8ne180100ENS_18__default_init_tagE, symObjAddr: 0x39D0, symBinAddr: 0x100005E30, symSize: 0x2C }
  - { offset: 0x238F0, size: 0x8, addend: 0x0, symName: __ZNSt3__19allocatorI8CustomerEC2B8ne180100Ev, symObjAddr: 0x39FC, symBinAddr: 0x100005E5C, symSize: 0x2C }
  - { offset: 0x2391A, size: 0x8, addend: 0x0, symName: __ZNSt3__116__non_trivial_ifILb1ENS_9allocatorI8CustomerEEEC2B8ne180100Ev, symObjAddr: 0x3A28, symBinAddr: 0x100005E88, symSize: 0x14 }
  - { offset: 0x23944, size: 0x8, addend: 0x0, symName: __ZNSt3__112basic_stringIcNS_11char_traitsIcEENS_9allocatorIcEEEC1B8ne180100EOS5_, symObjAddr: 0x3A3C, symBinAddr: 0x100005E9C, symSize: 0x34 }
  - { offset: 0x2397D, size: 0x8, addend: 0x0, symName: __ZNSt3__112basic_stringIcNS_11char_traitsIcEENS_9allocatorIcEEEC2B8ne180100EOS5_, symObjAddr: 0x3A70, symBinAddr: 0x100005ED0, symSize: 0xB8 }
  - { offset: 0x239E7, size: 0x8, addend: 0x0, symName: __ZZNSt3__112basic_stringIcNS_11char_traitsIcEENS_9allocatorIcEEEC1B8ne180100EOS5_ENKUlRS5_E_clES7_, symObjAddr: 0x3B28, symBinAddr: 0x100005F88, symSize: 0x40 }
  - { offset: 0x23A20, size: 0x8, addend: 0x0, symName: __ZNSt3__117__compressed_pairINS_12basic_stringIcNS_11char_traitsIcEENS_9allocatorIcEEE5__repES5_E5firstB8ne180100Ev, symObjAddr: 0x3B68, symBinAddr: 0x100005FC8, symSize: 0x24 }
  - { offset: 0x23A46, size: 0x8, addend: 0x0, symName: __ZNKSt3__112basic_stringIcNS_11char_traitsIcEENS_9allocatorIcEEE14__annotate_newB8ne180100Em, symObjAddr: 0x3B8C, symBinAddr: 0x100005FEC, symSize: 0x14 }
  - { offset: 0x23A7B, size: 0x8, addend: 0x0, symName: __ZNKSt3__112basic_stringIcNS_11char_traitsIcEENS_9allocatorIcEEE4sizeB8ne180100Ev, symObjAddr: 0x3BA0, symBinAddr: 0x100006000, symSize: 0x54 }
  - { offset: 0x23AA1, size: 0x8, addend: 0x0, symName: __ZNKSt3__112basic_stringIcNS_11char_traitsIcEENS_9allocatorIcEEE17__annotate_deleteB8ne180100Ev, symObjAddr: 0x3BF4, symBinAddr: 0x100006054, symSize: 0x10 }
  - { offset: 0x23AC7, size: 0x8, addend: 0x0, symName: __ZNSt3__122__compressed_pair_elemINS_12basic_stringIcNS_11char_traitsIcEENS_9allocatorIcEEE5__repELi0ELb0EE5__getB8ne180100Ev, symObjAddr: 0x3C04, symBinAddr: 0x100006064, symSize: 0x14 }
  - { offset: 0x23AED, size: 0x8, addend: 0x0, symName: __ZNKSt3__112basic_stringIcNS_11char_traitsIcEENS_9allocatorIcEEE15__get_long_sizeB8ne180100Ev, symObjAddr: 0x3C18, symBinAddr: 0x100006078, symSize: 0x28 }
  - { offset: 0x23B13, size: 0x8, addend: 0x0, symName: __ZNKSt3__112basic_stringIcNS_11char_traitsIcEENS_9allocatorIcEEE16__get_short_sizeB8ne180100Ev, symObjAddr: 0x3C40, symBinAddr: 0x1000060A0, symSize: 0x34 }
  - { offset: 0x23B39, size: 0x8, addend: 0x0, symName: __ZNSt3__16vectorI8CustomerNS_9allocatorIS1_EEE9__end_capB8ne180100Ev, symObjAddr: 0x3C74, symBinAddr: 0x1000060D4, symSize: 0x28 }
  - { offset: 0x23B65, size: 0x8, addend: 0x0, symName: __ZNSt3__16vectorI8CustomerNS_9allocatorIS1_EEE22__construct_one_at_endB8ne180100IJS1_EEEvDpOT_, symObjAddr: 0x3C9C, symBinAddr: 0x1000060FC, symSize: 0x90 }
  - { offset: 0x23BB4, size: 0x8, addend: 0x0, symName: __ZNSt3__16vectorI8CustomerNS_9allocatorIS1_EEE21__push_back_slow_pathIS1_EEPS1_OT_, symObjAddr: 0x3D2C, symBinAddr: 0x10000618C, symSize: 0xE8 }
  - { offset: 0x23C12, size: 0x8, addend: 0x0, symName: __ZNSt3__117__compressed_pairIP8CustomerNS_9allocatorIS1_EEE5firstB8ne180100Ev, symObjAddr: 0x3E14, symBinAddr: 0x100006274, symSize: 0x24 }
  - { offset: 0x23C38, size: 0x8, addend: 0x0, symName: __ZNSt3__122__compressed_pair_elemIP8CustomerLi0ELb0EE5__getB8ne180100Ev, symObjAddr: 0x3E38, symBinAddr: 0x100006298, symSize: 0x14 }
  - { offset: 0x23C77, size: 0x8, addend: 0x0, symName: __ZNSt3__16vectorI8CustomerNS_9allocatorIS1_EEE21_ConstructTransactionC1B8ne180100ERS4_m, symObjAddr: 0x3E4C, symBinAddr: 0x1000062AC, symSize: 0x3C }
  - { offset: 0x23CBF, size: 0x8, addend: 0x0, symName: __ZNSt3__116allocator_traitsINS_9allocatorI8CustomerEEE9constructB8ne180100IS2_JS2_EvEEvRS3_PT_DpOT0_, symObjAddr: 0x3E88, symBinAddr: 0x1000062E8, symSize: 0x34 }
  - { offset: 0x23D16, size: 0x8, addend: 0x0, symName: __ZNSt3__16vectorI8CustomerNS_9allocatorIS1_EEE7__allocB8ne180100Ev, symObjAddr: 0x3EBC, symBinAddr: 0x10000631C, symSize: 0x28 }
  - { offset: 0x23D3C, size: 0x8, addend: 0x0, symName: __ZNSt3__16vectorI8CustomerNS_9allocatorIS1_EEE21_ConstructTransactionD1B8ne180100Ev, symObjAddr: 0x3EF8, symBinAddr: 0x100006358, symSize: 0x2C }
  - { offset: 0x23D66, size: 0x8, addend: 0x0, symName: __ZNSt3__16vectorI8CustomerNS_9allocatorIS1_EEE21_ConstructTransactionC2B8ne180100ERS4_m, symObjAddr: 0x3F24, symBinAddr: 0x100006384, symSize: 0x4C }
  - { offset: 0x23DAE, size: 0x8, addend: 0x0, symName: __ZNSt3__19allocatorI8CustomerE9constructB8ne180100IS1_JS1_EEEvPT_DpOT0_, symObjAddr: 0x3F70, symBinAddr: 0x1000063D0, symSize: 0x30 }
  - { offset: 0x23E04, size: 0x8, addend: 0x0, symName: __ZN8CustomerC1EOS_, symObjAddr: 0x3FA0, symBinAddr: 0x100006400, symSize: 0x34 }
  - { offset: 0x23E39, size: 0x8, addend: 0x0, symName: __ZN8CustomerC2EOS_, symObjAddr: 0x3FD4, symBinAddr: 0x100006434, symSize: 0xC0 }
  - { offset: 0x23E6E, size: 0x8, addend: 0x0, symName: __ZNSt3__110unique_ptrI5OrderNS_14default_deleteIS1_EEEC1B8ne180100EOS4_, symObjAddr: 0x4094, symBinAddr: 0x1000064F4, symSize: 0x34 }
  - { offset: 0x23EA6, size: 0x8, addend: 0x0, symName: __ZNSt3__16vectorINS_12basic_stringIcNS_11char_traitsIcEENS_9allocatorIcEEEENS4_IS6_EEEC1B8ne180100EOS8_, symObjAddr: 0x40C8, symBinAddr: 0x100006528, symSize: 0x34 }
  - { offset: 0x23EE7, size: 0x8, addend: 0x0, symName: __ZN11ToppingListC1EOS_, symObjAddr: 0x40FC, symBinAddr: 0x10000655C, symSize: 0x34 }
  - { offset: 0x23F1C, size: 0x8, addend: 0x0, symName: __ZNSt3__110unique_ptrI5OrderNS_14default_deleteIS1_EEEC2B8ne180100EOS4_, symObjAddr: 0x4130, symBinAddr: 0x100006590, symSize: 0x60 }
  - { offset: 0x23F54, size: 0x8, addend: 0x0, symName: __ZNSt3__110unique_ptrI5OrderNS_14default_deleteIS1_EEE7releaseB8ne180100Ev, symObjAddr: 0x4190, symBinAddr: 0x1000065F0, symSize: 0x44 }
  - { offset: 0x23F89, size: 0x8, addend: 0x0, symName: __ZNSt3__110unique_ptrI5OrderNS_14default_deleteIS1_EEE11get_deleterB8ne180100Ev, symObjAddr: 0x41D4, symBinAddr: 0x100006634, symSize: 0x24 }
  - { offset: 0x23FBB, size: 0x8, addend: 0x0, symName: __ZNSt3__117__compressed_pairIP5OrderNS_14default_deleteIS1_EEEC1B8ne180100IS2_S4_EEOT_OT0_, symObjAddr: 0x41F8, symBinAddr: 0x100006658, symSize: 0x3C }
  - { offset: 0x24013, size: 0x8, addend: 0x0, symName: __ZNSt3__117__compressed_pairIP5OrderNS_14default_deleteIS1_EEE5firstB8ne180100Ev, symObjAddr: 0x4234, symBinAddr: 0x100006694, symSize: 0x24 }
  - { offset: 0x24039, size: 0x8, addend: 0x0, symName: __ZNSt3__122__compressed_pair_elemIP5OrderLi0ELb0EE5__getB8ne180100Ev, symObjAddr: 0x4258, symBinAddr: 0x1000066B8, symSize: 0x14 }
  - { offset: 0x2405F, size: 0x8, addend: 0x0, symName: __ZNSt3__117__compressed_pairIP5OrderNS_14default_deleteIS1_EEE6secondB8ne180100Ev, symObjAddr: 0x426C, symBinAddr: 0x1000066CC, symSize: 0x24 }
  - { offset: 0x24085, size: 0x8, addend: 0x0, symName: __ZNSt3__122__compressed_pair_elemINS_14default_deleteI5OrderEELi1ELb1EE5__getB8ne180100Ev, symObjAddr: 0x4290, symBinAddr: 0x1000066F0, symSize: 0x14 }
  - { offset: 0x240AB, size: 0x8, addend: 0x0, symName: __ZNSt3__117__compressed_pairIP5OrderNS_14default_deleteIS1_EEEC2B8ne180100IS2_S4_EEOT_OT0_, symObjAddr: 0x42A4, symBinAddr: 0x100006704, symSize: 0x44 }
  - { offset: 0x24103, size: 0x8, addend: 0x0, symName: __ZNSt3__122__compressed_pair_elemIP5OrderLi0ELb0EEC2B8ne180100IS2_vEEOT_, symObjAddr: 0x42E8, symBinAddr: 0x100006748, symSize: 0x24 }
  - { offset: 0x24145, size: 0x8, addend: 0x0, symName: __ZNSt3__122__compressed_pair_elemINS_14default_deleteI5OrderEELi1ELb1EEC2B8ne180100IS3_vEEOT_, symObjAddr: 0x430C, symBinAddr: 0x10000676C, symSize: 0x18 }
  - { offset: 0x24187, size: 0x8, addend: 0x0, symName: __ZNSt3__16vectorINS_12basic_stringIcNS_11char_traitsIcEENS_9allocatorIcEEEENS4_IS6_EEEC2B8ne180100EOS8_, symObjAddr: 0x4324, symBinAddr: 0x100006784, symSize: 0xC4 }
  - { offset: 0x241C8, size: 0x8, addend: 0x0, symName: __ZNSt3__117__compressed_pairIPNS_12basic_stringIcNS_11char_traitsIcEENS_9allocatorIcEEEENS4_IS6_EEEC1B8ne180100IDnS8_EEOT_OT0_, symObjAddr: 0x43E8, symBinAddr: 0x100006848, symSize: 0x3C }
  - { offset: 0x24220, size: 0x8, addend: 0x0, symName: __ZNSt3__117__compressed_pairIPNS_12basic_stringIcNS_11char_traitsIcEENS_9allocatorIcEEEENS4_IS6_EEEC2B8ne180100IDnS8_EEOT_OT0_, symObjAddr: 0x4424, symBinAddr: 0x100006884, symSize: 0x44 }
  - { offset: 0x24278, size: 0x8, addend: 0x0, symName: __ZNSt3__122__compressed_pair_elemINS_9allocatorINS_12basic_stringIcNS_11char_traitsIcEENS1_IcEEEEEELi1ELb1EEC2B8ne180100IS7_vEEOT_, symObjAddr: 0x4468, symBinAddr: 0x1000068C8, symSize: 0x18 }
  - { offset: 0x242BA, size: 0x8, addend: 0x0, symName: __ZN11ToppingListC2EOS_, symObjAddr: 0x4480, symBinAddr: 0x1000068E0, symSize: 0x48 }
  - { offset: 0x242EF, size: 0x8, addend: 0x0, symName: __ZNSt3__16vectorINS_8functionIFNS_10unique_ptrI12FruitToppingNS_14default_deleteIS3_EEEEvEEENS_9allocatorIS8_EEEC1B8ne180100EOSB_, symObjAddr: 0x44C8, symBinAddr: 0x100006928, symSize: 0x34 }
  - { offset: 0x2432A, size: 0x8, addend: 0x0, symName: __ZNSt3__16vectorINS_8functionIFNS_10unique_ptrI12SweetToppingNS_14default_deleteIS3_EEEEvEEENS_9allocatorIS8_EEEC1B8ne180100EOSB_, symObjAddr: 0x44FC, symBinAddr: 0x10000695C, symSize: 0x34 }
  - { offset: 0x24365, size: 0x8, addend: 0x0, symName: __ZNSt3__16vectorINS_8functionIFNS_10unique_ptrI12FruitToppingNS_14default_deleteIS3_EEEEvEEENS_9allocatorIS8_EEEC2B8ne180100EOSB_, symObjAddr: 0x4530, symBinAddr: 0x100006990, symSize: 0xC4 }
  - { offset: 0x243A0, size: 0x8, addend: 0x0, symName: __ZNSt3__16vectorINS_8functionIFNS_10unique_ptrI12FruitToppingNS_14default_deleteIS3_EEEEvEEENS_9allocatorIS8_EEE7__allocB8ne180100Ev, symObjAddr: 0x45F4, symBinAddr: 0x100006A54, symSize: 0x28 }
  - { offset: 0x243CC, size: 0x8, addend: 0x0, symName: __ZNSt3__117__compressed_pairIPNS_8functionIFNS_10unique_ptrI12FruitToppingNS_14default_deleteIS3_EEEEvEEENS_9allocatorIS8_EEEC1B8ne180100IDnSB_EEOT_OT0_, symObjAddr: 0x461C, symBinAddr: 0x100006A7C, symSize: 0x3C }
  - { offset: 0x24424, size: 0x8, addend: 0x0, symName: __ZNSt3__16vectorINS_8functionIFNS_10unique_ptrI12FruitToppingNS_14default_deleteIS3_EEEEvEEENS_9allocatorIS8_EEE9__end_capB8ne180100Ev, symObjAddr: 0x4658, symBinAddr: 0x100006AB8, symSize: 0x28 }
  - { offset: 0x2444A, size: 0x8, addend: 0x0, symName: __ZNSt3__117__compressed_pairIPNS_8functionIFNS_10unique_ptrI12FruitToppingNS_14default_deleteIS3_EEEEvEEENS_9allocatorIS8_EEE6secondB8ne180100Ev, symObjAddr: 0x4680, symBinAddr: 0x100006AE0, symSize: 0x24 }
  - { offset: 0x24470, size: 0x8, addend: 0x0, symName: __ZNSt3__122__compressed_pair_elemINS_9allocatorINS_8functionIFNS_10unique_ptrI12FruitToppingNS_14default_deleteIS4_EEEEvEEEEELi1ELb1EE5__getB8ne180100Ev, symObjAddr: 0x46A4, symBinAddr: 0x100006B04, symSize: 0x14 }
  - { offset: 0x24496, size: 0x8, addend: 0x0, symName: __ZNSt3__117__compressed_pairIPNS_8functionIFNS_10unique_ptrI12FruitToppingNS_14default_deleteIS3_EEEEvEEENS_9allocatorIS8_EEEC2B8ne180100IDnSB_EEOT_OT0_, symObjAddr: 0x46B8, symBinAddr: 0x100006B18, symSize: 0x44 }
  - { offset: 0x244EE, size: 0x8, addend: 0x0, symName: __ZNSt3__122__compressed_pair_elemIPNS_8functionIFNS_10unique_ptrI12FruitToppingNS_14default_deleteIS3_EEEEvEEELi0ELb0EEC2B8ne180100IDnvEEOT_, symObjAddr: 0x46FC, symBinAddr: 0x100006B5C, symSize: 0x1C }
  - { offset: 0x24530, size: 0x8, addend: 0x0, symName: __ZNSt3__122__compressed_pair_elemINS_9allocatorINS_8functionIFNS_10unique_ptrI12FruitToppingNS_14default_deleteIS4_EEEEvEEEEELi1ELb1EEC2B8ne180100ISA_vEEOT_, symObjAddr: 0x4718, symBinAddr: 0x100006B78, symSize: 0x18 }
  - { offset: 0x24572, size: 0x8, addend: 0x0, symName: __ZNSt3__117__compressed_pairIPNS_8functionIFNS_10unique_ptrI12FruitToppingNS_14default_deleteIS3_EEEEvEEENS_9allocatorIS8_EEE5firstB8ne180100Ev, symObjAddr: 0x4730, symBinAddr: 0x100006B90, symSize: 0x24 }
  - { offset: 0x24598, size: 0x8, addend: 0x0, symName: __ZNSt3__122__compressed_pair_elemIPNS_8functionIFNS_10unique_ptrI12FruitToppingNS_14default_deleteIS3_EEEEvEEELi0ELb0EE5__getB8ne180100Ev, symObjAddr: 0x4754, symBinAddr: 0x100006BB4, symSize: 0x14 }
  - { offset: 0x245BE, size: 0x8, addend: 0x0, symName: __ZNSt3__16vectorINS_8functionIFNS_10unique_ptrI12SweetToppingNS_14default_deleteIS3_EEEEvEEENS_9allocatorIS8_EEEC2B8ne180100EOSB_, symObjAddr: 0x4768, symBinAddr: 0x100006BC8, symSize: 0xC4 }
  - { offset: 0x245F9, size: 0x8, addend: 0x0, symName: __ZNSt3__16vectorINS_8functionIFNS_10unique_ptrI12SweetToppingNS_14default_deleteIS3_EEEEvEEENS_9allocatorIS8_EEE7__allocB8ne180100Ev, symObjAddr: 0x482C, symBinAddr: 0x100006C8C, symSize: 0x28 }
  - { offset: 0x24625, size: 0x8, addend: 0x0, symName: __ZNSt3__117__compressed_pairIPNS_8functionIFNS_10unique_ptrI12SweetToppingNS_14default_deleteIS3_EEEEvEEENS_9allocatorIS8_EEEC1B8ne180100IDnSB_EEOT_OT0_, symObjAddr: 0x4854, symBinAddr: 0x100006CB4, symSize: 0x3C }
  - { offset: 0x2467D, size: 0x8, addend: 0x0, symName: __ZNSt3__16vectorINS_8functionIFNS_10unique_ptrI12SweetToppingNS_14default_deleteIS3_EEEEvEEENS_9allocatorIS8_EEE9__end_capB8ne180100Ev, symObjAddr: 0x4890, symBinAddr: 0x100006CF0, symSize: 0x28 }
  - { offset: 0x246A3, size: 0x8, addend: 0x0, symName: __ZNSt3__117__compressed_pairIPNS_8functionIFNS_10unique_ptrI12SweetToppingNS_14default_deleteIS3_EEEEvEEENS_9allocatorIS8_EEE6secondB8ne180100Ev, symObjAddr: 0x48B8, symBinAddr: 0x100006D18, symSize: 0x24 }
  - { offset: 0x246C9, size: 0x8, addend: 0x0, symName: __ZNSt3__122__compressed_pair_elemINS_9allocatorINS_8functionIFNS_10unique_ptrI12SweetToppingNS_14default_deleteIS4_EEEEvEEEEELi1ELb1EE5__getB8ne180100Ev, symObjAddr: 0x48DC, symBinAddr: 0x100006D3C, symSize: 0x14 }
  - { offset: 0x246EF, size: 0x8, addend: 0x0, symName: __ZNSt3__117__compressed_pairIPNS_8functionIFNS_10unique_ptrI12SweetToppingNS_14default_deleteIS3_EEEEvEEENS_9allocatorIS8_EEEC2B8ne180100IDnSB_EEOT_OT0_, symObjAddr: 0x48F0, symBinAddr: 0x100006D50, symSize: 0x44 }
  - { offset: 0x24747, size: 0x8, addend: 0x0, symName: __ZNSt3__122__compressed_pair_elemIPNS_8functionIFNS_10unique_ptrI12SweetToppingNS_14default_deleteIS3_EEEEvEEELi0ELb0EEC2B8ne180100IDnvEEOT_, symObjAddr: 0x4934, symBinAddr: 0x100006D94, symSize: 0x1C }
  - { offset: 0x24789, size: 0x8, addend: 0x0, symName: __ZNSt3__122__compressed_pair_elemINS_9allocatorINS_8functionIFNS_10unique_ptrI12SweetToppingNS_14default_deleteIS4_EEEEvEEEEELi1ELb1EEC2B8ne180100ISA_vEEOT_, symObjAddr: 0x4950, symBinAddr: 0x100006DB0, symSize: 0x18 }
  - { offset: 0x247CB, size: 0x8, addend: 0x0, symName: __ZNSt3__117__compressed_pairIPNS_8functionIFNS_10unique_ptrI12SweetToppingNS_14default_deleteIS3_EEEEvEEENS_9allocatorIS8_EEE5firstB8ne180100Ev, symObjAddr: 0x4968, symBinAddr: 0x100006DC8, symSize: 0x24 }
  - { offset: 0x247F1, size: 0x8, addend: 0x0, symName: __ZNSt3__122__compressed_pair_elemIPNS_8functionIFNS_10unique_ptrI12SweetToppingNS_14default_deleteIS3_EEEEvEEELi0ELb0EE5__getB8ne180100Ev, symObjAddr: 0x498C, symBinAddr: 0x100006DEC, symSize: 0x14 }
  - { offset: 0x24817, size: 0x8, addend: 0x0, symName: __ZNSt3__117__compressed_pairIP8CustomerNS_9allocatorIS1_EEE6secondB8ne180100Ev, symObjAddr: 0x49A0, symBinAddr: 0x100006E00, symSize: 0x24 }
  - { offset: 0x2483D, size: 0x8, addend: 0x0, symName: __ZNSt3__122__compressed_pair_elemINS_9allocatorI8CustomerEELi1ELb1EE5__getB8ne180100Ev, symObjAddr: 0x49C4, symBinAddr: 0x100006E24, symSize: 0x14 }
  - { offset: 0x24863, size: 0x8, addend: 0x0, symName: __ZNSt3__16vectorI8CustomerNS_9allocatorIS1_EEE21_ConstructTransactionD2B8ne180100Ev, symObjAddr: 0x49D8, symBinAddr: 0x100006E38, symSize: 0x20 }
  - { offset: 0x2488D, size: 0x8, addend: 0x0, symName: __ZNKSt3__16vectorI8CustomerNS_9allocatorIS1_EEE11__recommendB8ne180100Em, symObjAddr: 0x49F8, symBinAddr: 0x100006E58, symSize: 0xB4 }
  - { offset: 0x248E2, size: 0x8, addend: 0x0, symName: __ZNKSt3__16vectorI8CustomerNS_9allocatorIS1_EEE4sizeB8ne180100Ev, symObjAddr: 0x4AAC, symBinAddr: 0x100006F0C, symSize: 0x28 }
  - { offset: 0x24908, size: 0x8, addend: 0x0, symName: __ZNSt3__114__split_bufferI8CustomerRNS_9allocatorIS1_EEEC1EmmS4_, symObjAddr: 0x4AD4, symBinAddr: 0x100006F34, symSize: 0x44 }
  - { offset: 0x2495E, size: 0x8, addend: 0x0, symName: __ZNSt3__114__split_bufferI8CustomerRNS_9allocatorIS1_EEED1Ev, symObjAddr: 0x4C28, symBinAddr: 0x100007088, symSize: 0x2C }
  - { offset: 0x2498A, size: 0x8, addend: 0x0, symName: __ZNKSt3__16vectorI8CustomerNS_9allocatorIS1_EEE8max_sizeEv, symObjAddr: 0x4C54, symBinAddr: 0x1000070B4, symSize: 0x60 }
  - { offset: 0x249B2, size: 0x8, addend: 0x0, symName: __ZNKSt3__16vectorI8CustomerNS_9allocatorIS1_EEE20__throw_length_errorB8ne180100Ev, symObjAddr: 0x4CB4, symBinAddr: 0x100007114, symSize: 0x1C }
  - { offset: 0x249D8, size: 0x8, addend: 0x0, symName: __ZNKSt3__16vectorI8CustomerNS_9allocatorIS1_EEE8capacityB8ne180100Ev, symObjAddr: 0x4CD0, symBinAddr: 0x100007130, symSize: 0x40 }
  - { offset: 0x24A08, size: 0x8, addend: 0x0, symName: __ZNSt3__116allocator_traitsINS_9allocatorI8CustomerEEE8max_sizeB8ne180100IS3_vEEmRKS3_, symObjAddr: 0x4D3C, symBinAddr: 0x10000719C, symSize: 0x24 }
  - { offset: 0x24A36, size: 0x8, addend: 0x0, symName: __ZNKSt3__16vectorI8CustomerNS_9allocatorIS1_EEE7__allocB8ne180100Ev, symObjAddr: 0x4D60, symBinAddr: 0x1000071C0, symSize: 0x28 }
  - { offset: 0x24A5C, size: 0x8, addend: 0x0, symName: __ZNKSt3__19allocatorI8CustomerE8max_sizeB8ne180100Ev, symObjAddr: 0x4D88, symBinAddr: 0x1000071E8, symSize: 0x20 }
  - { offset: 0x24A82, size: 0x8, addend: 0x0, symName: __ZNKSt3__117__compressed_pairIP8CustomerNS_9allocatorIS1_EEE6secondB8ne180100Ev, symObjAddr: 0x4DA8, symBinAddr: 0x100007208, symSize: 0x24 }
  - { offset: 0x24AA8, size: 0x8, addend: 0x0, symName: __ZNKSt3__122__compressed_pair_elemINS_9allocatorI8CustomerEELi1ELb1EE5__getB8ne180100Ev, symObjAddr: 0x4DCC, symBinAddr: 0x10000722C, symSize: 0x14 }
  - { offset: 0x24ACE, size: 0x8, addend: 0x0, symName: __ZNKSt3__16vectorI8CustomerNS_9allocatorIS1_EEE9__end_capB8ne180100Ev, symObjAddr: 0x4DE0, symBinAddr: 0x100007240, symSize: 0x28 }
  - { offset: 0x24AF4, size: 0x8, addend: 0x0, symName: __ZNKSt3__117__compressed_pairIP8CustomerNS_9allocatorIS1_EEE5firstB8ne180100Ev, symObjAddr: 0x4E08, symBinAddr: 0x100007268, symSize: 0x24 }
  - { offset: 0x24B1A, size: 0x8, addend: 0x0, symName: __ZNKSt3__122__compressed_pair_elemIP8CustomerLi0ELb0EE5__getB8ne180100Ev, symObjAddr: 0x4E2C, symBinAddr: 0x10000728C, symSize: 0x14 }
  - { offset: 0x24B40, size: 0x8, addend: 0x0, symName: __ZNSt3__114__split_bufferI8CustomerRNS_9allocatorIS1_EEEC2EmmS4_, symObjAddr: 0x4E94, symBinAddr: 0x1000072F4, symSize: 0xE0 }
  - { offset: 0x24BB4, size: 0x8, addend: 0x0, symName: __ZNSt3__117__compressed_pairIP8CustomerRNS_9allocatorIS1_EEEC1B8ne180100IDnS5_EEOT_OT0_, symObjAddr: 0x4F74, symBinAddr: 0x1000073D4, symSize: 0x3C }
  - { offset: 0x24C0C, size: 0x8, addend: 0x0, symName: __ZNSt3__114__split_bufferI8CustomerRNS_9allocatorIS1_EEE7__allocB8ne180100Ev, symObjAddr: 0x4FF0, symBinAddr: 0x100007450, symSize: 0x28 }
  - { offset: 0x24C32, size: 0x8, addend: 0x0, symName: __ZNSt3__114__split_bufferI8CustomerRNS_9allocatorIS1_EEE9__end_capB8ne180100Ev, symObjAddr: 0x5018, symBinAddr: 0x100007478, symSize: 0x28 }
  - { offset: 0x24C58, size: 0x8, addend: 0x0, symName: __ZNSt3__117__compressed_pairIP8CustomerRNS_9allocatorIS1_EEEC2B8ne180100IDnS5_EEOT_OT0_, symObjAddr: 0x5040, symBinAddr: 0x1000074A0, symSize: 0x48 }
  - { offset: 0x24CB0, size: 0x8, addend: 0x0, symName: __ZNSt3__122__compressed_pair_elemIRNS_9allocatorI8CustomerEELi1ELb0EEC2B8ne180100IS4_vEEOT_, symObjAddr: 0x5088, symBinAddr: 0x1000074E8, symSize: 0x20 }
  - { offset: 0x24CF2, size: 0x8, addend: 0x0, symName: __ZNSt3__19allocatorI8CustomerE8allocateB8ne180100Em, symObjAddr: 0x50A8, symBinAddr: 0x100007508, symSize: 0x5C }
  - { offset: 0x24D26, size: 0x8, addend: 0x0, symName: __ZNSt3__117__compressed_pairIP8CustomerRNS_9allocatorIS1_EEE6secondB8ne180100Ev, symObjAddr: 0x5104, symBinAddr: 0x100007564, symSize: 0x28 }
  - { offset: 0x24D4C, size: 0x8, addend: 0x0, symName: __ZNSt3__122__compressed_pair_elemIRNS_9allocatorI8CustomerEELi1ELb0EE5__getB8ne180100Ev, symObjAddr: 0x512C, symBinAddr: 0x10000758C, symSize: 0x18 }
  - { offset: 0x24D72, size: 0x8, addend: 0x0, symName: __ZNSt3__117__compressed_pairIP8CustomerRNS_9allocatorIS1_EEE5firstB8ne180100Ev, symObjAddr: 0x5144, symBinAddr: 0x1000075A4, symSize: 0x24 }
  - { offset: 0x24D98, size: 0x8, addend: 0x0, symName: __ZNKSt3__16vectorI8CustomerNS_9allocatorIS1_EEE17__annotate_deleteB8ne180100Ev, symObjAddr: 0x5168, symBinAddr: 0x1000075C8, symSize: 0x10 }
  - { offset: 0x24DBE, size: 0x8, addend: 0x0, symName: __ZNSt3__116reverse_iteratorIP8CustomerEC1B8ne180100ES2_, symObjAddr: 0x52A4, symBinAddr: 0x100007704, symSize: 0x34 }
  - { offset: 0x24DF6, size: 0x8, addend: 0x0, symName: __ZNKSt3__116reverse_iteratorIP8CustomerE4baseB8ne180100Ev, symObjAddr: 0x52D8, symBinAddr: 0x100007738, symSize: 0x18 }
  - { offset: 0x24E1C, size: 0x8, addend: 0x0, symName: __ZNKSt3__16vectorI8CustomerNS_9allocatorIS1_EEE14__annotate_newB8ne180100Em, symObjAddr: 0x532C, symBinAddr: 0x10000778C, symSize: 0x14 }
  - { offset: 0x24E51, size: 0x8, addend: 0x0, symName: __ZNSt3__129_AllocatorDestroyRangeReverseINS_9allocatorI8CustomerEENS_16reverse_iteratorIPS2_EEEC1B8ne180100ERS3_RS6_S9_, symObjAddr: 0x538C, symBinAddr: 0x1000077EC, symSize: 0x44 }
  - { offset: 0x24EA8, size: 0x8, addend: 0x0, symName: __ZNKSt3__116reverse_iteratorIP8CustomerEdeB8ne180100Ev, symObjAddr: 0x543C, symBinAddr: 0x10000789C, symSize: 0x28 }
  - { offset: 0x24EDC, size: 0x8, addend: 0x0, symName: __ZNSt3__116reverse_iteratorIP8CustomerEppB8ne180100Ev, symObjAddr: 0x5464, symBinAddr: 0x1000078C4, symSize: 0x20 }
  - { offset: 0x24F02, size: 0x8, addend: 0x0, symName: __ZNSt3__128__exception_guard_exceptionsINS_29_AllocatorDestroyRangeReverseINS_9allocatorI8CustomerEENS_16reverse_iteratorIPS3_EEEEE10__completeB8ne180100Ev, symObjAddr: 0x5484, symBinAddr: 0x1000078E4, symSize: 0x1C }
  - { offset: 0x24F28, size: 0x8, addend: 0x0, symName: __ZNSt3__128__exception_guard_exceptionsINS_29_AllocatorDestroyRangeReverseINS_9allocatorI8CustomerEENS_16reverse_iteratorIPS3_EEEEED1B8ne180100Ev, symObjAddr: 0x54A0, symBinAddr: 0x100007900, symSize: 0x2C }
  - { offset: 0x24F52, size: 0x8, addend: 0x0, symName: __ZNSt3__128__exception_guard_exceptionsINS_29_AllocatorDestroyRangeReverseINS_9allocatorI8CustomerEENS_16reverse_iteratorIPS3_EEEEEC1B8ne180100ES8_, symObjAddr: 0x54CC, symBinAddr: 0x10000792C, symSize: 0x34 }
  - { offset: 0x24F8B, size: 0x8, addend: 0x0, symName: __ZNSt3__128__exception_guard_exceptionsINS_29_AllocatorDestroyRangeReverseINS_9allocatorI8CustomerEENS_16reverse_iteratorIPS3_EEEEEC2B8ne180100ES8_, symObjAddr: 0x5500, symBinAddr: 0x100007960, symSize: 0x30 }
  - { offset: 0x24FC4, size: 0x8, addend: 0x0, symName: __ZNSt3__129_AllocatorDestroyRangeReverseINS_9allocatorI8CustomerEENS_16reverse_iteratorIPS2_EEEC2B8ne180100ERS3_RS6_S9_, symObjAddr: 0x5530, symBinAddr: 0x100007990, symSize: 0x38 }
  - { offset: 0x25020, size: 0x8, addend: 0x0, symName: __ZNSt3__119__to_address_helperINS_16reverse_iteratorIP8CustomerEEvE6__callB8ne180100ERKS4_, symObjAddr: 0x5568, symBinAddr: 0x1000079C8, symSize: 0x38 }
  - { offset: 0x25043, size: 0x8, addend: 0x0, symName: __ZNKSt3__116reverse_iteratorIP8CustomerEptB8ne180100Ev, symObjAddr: 0x55A0, symBinAddr: 0x100007A00, symSize: 0x24 }
  - { offset: 0x25069, size: 0x8, addend: 0x0, symName: __ZNSt3__128__exception_guard_exceptionsINS_29_AllocatorDestroyRangeReverseINS_9allocatorI8CustomerEENS_16reverse_iteratorIPS3_EEEEED2B8ne180100Ev, symObjAddr: 0x55C4, symBinAddr: 0x100007A24, symSize: 0x50 }
  - { offset: 0x25093, size: 0x8, addend: 0x0, symName: __ZNKSt3__129_AllocatorDestroyRangeReverseINS_9allocatorI8CustomerEENS_16reverse_iteratorIPS2_EEEclB8ne180100Ev, symObjAddr: 0x5614, symBinAddr: 0x100007A74, symSize: 0xB4 }
  - { offset: 0x250BA, size: 0x8, addend: 0x0, symName: __ZNSt3__116reverse_iteratorINS0_IP8CustomerEEEC1B8ne180100ES3_, symObjAddr: 0x5738, symBinAddr: 0x100007B98, symSize: 0x3C }
  - { offset: 0x250F2, size: 0x8, addend: 0x0, symName: __ZNSt3__116allocator_traitsINS_9allocatorI8CustomerEEE7destroyB8ne180100IS2_vEEvRS3_PT_, symObjAddr: 0x57D4, symBinAddr: 0x100007C34, symSize: 0x2C }
  - { offset: 0x2512F, size: 0x8, addend: 0x0, symName: __ZNSt3__116reverse_iteratorINS0_IP8CustomerEEEppB8ne180100Ev, symObjAddr: 0x5824, symBinAddr: 0x100007C84, symSize: 0x30 }
  - { offset: 0x25155, size: 0x8, addend: 0x0, symName: __ZNKSt3__116reverse_iteratorINS0_IP8CustomerEEE4baseB8ne180100Ev, symObjAddr: 0x5854, symBinAddr: 0x100007CB4, symSize: 0x24 }
  - { offset: 0x2517B, size: 0x8, addend: 0x0, symName: __ZNSt3__19allocatorI8CustomerE7destroyB8ne180100EPS1_, symObjAddr: 0x5878, symBinAddr: 0x100007CD8, symSize: 0x28 }
  - { offset: 0x251B4, size: 0x8, addend: 0x0, symName: __ZNSt3__119__to_address_helperINS_16reverse_iteratorINS1_IP8CustomerEEEEvE6__callB8ne180100ERKS5_, symObjAddr: 0x58A0, symBinAddr: 0x100007D00, symSize: 0x38 }
  - { offset: 0x251D7, size: 0x8, addend: 0x0, symName: __ZNKSt3__116reverse_iteratorINS0_IP8CustomerEEEptB8ne180100Ev, symObjAddr: 0x58D8, symBinAddr: 0x100007D38, symSize: 0x24 }
  - { offset: 0x251FD, size: 0x8, addend: 0x0, symName: __ZNKSt3__116reverse_iteratorINS0_IP8CustomerEEEdeB8ne180100Ev, symObjAddr: 0x58FC, symBinAddr: 0x100007D5C, symSize: 0x34 }
  - { offset: 0x25231, size: 0x8, addend: 0x0, symName: __ZNSt3__116reverse_iteratorIP8CustomerEmmB8ne180100Ev, symObjAddr: 0x5930, symBinAddr: 0x100007D90, symSize: 0x20 }
  - { offset: 0x25257, size: 0x8, addend: 0x0, symName: __ZNSt3__116reverse_iteratorINS0_IP8CustomerEEEC2B8ne180100ES3_, symObjAddr: 0x5950, symBinAddr: 0x100007DB0, symSize: 0x2C }
  - { offset: 0x2528F, size: 0x8, addend: 0x0, symName: __ZNSt3__116reverse_iteratorIP8CustomerEC2B8ne180100ES2_, symObjAddr: 0x597C, symBinAddr: 0x100007DDC, symSize: 0x28 }
  - { offset: 0x252C7, size: 0x8, addend: 0x0, symName: __ZNSt3__114__split_bufferI8CustomerRNS_9allocatorIS1_EEED2Ev, symObjAddr: 0x59A4, symBinAddr: 0x100007E04, symSize: 0x8C }
  - { offset: 0x252F3, size: 0x8, addend: 0x0, symName: __ZNSt3__114__split_bufferI8CustomerRNS_9allocatorIS1_EEE5clearB8ne180100Ev, symObjAddr: 0x5A30, symBinAddr: 0x100007E90, symSize: 0x28 }
  - { offset: 0x25319, size: 0x8, addend: 0x0, symName: __ZNSt3__116allocator_traitsINS_9allocatorI8CustomerEEE10deallocateB8ne180100ERS3_PS2_m, symObjAddr: 0x5A58, symBinAddr: 0x100007EB8, symSize: 0x34 }
  - { offset: 0x2535B, size: 0x8, addend: 0x0, symName: __ZNKSt3__114__split_bufferI8CustomerRNS_9allocatorIS1_EEE8capacityB8ne180100Ev, symObjAddr: 0x5A8C, symBinAddr: 0x100007EEC, symSize: 0x40 }
  - { offset: 0x25381, size: 0x8, addend: 0x0, symName: __ZNSt3__114__split_bufferI8CustomerRNS_9allocatorIS1_EEE17__destruct_at_endB8ne180100EPS1_, symObjAddr: 0x5ACC, symBinAddr: 0x100007F2C, symSize: 0x2C }
  - { offset: 0x253B5, size: 0x8, addend: 0x0, symName: __ZNSt3__114__split_bufferI8CustomerRNS_9allocatorIS1_EEE17__destruct_at_endB8ne180100EPS1_NS_17integral_constantIbLb0EEE, symObjAddr: 0x5AF8, symBinAddr: 0x100007F58, symSize: 0x80 }
  - { offset: 0x253F5, size: 0x8, addend: 0x0, symName: __ZNSt3__19allocatorI8CustomerE10deallocateB8ne180100EPS1_m, symObjAddr: 0x5B78, symBinAddr: 0x100007FD8, symSize: 0x44 }
  - { offset: 0x25437, size: 0x8, addend: 0x0, symName: __ZNKSt3__114__split_bufferI8CustomerRNS_9allocatorIS1_EEE9__end_capB8ne180100Ev, symObjAddr: 0x5BBC, symBinAddr: 0x10000801C, symSize: 0x28 }
  - { offset: 0x2545D, size: 0x8, addend: 0x0, symName: __ZNKSt3__117__compressed_pairIP8CustomerRNS_9allocatorIS1_EEE5firstB8ne180100Ev, symObjAddr: 0x5BE4, symBinAddr: 0x100008044, symSize: 0x24 }
  - { offset: 0x25483, size: 0x8, addend: 0x0, symName: __ZN8CustomerC1ENSt3__112basic_stringIcNS0_11char_traitsIcEENS0_9allocatorIcEEEES6_S6_, symObjAddr: 0x5C08, symBinAddr: 0x100008068, symSize: 0x44 }
  - { offset: 0x254DA, size: 0x8, addend: 0x0, symName: __ZN8Customer21overrideFlavorOptionsERKNSt3__16vectorINS0_12basic_stringIcNS0_11char_traitsIcEENS0_9allocatorIcEEEENS5_IS7_EEEE, symObjAddr: 0x5C4C, symBinAddr: 0x1000080AC, symSize: 0x30 }
  - { offset: 0x2550E, size: 0x8, addend: 0x0, symName: __ZN8Customer13generateOrderEv, symObjAddr: 0x5C7C, symBinAddr: 0x1000080DC, symSize: 0x104 }
  - { offset: 0x2555E, size: 0x8, addend: 0x0, symName: __ZN8CustomerC2ENSt3__112basic_stringIcNS0_11char_traitsIcEENS0_9allocatorIcEEEES6_S6_, symObjAddr: 0x5D80, symBinAddr: 0x1000081E0, symSize: 0x420 }
  - { offset: 0x255B9, size: 0x8, addend: 0x0, symName: __ZNSt3__110unique_ptrI5OrderNS_14default_deleteIS1_EEEC1B8ne180100ILb1EvEEv, symObjAddr: 0x61A0, symBinAddr: 0x100008600, symSize: 0x2C }
  - { offset: 0x255EE, size: 0x8, addend: 0x0, symName: __ZN11ToppingListC1Ev, symObjAddr: 0x61CC, symBinAddr: 0x10000862C, symSize: 0x2C }
  - { offset: 0x25618, size: 0x8, addend: 0x0, symName: __ZNSt3__110unique_ptrI5OrderNS_14default_deleteIS1_EEED1B8ne180100Ev, symObjAddr: 0x61F8, symBinAddr: 0x100008658, symSize: 0x2C }
  - { offset: 0x25642, size: 0x8, addend: 0x0, symName: __ZNSt3__110unique_ptrI5OrderNS_14default_deleteIS1_EEEC2B8ne180100ILb1EvEEv, symObjAddr: 0x6224, symBinAddr: 0x100008684, symSize: 0x3C }
  - { offset: 0x2567D, size: 0x8, addend: 0x0, symName: __ZNSt3__117__compressed_pairIP5OrderNS_14default_deleteIS1_EEEC1B8ne180100INS_16__value_init_tagES7_EEOT_OT0_, symObjAddr: 0x6260, symBinAddr: 0x1000086C0, symSize: 0x3C }
  - { offset: 0x256D5, size: 0x8, addend: 0x0, symName: __ZNSt3__117__compressed_pairIP5OrderNS_14default_deleteIS1_EEEC2B8ne180100INS_16__value_init_tagES7_EEOT_OT0_, symObjAddr: 0x629C, symBinAddr: 0x1000086FC, symSize: 0x3C }
  - { offset: 0x2572D, size: 0x8, addend: 0x0, symName: __ZNSt3__122__compressed_pair_elemIP5OrderLi0ELb0EEC2B8ne180100ENS_16__value_init_tagE, symObjAddr: 0x62D8, symBinAddr: 0x100008738, symSize: 0x18 }
  - { offset: 0x25761, size: 0x8, addend: 0x0, symName: __ZNSt3__122__compressed_pair_elemINS_14default_deleteI5OrderEELi1ELb1EEC2B8ne180100ENS_16__value_init_tagE, symObjAddr: 0x62F0, symBinAddr: 0x100008750, symSize: 0x14 }
  - { offset: 0x25795, size: 0x8, addend: 0x0, symName: __ZNSt3__16vectorINS_8functionIFNS_10unique_ptrI12FruitToppingNS_14default_deleteIS3_EEEEvEEENS_9allocatorIS8_EEEC1B8ne180100Ev, symObjAddr: 0x64A8, symBinAddr: 0x100008908, symSize: 0x2C }
  - { offset: 0x257BF, size: 0x8, addend: 0x0, symName: __ZNSt3__16vectorINS_8functionIFNS_10unique_ptrI12SweetToppingNS_14default_deleteIS3_EEEEvEEENS_9allocatorIS8_EEEC1B8ne180100Ev, symObjAddr: 0x64D4, symBinAddr: 0x100008934, symSize: 0x2C }
  - { offset: 0x257E9, size: 0x8, addend: 0x0, symName: __ZNSt3__16vectorINS_8functionIFNS_10unique_ptrI12FruitToppingNS_14default_deleteIS3_EEEEvEEENS_9allocatorIS8_EEE9push_backB8ne180100EOS8_, symObjAddr: 0x6500, symBinAddr: 0x100008960, symSize: 0x90 }
  - { offset: 0x2582F, size: 0x8, addend: 0x0, symName: __ZNSt3__18functionIFNS_10unique_ptrI12FruitToppingNS_14default_deleteIS2_EEEEvEEC1IZN11ToppingListC1EvEUlvE_vEET_, symObjAddr: 0x6590, symBinAddr: 0x1000089F0, symSize: 0x2C }
  - { offset: 0x25874, size: 0x8, addend: 0x0, symName: __ZNSt3__18functionIFNS_10unique_ptrI12FruitToppingNS_14default_deleteIS2_EEEEvEED1Ev, symObjAddr: 0x65BC, symBinAddr: 0x100008A1C, symSize: 0x2C }
  - { offset: 0x258A0, size: 0x8, addend: 0x0, symName: __ZNSt3__18functionIFNS_10unique_ptrI12FruitToppingNS_14default_deleteIS2_EEEEvEEC1IZN11ToppingListC1EvEUlvE0_vEET_, symObjAddr: 0x65E8, symBinAddr: 0x100008A48, symSize: 0x2C }
  - { offset: 0x258E5, size: 0x8, addend: 0x0, symName: __ZNSt3__16vectorINS_8functionIFNS_10unique_ptrI12SweetToppingNS_14default_deleteIS3_EEEEvEEENS_9allocatorIS8_EEE9push_backB8ne180100EOS8_, symObjAddr: 0x6614, symBinAddr: 0x100008A74, symSize: 0x90 }
  - { offset: 0x2592B, size: 0x8, addend: 0x0, symName: __ZNSt3__18functionIFNS_10unique_ptrI12SweetToppingNS_14default_deleteIS2_EEEEvEEC1IZN11ToppingListC1EvEUlvE1_vEET_, symObjAddr: 0x66A4, symBinAddr: 0x100008B04, symSize: 0x2C }
  - { offset: 0x25970, size: 0x8, addend: 0x0, symName: __ZNSt3__18functionIFNS_10unique_ptrI12SweetToppingNS_14default_deleteIS2_EEEEvEED1Ev, symObjAddr: 0x66D0, symBinAddr: 0x100008B30, symSize: 0x2C }
  - { offset: 0x2599C, size: 0x8, addend: 0x0, symName: __ZNSt3__18functionIFNS_10unique_ptrI12SweetToppingNS_14default_deleteIS2_EEEEvEEC1IZN11ToppingListC1EvEUlvE2_vEET_, symObjAddr: 0x66FC, symBinAddr: 0x100008B5C, symSize: 0x2C }
  - { offset: 0x259E1, size: 0x8, addend: 0x0, symName: __ZNSt3__16vectorINS_8functionIFNS_10unique_ptrI12SweetToppingNS_14default_deleteIS3_EEEEvEEENS_9allocatorIS8_EEED1B8ne180100Ev, symObjAddr: 0x6728, symBinAddr: 0x100008B88, symSize: 0x2C }
  - { offset: 0x25A0B, size: 0x8, addend: 0x0, symName: __ZNSt3__16vectorINS_8functionIFNS_10unique_ptrI12FruitToppingNS_14default_deleteIS3_EEEEvEEENS_9allocatorIS8_EEED1B8ne180100Ev, symObjAddr: 0x6754, symBinAddr: 0x100008BB4, symSize: 0x2C }
  - { offset: 0x25A35, size: 0x8, addend: 0x0, symName: __ZNSt3__16vectorINS_8functionIFNS_10unique_ptrI12FruitToppingNS_14default_deleteIS3_EEEEvEEENS_9allocatorIS8_EEEC2B8ne180100Ev, symObjAddr: 0x6780, symBinAddr: 0x100008BE0, symSize: 0x4C }
  - { offset: 0x25A5F, size: 0x8, addend: 0x0, symName: __ZNSt3__117__compressed_pairIPNS_8functionIFNS_10unique_ptrI12FruitToppingNS_14default_deleteIS3_EEEEvEEENS_9allocatorIS8_EEEC1B8ne180100IDnNS_18__default_init_tagEEEOT_OT0_, symObjAddr: 0x67CC, symBinAddr: 0x100008C2C, symSize: 0x3C }
  - { offset: 0x25AB7, size: 0x8, addend: 0x0, symName: __ZNSt3__117__compressed_pairIPNS_8functionIFNS_10unique_ptrI12FruitToppingNS_14default_deleteIS3_EEEEvEEENS_9allocatorIS8_EEEC2B8ne180100IDnNS_18__default_init_tagEEEOT_OT0_, symObjAddr: 0x6808, symBinAddr: 0x100008C68, symSize: 0x40 }
  - { offset: 0x25B0F, size: 0x8, addend: 0x0, symName: __ZNSt3__122__compressed_pair_elemINS_9allocatorINS_8functionIFNS_10unique_ptrI12FruitToppingNS_14default_deleteIS4_EEEEvEEEEELi1ELb1EEC2B8ne180100ENS_18__default_init_tagE, symObjAddr: 0x6848, symBinAddr: 0x100008CA8, symSize: 0x2C }
  - { offset: 0x25B43, size: 0x8, addend: 0x0, symName: __ZNSt3__19allocatorINS_8functionIFNS_10unique_ptrI12FruitToppingNS_14default_deleteIS3_EEEEvEEEEC2B8ne180100Ev, symObjAddr: 0x6874, symBinAddr: 0x100008CD4, symSize: 0x2C }
  - { offset: 0x25B6D, size: 0x8, addend: 0x0, symName: __ZNSt3__116__non_trivial_ifILb1ENS_9allocatorINS_8functionIFNS_10unique_ptrI12FruitToppingNS_14default_deleteIS4_EEEEvEEEEEEC2B8ne180100Ev, symObjAddr: 0x68A0, symBinAddr: 0x100008D00, symSize: 0x14 }
  - { offset: 0x25B97, size: 0x8, addend: 0x0, symName: __ZNSt3__16vectorINS_8functionIFNS_10unique_ptrI12SweetToppingNS_14default_deleteIS3_EEEEvEEENS_9allocatorIS8_EEEC2B8ne180100Ev, symObjAddr: 0x68B4, symBinAddr: 0x100008D14, symSize: 0x4C }
  - { offset: 0x25BC1, size: 0x8, addend: 0x0, symName: __ZNSt3__117__compressed_pairIPNS_8functionIFNS_10unique_ptrI12SweetToppingNS_14default_deleteIS3_EEEEvEEENS_9allocatorIS8_EEEC1B8ne180100IDnNS_18__default_init_tagEEEOT_OT0_, symObjAddr: 0x6900, symBinAddr: 0x100008D60, symSize: 0x3C }
  - { offset: 0x25C19, size: 0x8, addend: 0x0, symName: __ZNSt3__117__compressed_pairIPNS_8functionIFNS_10unique_ptrI12SweetToppingNS_14default_deleteIS3_EEEEvEEENS_9allocatorIS8_EEEC2B8ne180100IDnNS_18__default_init_tagEEEOT_OT0_, symObjAddr: 0x693C, symBinAddr: 0x100008D9C, symSize: 0x40 }
  - { offset: 0x25C71, size: 0x8, addend: 0x0, symName: __ZNSt3__122__compressed_pair_elemINS_9allocatorINS_8functionIFNS_10unique_ptrI12SweetToppingNS_14default_deleteIS4_EEEEvEEEEELi1ELb1EEC2B8ne180100ENS_18__default_init_tagE, symObjAddr: 0x697C, symBinAddr: 0x100008DDC, symSize: 0x2C }
  - { offset: 0x25CA5, size: 0x8, addend: 0x0, symName: __ZNSt3__19allocatorINS_8functionIFNS_10unique_ptrI12SweetToppingNS_14default_deleteIS3_EEEEvEEEEC2B8ne180100Ev, symObjAddr: 0x69A8, symBinAddr: 0x100008E08, symSize: 0x2C }
  - { offset: 0x25CCF, size: 0x8, addend: 0x0, symName: __ZNSt3__116__non_trivial_ifILb1ENS_9allocatorINS_8functionIFNS_10unique_ptrI12SweetToppingNS_14default_deleteIS4_EEEEvEEEEEEC2B8ne180100Ev, symObjAddr: 0x69D4, symBinAddr: 0x100008E34, symSize: 0x14 }
  - { offset: 0x25CF9, size: 0x8, addend: 0x0, symName: __ZNSt3__16vectorINS_8functionIFNS_10unique_ptrI12FruitToppingNS_14default_deleteIS3_EEEEvEEENS_9allocatorIS8_EEE22__construct_one_at_endB8ne180100IJS8_EEEvDpOT_, symObjAddr: 0x69E8, symBinAddr: 0x100008E48, symSize: 0x90 }
  - { offset: 0x25D48, size: 0x8, addend: 0x0, symName: __ZNSt3__16vectorINS_8functionIFNS_10unique_ptrI12FruitToppingNS_14default_deleteIS3_EEEEvEEENS_9allocatorIS8_EEE21__push_back_slow_pathIS8_EEPS8_OT_, symObjAddr: 0x6A78, symBinAddr: 0x100008ED8, symSize: 0xE8 }
  - { offset: 0x25DBF, size: 0x8, addend: 0x0, symName: __ZNSt3__16vectorINS_8functionIFNS_10unique_ptrI12FruitToppingNS_14default_deleteIS3_EEEEvEEENS_9allocatorIS8_EEE21_ConstructTransactionC1B8ne180100ERSB_m, symObjAddr: 0x6B60, symBinAddr: 0x100008FC0, symSize: 0x3C }
  - { offset: 0x25E07, size: 0x8, addend: 0x0, symName: __ZNSt3__116allocator_traitsINS_9allocatorINS_8functionIFNS_10unique_ptrI12FruitToppingNS_14default_deleteIS4_EEEEvEEEEEE9constructB8ne180100IS9_JS9_EvEEvRSA_PT_DpOT0_, symObjAddr: 0x6B9C, symBinAddr: 0x100008FFC, symSize: 0x34 }
  - { offset: 0x25E5E, size: 0x8, addend: 0x0, symName: __ZNSt3__16vectorINS_8functionIFNS_10unique_ptrI12FruitToppingNS_14default_deleteIS3_EEEEvEEENS_9allocatorIS8_EEE21_ConstructTransactionD1B8ne180100Ev, symObjAddr: 0x6BE4, symBinAddr: 0x100009044, symSize: 0x2C }
  - { offset: 0x25E88, size: 0x8, addend: 0x0, symName: __ZNSt3__16vectorINS_8functionIFNS_10unique_ptrI12FruitToppingNS_14default_deleteIS3_EEEEvEEENS_9allocatorIS8_EEE21_ConstructTransactionC2B8ne180100ERSB_m, symObjAddr: 0x6C10, symBinAddr: 0x100009070, symSize: 0x44 }
  - { offset: 0x25ED0, size: 0x8, addend: 0x0, symName: __ZNSt3__19allocatorINS_8functionIFNS_10unique_ptrI12FruitToppingNS_14default_deleteIS3_EEEEvEEEE9constructB8ne180100IS8_JS8_EEEvPT_DpOT0_, symObjAddr: 0x6C54, symBinAddr: 0x1000090B4, symSize: 0x30 }
  - { offset: 0x25F26, size: 0x8, addend: 0x0, symName: __ZNSt3__18functionIFNS_10unique_ptrI12FruitToppingNS_14default_deleteIS2_EEEEvEEC1EOS7_, symObjAddr: 0x6C84, symBinAddr: 0x1000090E4, symSize: 0x34 }
  - { offset: 0x25F61, size: 0x8, addend: 0x0, symName: __ZNSt3__18functionIFNS_10unique_ptrI12FruitToppingNS_14default_deleteIS2_EEEEvEEC2EOS7_, symObjAddr: 0x6CB8, symBinAddr: 0x100009118, symSize: 0x34 }
  - { offset: 0x25F9C, size: 0x8, addend: 0x0, symName: __ZNSt3__110__function12__value_funcIFNS_10unique_ptrI12FruitToppingNS_14default_deleteIS3_EEEEvEEC1B8ne180100EOS8_, symObjAddr: 0x6CEC, symBinAddr: 0x10000914C, symSize: 0x34 }
  - { offset: 0x25FD5, size: 0x8, addend: 0x0, symName: __ZNSt3__110__function12__value_funcIFNS_10unique_ptrI12FruitToppingNS_14default_deleteIS3_EEEEvEEC2B8ne180100EOS8_, symObjAddr: 0x6D20, symBinAddr: 0x100009180, symSize: 0xD0 }
  - { offset: 0x2600E, size: 0x8, addend: 0x0, symName: __ZNSt3__110__function12__value_funcIFNS_10unique_ptrI12FruitToppingNS_14default_deleteIS3_EEEEvEE9__as_baseB8ne180100EPv, symObjAddr: 0x6DF0, symBinAddr: 0x100009250, symSize: 0x14 }
  - { offset: 0x26032, size: 0x8, addend: 0x0, symName: __ZNSt3__16vectorINS_8functionIFNS_10unique_ptrI12FruitToppingNS_14default_deleteIS3_EEEEvEEENS_9allocatorIS8_EEE21_ConstructTransactionD2B8ne180100Ev, symObjAddr: 0x6E04, symBinAddr: 0x100009264, symSize: 0x20 }
  - { offset: 0x2605C, size: 0x8, addend: 0x0, symName: __ZNKSt3__16vectorINS_8functionIFNS_10unique_ptrI12FruitToppingNS_14default_deleteIS3_EEEEvEEENS_9allocatorIS8_EEE11__recommendB8ne180100Em, symObjAddr: 0x6E24, symBinAddr: 0x100009284, symSize: 0xB4 }
  - { offset: 0x260B1, size: 0x8, addend: 0x0, symName: __ZNKSt3__16vectorINS_8functionIFNS_10unique_ptrI12FruitToppingNS_14default_deleteIS3_EEEEvEEENS_9allocatorIS8_EEE4sizeB8ne180100Ev, symObjAddr: 0x6ED8, symBinAddr: 0x100009338, symSize: 0x28 }
  - { offset: 0x260D7, size: 0x8, addend: 0x0, symName: __ZNSt3__114__split_bufferINS_8functionIFNS_10unique_ptrI12FruitToppingNS_14default_deleteIS3_EEEEvEEERNS_9allocatorIS8_EEEC1EmmSB_, symObjAddr: 0x6F00, symBinAddr: 0x100009360, symSize: 0x44 }
  - { offset: 0x2612D, size: 0x8, addend: 0x0, symName: __ZNSt3__114__split_bufferINS_8functionIFNS_10unique_ptrI12FruitToppingNS_14default_deleteIS3_EEEEvEEERNS_9allocatorIS8_EEED1Ev, symObjAddr: 0x7054, symBinAddr: 0x1000094B4, symSize: 0x2C }
  - { offset: 0x26159, size: 0x8, addend: 0x0, symName: __ZNKSt3__16vectorINS_8functionIFNS_10unique_ptrI12FruitToppingNS_14default_deleteIS3_EEEEvEEENS_9allocatorIS8_EEE8max_sizeEv, symObjAddr: 0x7080, symBinAddr: 0x1000094E0, symSize: 0x60 }
  - { offset: 0x26181, size: 0x8, addend: 0x0, symName: __ZNKSt3__16vectorINS_8functionIFNS_10unique_ptrI12FruitToppingNS_14default_deleteIS3_EEEEvEEENS_9allocatorIS8_EEE20__throw_length_errorB8ne180100Ev, symObjAddr: 0x70E0, symBinAddr: 0x100009540, symSize: 0x1C }
  - { offset: 0x261A7, size: 0x8, addend: 0x0, symName: __ZNKSt3__16vectorINS_8functionIFNS_10unique_ptrI12FruitToppingNS_14default_deleteIS3_EEEEvEEENS_9allocatorIS8_EEE8capacityB8ne180100Ev, symObjAddr: 0x70FC, symBinAddr: 0x10000955C, symSize: 0x40 }
  - { offset: 0x261D7, size: 0x8, addend: 0x0, symName: __ZNSt3__116allocator_traitsINS_9allocatorINS_8functionIFNS_10unique_ptrI12FruitToppingNS_14default_deleteIS4_EEEEvEEEEEE8max_sizeB8ne180100ISA_vEEmRKSA_, symObjAddr: 0x713C, symBinAddr: 0x10000959C, symSize: 0x24 }
  - { offset: 0x26205, size: 0x8, addend: 0x0, symName: __ZNKSt3__16vectorINS_8functionIFNS_10unique_ptrI12FruitToppingNS_14default_deleteIS3_EEEEvEEENS_9allocatorIS8_EEE7__allocB8ne180100Ev, symObjAddr: 0x7160, symBinAddr: 0x1000095C0, symSize: 0x28 }
  - { offset: 0x2622B, size: 0x8, addend: 0x0, symName: __ZNKSt3__19allocatorINS_8functionIFNS_10unique_ptrI12FruitToppingNS_14default_deleteIS3_EEEEvEEEE8max_sizeB8ne180100Ev, symObjAddr: 0x7188, symBinAddr: 0x1000095E8, symSize: 0x14 }
  - { offset: 0x26251, size: 0x8, addend: 0x0, symName: __ZNKSt3__117__compressed_pairIPNS_8functionIFNS_10unique_ptrI12FruitToppingNS_14default_deleteIS3_EEEEvEEENS_9allocatorIS8_EEE6secondB8ne180100Ev, symObjAddr: 0x719C, symBinAddr: 0x1000095FC, symSize: 0x24 }
  - { offset: 0x26277, size: 0x8, addend: 0x0, symName: __ZNKSt3__122__compressed_pair_elemINS_9allocatorINS_8functionIFNS_10unique_ptrI12FruitToppingNS_14default_deleteIS4_EEEEvEEEEELi1ELb1EE5__getB8ne180100Ev, symObjAddr: 0x71C0, symBinAddr: 0x100009620, symSize: 0x14 }
  - { offset: 0x2629D, size: 0x8, addend: 0x0, symName: __ZNKSt3__16vectorINS_8functionIFNS_10unique_ptrI12FruitToppingNS_14default_deleteIS3_EEEEvEEENS_9allocatorIS8_EEE9__end_capB8ne180100Ev, symObjAddr: 0x71D4, symBinAddr: 0x100009634, symSize: 0x28 }
  - { offset: 0x262C3, size: 0x8, addend: 0x0, symName: __ZNKSt3__117__compressed_pairIPNS_8functionIFNS_10unique_ptrI12FruitToppingNS_14default_deleteIS3_EEEEvEEENS_9allocatorIS8_EEE5firstB8ne180100Ev, symObjAddr: 0x71FC, symBinAddr: 0x10000965C, symSize: 0x24 }
  - { offset: 0x262E9, size: 0x8, addend: 0x0, symName: __ZNKSt3__122__compressed_pair_elemIPNS_8functionIFNS_10unique_ptrI12FruitToppingNS_14default_deleteIS3_EEEEvEEELi0ELb0EE5__getB8ne180100Ev, symObjAddr: 0x7220, symBinAddr: 0x100009680, symSize: 0x14 }
  - { offset: 0x2630F, size: 0x8, addend: 0x0, symName: __ZNSt3__114__split_bufferINS_8functionIFNS_10unique_ptrI12FruitToppingNS_14default_deleteIS3_EEEEvEEERNS_9allocatorIS8_EEEC2EmmSB_, symObjAddr: 0x7234, symBinAddr: 0x100009694, symSize: 0xD4 }
  - { offset: 0x26383, size: 0x8, addend: 0x0, symName: __ZNSt3__117__compressed_pairIPNS_8functionIFNS_10unique_ptrI12FruitToppingNS_14default_deleteIS3_EEEEvEEERNS_9allocatorIS8_EEEC1B8ne180100IDnSC_EEOT_OT0_, symObjAddr: 0x7308, symBinAddr: 0x100009768, symSize: 0x3C }
  - { offset: 0x263DB, size: 0x8, addend: 0x0, symName: __ZNSt3__114__split_bufferINS_8functionIFNS_10unique_ptrI12FruitToppingNS_14default_deleteIS3_EEEEvEEERNS_9allocatorIS8_EEE7__allocB8ne180100Ev, symObjAddr: 0x7384, symBinAddr: 0x1000097E4, symSize: 0x28 }
  - { offset: 0x26401, size: 0x8, addend: 0x0, symName: __ZNSt3__114__split_bufferINS_8functionIFNS_10unique_ptrI12FruitToppingNS_14default_deleteIS3_EEEEvEEERNS_9allocatorIS8_EEE9__end_capB8ne180100Ev, symObjAddr: 0x73AC, symBinAddr: 0x10000980C, symSize: 0x28 }
  - { offset: 0x26427, size: 0x8, addend: 0x0, symName: __ZNSt3__117__compressed_pairIPNS_8functionIFNS_10unique_ptrI12FruitToppingNS_14default_deleteIS3_EEEEvEEERNS_9allocatorIS8_EEEC2B8ne180100IDnSC_EEOT_OT0_, symObjAddr: 0x73D4, symBinAddr: 0x100009834, symSize: 0x48 }
  - { offset: 0x2647F, size: 0x8, addend: 0x0, symName: __ZNSt3__122__compressed_pair_elemIRNS_9allocatorINS_8functionIFNS_10unique_ptrI12FruitToppingNS_14default_deleteIS4_EEEEvEEEEELi1ELb0EEC2B8ne180100ISB_vEEOT_, symObjAddr: 0x741C, symBinAddr: 0x10000987C, symSize: 0x20 }
  - { offset: 0x264C1, size: 0x8, addend: 0x0, symName: __ZNSt3__19allocatorINS_8functionIFNS_10unique_ptrI12FruitToppingNS_14default_deleteIS3_EEEEvEEEE8allocateB8ne180100Em, symObjAddr: 0x743C, symBinAddr: 0x10000989C, symSize: 0x58 }
  - { offset: 0x264F5, size: 0x8, addend: 0x0, symName: __ZNSt3__117__compressed_pairIPNS_8functionIFNS_10unique_ptrI12FruitToppingNS_14default_deleteIS3_EEEEvEEERNS_9allocatorIS8_EEE6secondB8ne180100Ev, symObjAddr: 0x7494, symBinAddr: 0x1000098F4, symSize: 0x28 }
  - { offset: 0x2651B, size: 0x8, addend: 0x0, symName: __ZNSt3__122__compressed_pair_elemIRNS_9allocatorINS_8functionIFNS_10unique_ptrI12FruitToppingNS_14default_deleteIS4_EEEEvEEEEELi1ELb0EE5__getB8ne180100Ev, symObjAddr: 0x74BC, symBinAddr: 0x10000991C, symSize: 0x18 }
  - { offset: 0x26541, size: 0x8, addend: 0x0, symName: __ZNSt3__117__compressed_pairIPNS_8functionIFNS_10unique_ptrI12FruitToppingNS_14default_deleteIS3_EEEEvEEERNS_9allocatorIS8_EEE5firstB8ne180100Ev, symObjAddr: 0x74D4, symBinAddr: 0x100009934, symSize: 0x24 }
  - { offset: 0x26567, size: 0x8, addend: 0x0, symName: __ZNKSt3__16vectorINS_8functionIFNS_10unique_ptrI12FruitToppingNS_14default_deleteIS3_EEEEvEEENS_9allocatorIS8_EEE17__annotate_deleteB8ne180100Ev, symObjAddr: 0x74F8, symBinAddr: 0x100009958, symSize: 0x10 }
  - { offset: 0x2658D, size: 0x8, addend: 0x0, symName: __ZNSt3__116reverse_iteratorIPNS_8functionIFNS_10unique_ptrI12FruitToppingNS_14default_deleteIS3_EEEEvEEEEC1B8ne180100ES9_, symObjAddr: 0x7634, symBinAddr: 0x100009A94, symSize: 0x34 }
  - { offset: 0x265C5, size: 0x8, addend: 0x0, symName: __ZNKSt3__116reverse_iteratorIPNS_8functionIFNS_10unique_ptrI12FruitToppingNS_14default_deleteIS3_EEEEvEEEE4baseB8ne180100Ev, symObjAddr: 0x7668, symBinAddr: 0x100009AC8, symSize: 0x18 }
  - { offset: 0x265EB, size: 0x8, addend: 0x0, symName: __ZNKSt3__16vectorINS_8functionIFNS_10unique_ptrI12FruitToppingNS_14default_deleteIS3_EEEEvEEENS_9allocatorIS8_EEE14__annotate_newB8ne180100Em, symObjAddr: 0x76BC, symBinAddr: 0x100009B1C, symSize: 0x14 }
  - { offset: 0x26620, size: 0x8, addend: 0x0, symName: __ZNSt3__129_AllocatorDestroyRangeReverseINS_9allocatorINS_8functionIFNS_10unique_ptrI12FruitToppingNS_14default_deleteIS4_EEEEvEEEEENS_16reverse_iteratorIPS9_EEEC1B8ne180100ERSA_RSD_SG_, symObjAddr: 0x771C, symBinAddr: 0x100009B7C, symSize: 0x44 }
  - { offset: 0x26677, size: 0x8, addend: 0x0, symName: __ZNKSt3__116reverse_iteratorIPNS_8functionIFNS_10unique_ptrI12FruitToppingNS_14default_deleteIS3_EEEEvEEEEdeB8ne180100Ev, symObjAddr: 0x77CC, symBinAddr: 0x100009C2C, symSize: 0x28 }
  - { offset: 0x266AB, size: 0x8, addend: 0x0, symName: __ZNSt3__116reverse_iteratorIPNS_8functionIFNS_10unique_ptrI12FruitToppingNS_14default_deleteIS3_EEEEvEEEEppB8ne180100Ev, symObjAddr: 0x77F4, symBinAddr: 0x100009C54, symSize: 0x20 }
  - { offset: 0x266D1, size: 0x8, addend: 0x0, symName: __ZNSt3__128__exception_guard_exceptionsINS_29_AllocatorDestroyRangeReverseINS_9allocatorINS_8functionIFNS_10unique_ptrI12FruitToppingNS_14default_deleteIS5_EEEEvEEEEENS_16reverse_iteratorIPSA_EEEEE10__completeB8ne180100Ev, symObjAddr: 0x7814, symBinAddr: 0x100009C74, symSize: 0x1C }
  - { offset: 0x266F7, size: 0x8, addend: 0x0, symName: __ZNSt3__128__exception_guard_exceptionsINS_29_AllocatorDestroyRangeReverseINS_9allocatorINS_8functionIFNS_10unique_ptrI12FruitToppingNS_14default_deleteIS5_EEEEvEEEEENS_16reverse_iteratorIPSA_EEEEED1B8ne180100Ev, symObjAddr: 0x7830, symBinAddr: 0x100009C90, symSize: 0x2C }
  - { offset: 0x26721, size: 0x8, addend: 0x0, symName: __ZNSt3__128__exception_guard_exceptionsINS_29_AllocatorDestroyRangeReverseINS_9allocatorINS_8functionIFNS_10unique_ptrI12FruitToppingNS_14default_deleteIS5_EEEEvEEEEENS_16reverse_iteratorIPSA_EEEEEC1B8ne180100ESF_, symObjAddr: 0x785C, symBinAddr: 0x100009CBC, symSize: 0x34 }
  - { offset: 0x2675A, size: 0x8, addend: 0x0, symName: __ZNSt3__128__exception_guard_exceptionsINS_29_AllocatorDestroyRangeReverseINS_9allocatorINS_8functionIFNS_10unique_ptrI12FruitToppingNS_14default_deleteIS5_EEEEvEEEEENS_16reverse_iteratorIPSA_EEEEEC2B8ne180100ESF_, symObjAddr: 0x7890, symBinAddr: 0x100009CF0, symSize: 0x30 }
  - { offset: 0x26793, size: 0x8, addend: 0x0, symName: __ZNSt3__129_AllocatorDestroyRangeReverseINS_9allocatorINS_8functionIFNS_10unique_ptrI12FruitToppingNS_14default_deleteIS4_EEEEvEEEEENS_16reverse_iteratorIPS9_EEEC2B8ne180100ERSA_RSD_SG_, symObjAddr: 0x78C0, symBinAddr: 0x100009D20, symSize: 0x38 }
  - { offset: 0x267EF, size: 0x8, addend: 0x0, symName: __ZNSt3__119__to_address_helperINS_16reverse_iteratorIPNS_8functionIFNS_10unique_ptrI12FruitToppingNS_14default_deleteIS4_EEEEvEEEEEvE6__callB8ne180100ERKSB_, symObjAddr: 0x78F8, symBinAddr: 0x100009D58, symSize: 0x38 }
  - { offset: 0x26812, size: 0x8, addend: 0x0, symName: __ZNKSt3__116reverse_iteratorIPNS_8functionIFNS_10unique_ptrI12FruitToppingNS_14default_deleteIS3_EEEEvEEEEptB8ne180100Ev, symObjAddr: 0x7930, symBinAddr: 0x100009D90, symSize: 0x24 }
  - { offset: 0x26838, size: 0x8, addend: 0x0, symName: __ZNSt3__128__exception_guard_exceptionsINS_29_AllocatorDestroyRangeReverseINS_9allocatorINS_8functionIFNS_10unique_ptrI12FruitToppingNS_14default_deleteIS5_EEEEvEEEEENS_16reverse_iteratorIPSA_EEEEED2B8ne180100Ev, symObjAddr: 0x7954, symBinAddr: 0x100009DB4, symSize: 0x50 }
  - { offset: 0x26862, size: 0x8, addend: 0x0, symName: __ZNKSt3__129_AllocatorDestroyRangeReverseINS_9allocatorINS_8functionIFNS_10unique_ptrI12FruitToppingNS_14default_deleteIS4_EEEEvEEEEENS_16reverse_iteratorIPS9_EEEclB8ne180100Ev, symObjAddr: 0x79A4, symBinAddr: 0x100009E04, symSize: 0xB4 }
  - { offset: 0x26889, size: 0x8, addend: 0x0, symName: __ZNSt3__116reverse_iteratorINS0_IPNS_8functionIFNS_10unique_ptrI12FruitToppingNS_14default_deleteIS3_EEEEvEEEEEEC1B8ne180100ESA_, symObjAddr: 0x7AC8, symBinAddr: 0x100009F28, symSize: 0x3C }
  - { offset: 0x268C1, size: 0x8, addend: 0x0, symName: __ZNSt3__116allocator_traitsINS_9allocatorINS_8functionIFNS_10unique_ptrI12FruitToppingNS_14default_deleteIS4_EEEEvEEEEEE7destroyB8ne180100IS9_vEEvRSA_PT_, symObjAddr: 0x7B64, symBinAddr: 0x100009FC4, symSize: 0x2C }
  - { offset: 0x268FE, size: 0x8, addend: 0x0, symName: __ZNSt3__116reverse_iteratorINS0_IPNS_8functionIFNS_10unique_ptrI12FruitToppingNS_14default_deleteIS3_EEEEvEEEEEEppB8ne180100Ev, symObjAddr: 0x7BB4, symBinAddr: 0x10000A014, symSize: 0x30 }
  - { offset: 0x26924, size: 0x8, addend: 0x0, symName: __ZNKSt3__116reverse_iteratorINS0_IPNS_8functionIFNS_10unique_ptrI12FruitToppingNS_14default_deleteIS3_EEEEvEEEEEE4baseB8ne180100Ev, symObjAddr: 0x7BE4, symBinAddr: 0x10000A044, symSize: 0x24 }
  - { offset: 0x2694A, size: 0x8, addend: 0x0, symName: __ZNSt3__19allocatorINS_8functionIFNS_10unique_ptrI12FruitToppingNS_14default_deleteIS3_EEEEvEEEE7destroyB8ne180100EPS8_, symObjAddr: 0x7C08, symBinAddr: 0x10000A068, symSize: 0x28 }
  - { offset: 0x26983, size: 0x8, addend: 0x0, symName: __ZNSt3__119__to_address_helperINS_16reverse_iteratorINS1_IPNS_8functionIFNS_10unique_ptrI12FruitToppingNS_14default_deleteIS4_EEEEvEEEEEEEvE6__callB8ne180100ERKSC_, symObjAddr: 0x7C30, symBinAddr: 0x10000A090, symSize: 0x38 }
  - { offset: 0x269A6, size: 0x8, addend: 0x0, symName: __ZNKSt3__116reverse_iteratorINS0_IPNS_8functionIFNS_10unique_ptrI12FruitToppingNS_14default_deleteIS3_EEEEvEEEEEEptB8ne180100Ev, symObjAddr: 0x7C68, symBinAddr: 0x10000A0C8, symSize: 0x24 }
  - { offset: 0x269CC, size: 0x8, addend: 0x0, symName: __ZNKSt3__116reverse_iteratorINS0_IPNS_8functionIFNS_10unique_ptrI12FruitToppingNS_14default_deleteIS3_EEEEvEEEEEEdeB8ne180100Ev, symObjAddr: 0x7C8C, symBinAddr: 0x10000A0EC, symSize: 0x34 }
  - { offset: 0x26A00, size: 0x8, addend: 0x0, symName: __ZNSt3__116reverse_iteratorIPNS_8functionIFNS_10unique_ptrI12FruitToppingNS_14default_deleteIS3_EEEEvEEEEmmB8ne180100Ev, symObjAddr: 0x7CC0, symBinAddr: 0x10000A120, symSize: 0x20 }
  - { offset: 0x26A26, size: 0x8, addend: 0x0, symName: __ZNSt3__116reverse_iteratorINS0_IPNS_8functionIFNS_10unique_ptrI12FruitToppingNS_14default_deleteIS3_EEEEvEEEEEEC2B8ne180100ESA_, symObjAddr: 0x7CE0, symBinAddr: 0x10000A140, symSize: 0x2C }
  - { offset: 0x26A5E, size: 0x8, addend: 0x0, symName: __ZNSt3__116reverse_iteratorIPNS_8functionIFNS_10unique_ptrI12FruitToppingNS_14default_deleteIS3_EEEEvEEEEC2B8ne180100ES9_, symObjAddr: 0x7D0C, symBinAddr: 0x10000A16C, symSize: 0x28 }
  - { offset: 0x26A96, size: 0x8, addend: 0x0, symName: __ZNSt3__114__split_bufferINS_8functionIFNS_10unique_ptrI12FruitToppingNS_14default_deleteIS3_EEEEvEEERNS_9allocatorIS8_EEED2Ev, symObjAddr: 0x7D34, symBinAddr: 0x10000A194, symSize: 0x8C }
  - { offset: 0x26AC2, size: 0x8, addend: 0x0, symName: __ZNSt3__114__split_bufferINS_8functionIFNS_10unique_ptrI12FruitToppingNS_14default_deleteIS3_EEEEvEEERNS_9allocatorIS8_EEE5clearB8ne180100Ev, symObjAddr: 0x7DC0, symBinAddr: 0x10000A220, symSize: 0x28 }
  - { offset: 0x26AE8, size: 0x8, addend: 0x0, symName: __ZNSt3__116allocator_traitsINS_9allocatorINS_8functionIFNS_10unique_ptrI12FruitToppingNS_14default_deleteIS4_EEEEvEEEEEE10deallocateB8ne180100ERSA_PS9_m, symObjAddr: 0x7DE8, symBinAddr: 0x10000A248, symSize: 0x34 }
  - { offset: 0x26B2A, size: 0x8, addend: 0x0, symName: __ZNKSt3__114__split_bufferINS_8functionIFNS_10unique_ptrI12FruitToppingNS_14default_deleteIS3_EEEEvEEERNS_9allocatorIS8_EEE8capacityB8ne180100Ev, symObjAddr: 0x7E1C, symBinAddr: 0x10000A27C, symSize: 0x40 }
  - { offset: 0x26B50, size: 0x8, addend: 0x0, symName: __ZNSt3__114__split_bufferINS_8functionIFNS_10unique_ptrI12FruitToppingNS_14default_deleteIS3_EEEEvEEERNS_9allocatorIS8_EEE17__destruct_at_endB8ne180100EPS8_, symObjAddr: 0x7E5C, symBinAddr: 0x10000A2BC, symSize: 0x2C }
  - { offset: 0x26B84, size: 0x8, addend: 0x0, symName: __ZNSt3__114__split_bufferINS_8functionIFNS_10unique_ptrI12FruitToppingNS_14default_deleteIS3_EEEEvEEERNS_9allocatorIS8_EEE17__destruct_at_endB8ne180100EPS8_NS_17integral_constantIbLb0EEE, symObjAddr: 0x7E88, symBinAddr: 0x10000A2E8, symSize: 0x80 }
  - { offset: 0x26BC4, size: 0x8, addend: 0x0, symName: __ZNSt3__19allocatorINS_8functionIFNS_10unique_ptrI12FruitToppingNS_14default_deleteIS3_EEEEvEEEE10deallocateB8ne180100EPS8_m, symObjAddr: 0x7F08, symBinAddr: 0x10000A368, symSize: 0x40 }
  - { offset: 0x26C06, size: 0x8, addend: 0x0, symName: __ZNKSt3__114__split_bufferINS_8functionIFNS_10unique_ptrI12FruitToppingNS_14default_deleteIS3_EEEEvEEERNS_9allocatorIS8_EEE9__end_capB8ne180100Ev, symObjAddr: 0x7F48, symBinAddr: 0x10000A3A8, symSize: 0x28 }
  - { offset: 0x26C2C, size: 0x8, addend: 0x0, symName: __ZNKSt3__117__compressed_pairIPNS_8functionIFNS_10unique_ptrI12FruitToppingNS_14default_deleteIS3_EEEEvEEERNS_9allocatorIS8_EEE5firstB8ne180100Ev, symObjAddr: 0x7F70, symBinAddr: 0x10000A3D0, symSize: 0x24 }
  - { offset: 0x26C52, size: 0x8, addend: 0x0, symName: __ZNSt3__18functionIFNS_10unique_ptrI12FruitToppingNS_14default_deleteIS2_EEEEvEEC2IZN11ToppingListC1EvEUlvE_vEET_, symObjAddr: 0x7F94, symBinAddr: 0x10000A3F4, symSize: 0x30 }
  - { offset: 0x26C97, size: 0x8, addend: 0x0, symName: __ZNSt3__110__function12__value_funcIFNS_10unique_ptrI12FruitToppingNS_14default_deleteIS3_EEEEvEEC1B8ne180100IZN11ToppingListC1EvEUlvE_Li0EEEOT_, symObjAddr: 0x7FC4, symBinAddr: 0x10000A424, symSize: 0x50 }
  - { offset: 0x26CDF, size: 0x8, addend: 0x0, symName: __ZNSt3__19allocatorIZN11ToppingListC1EvEUlvE_EC1B8ne180100Ev, symObjAddr: 0x8014, symBinAddr: 0x10000A474, symSize: 0x2C }
  - { offset: 0x26D09, size: 0x8, addend: 0x0, symName: __ZNSt3__110__function12__value_funcIFNS_10unique_ptrI12FruitToppingNS_14default_deleteIS3_EEEEvEEC1B8ne180100IZN11ToppingListC1EvEUlvE_NS_9allocatorISB_EEEEOT_RKT0_, symObjAddr: 0x8040, symBinAddr: 0x10000A4A0, symSize: 0x3C }
  - { offset: 0x26D63, size: 0x8, addend: 0x0, symName: __ZNSt3__19allocatorIZN11ToppingListC1EvEUlvE_EC2B8ne180100Ev, symObjAddr: 0x807C, symBinAddr: 0x10000A4DC, symSize: 0x2C }
  - { offset: 0x26D8D, size: 0x8, addend: 0x0, symName: __ZNSt3__116__non_trivial_ifILb1ENS_9allocatorIZN11ToppingListC1EvEUlvE_EEEC2B8ne180100Ev, symObjAddr: 0x80A8, symBinAddr: 0x10000A508, symSize: 0x14 }
  - { offset: 0x26DB7, size: 0x8, addend: 0x0, symName: __ZNSt3__110__function12__value_funcIFNS_10unique_ptrI12FruitToppingNS_14default_deleteIS3_EEEEvEEC2B8ne180100IZN11ToppingListC1EvEUlvE_NS_9allocatorISB_EEEEOT_RKT0_, symObjAddr: 0x80BC, symBinAddr: 0x10000A51C, symSize: 0x94 }
  - { offset: 0x26E5E, size: 0x8, addend: 0x0, symName: __ZNSt3__19allocatorINS_10__function6__funcIZN11ToppingListC1EvEUlvE_NS0_IS4_EEFNS_10unique_ptrI12FruitToppingNS_14default_deleteIS7_EEEEvEEEEC1B8ne180100IS4_EERKNS0_IT_EE, symObjAddr: 0x8168, symBinAddr: 0x10000A5C8, symSize: 0x34 }
  - { offset: 0x26EA0, size: 0x8, addend: 0x0, symName: __ZNSt3__19allocatorIZN11ToppingListC1EvEUlvE_EC1B8ne180100INS_10__function6__funcIS2_S3_FNS_10unique_ptrI12FruitToppingNS_14default_deleteIS8_EEEEvEEEEERKNS0_IT_EE, symObjAddr: 0x819C, symBinAddr: 0x10000A5FC, symSize: 0x34 }
  - { offset: 0x26EDD, size: 0x8, addend: 0x0, symName: __ZNSt3__110__function6__funcIZN11ToppingListC1EvEUlvE_NS_9allocatorIS3_EEFNS_10unique_ptrI12FruitToppingNS_14default_deleteIS7_EEEEvEEC1B8ne180100EOS3_OS5_, symObjAddr: 0x81D0, symBinAddr: 0x10000A630, symSize: 0x3C }
  - { offset: 0x26F25, size: 0x8, addend: 0x0, symName: __ZNSt3__19allocatorINS_10__function6__funcIZN11ToppingListC1EvEUlvE_NS0_IS4_EEFNS_10unique_ptrI12FruitToppingNS_14default_deleteIS7_EEEEvEEEEC2B8ne180100IS4_EERKNS0_IT_EE, symObjAddr: 0x820C, symBinAddr: 0x10000A66C, symSize: 0x30 }
  - { offset: 0x26F62, size: 0x8, addend: 0x0, symName: __ZNSt3__116__non_trivial_ifILb1ENS_9allocatorINS_10__function6__funcIZN11ToppingListC1EvEUlvE_NS1_IS5_EEFNS_10unique_ptrI12FruitToppingNS_14default_deleteIS8_EEEEvEEEEEEC2B8ne180100Ev, symObjAddr: 0x823C, symBinAddr: 0x10000A69C, symSize: 0x14 }
  - { offset: 0x26F8C, size: 0x8, addend: 0x0, symName: __ZNSt3__19allocatorIZN11ToppingListC1EvEUlvE_EC2B8ne180100INS_10__function6__funcIS2_S3_FNS_10unique_ptrI12FruitToppingNS_14default_deleteIS8_EEEEvEEEEERKNS0_IT_EE, symObjAddr: 0x8250, symBinAddr: 0x10000A6B0, symSize: 0x30 }
  - { offset: 0x26FC9, size: 0x8, addend: 0x0, symName: __ZNSt3__110__function6__funcIZN11ToppingListC1EvEUlvE_NS_9allocatorIS3_EEFNS_10unique_ptrI12FruitToppingNS_14default_deleteIS7_EEEEvEEC2B8ne180100EOS3_OS5_, symObjAddr: 0x8280, symBinAddr: 0x10000A6E0, symSize: 0x80 }
  - { offset: 0x27011, size: 0x8, addend: 0x0, symName: __ZNSt3__110__function6__baseIFNS_10unique_ptrI12FruitToppingNS_14default_deleteIS3_EEEEvEEC2B8ne180100Ev, symObjAddr: 0x8300, symBinAddr: 0x10000A760, symSize: 0x24 }
  - { offset: 0x2703B, size: 0x8, addend: 0x0, symName: __ZNSt3__110__function12__alloc_funcIZN11ToppingListC1EvEUlvE_NS_9allocatorIS3_EEFNS_10unique_ptrI12FruitToppingNS_14default_deleteIS7_EEEEvEEC1B8ne180100EOS3_OS5_, symObjAddr: 0x8324, symBinAddr: 0x10000A784, symSize: 0x3C }
  - { offset: 0x27081, size: 0x8, addend: 0x0, symName: __ZNSt3__110__function6__baseIFNS_10unique_ptrI12FruitToppingNS_14default_deleteIS3_EEEEvEED2Ev, symObjAddr: 0x8360, symBinAddr: 0x10000A7C0, symSize: 0x14 }
  - { offset: 0x270AB, size: 0x8, addend: 0x0, symName: __ZNSt3__110__function6__funcIZN11ToppingListC1EvEUlvE_NS_9allocatorIS3_EEFNS_10unique_ptrI12FruitToppingNS_14default_deleteIS7_EEEEvEED1Ev, symObjAddr: 0x8374, symBinAddr: 0x10000A7D4, symSize: 0x2C }
  - { offset: 0x270D7, size: 0x8, addend: 0x0, symName: __ZNSt3__110__function6__funcIZN11ToppingListC1EvEUlvE_NS_9allocatorIS3_EEFNS_10unique_ptrI12FruitToppingNS_14default_deleteIS7_EEEEvEED0Ev, symObjAddr: 0x83A0, symBinAddr: 0x10000A800, symSize: 0x30 }
  - { offset: 0x27103, size: 0x8, addend: 0x0, symName: __ZNKSt3__110__function6__funcIZN11ToppingListC1EvEUlvE_NS_9allocatorIS3_EEFNS_10unique_ptrI12FruitToppingNS_14default_deleteIS7_EEEEvEE7__cloneEv, symObjAddr: 0x83D0, symBinAddr: 0x10000A830, symSize: 0xFC }
  - { offset: 0x27155, size: 0x8, addend: 0x0, symName: __ZNKSt3__110__function6__funcIZN11ToppingListC1EvEUlvE_NS_9allocatorIS3_EEFNS_10unique_ptrI12FruitToppingNS_14default_deleteIS7_EEEEvEE7__cloneEPNS0_6__baseISB_EE, symObjAddr: 0x84CC, symBinAddr: 0x10000A92C, symSize: 0x58 }
  - { offset: 0x2718C, size: 0x8, addend: 0x0, symName: __ZNSt3__110__function6__funcIZN11ToppingListC1EvEUlvE_NS_9allocatorIS3_EEFNS_10unique_ptrI12FruitToppingNS_14default_deleteIS7_EEEEvEE7destroyEv, symObjAddr: 0x8524, symBinAddr: 0x10000A984, symSize: 0x28 }
  - { offset: 0x271B4, size: 0x8, addend: 0x0, symName: __ZNSt3__110__function6__funcIZN11ToppingListC1EvEUlvE_NS_9allocatorIS3_EEFNS_10unique_ptrI12FruitToppingNS_14default_deleteIS7_EEEEvEE18destroy_deallocateEv, symObjAddr: 0x854C, symBinAddr: 0x10000A9AC, symSize: 0x58 }
  - { offset: 0x271F7, size: 0x8, addend: 0x0, symName: __ZNSt3__110__function6__funcIZN11ToppingListC1EvEUlvE_NS_9allocatorIS3_EEFNS_10unique_ptrI12FruitToppingNS_14default_deleteIS7_EEEEvEEclEv, symObjAddr: 0x85A4, symBinAddr: 0x10000AA04, symSize: 0x30 }
  - { offset: 0x2721F, size: 0x8, addend: 0x0, symName: __ZNKSt3__110__function6__funcIZN11ToppingListC1EvEUlvE_NS_9allocatorIS3_EEFNS_10unique_ptrI12FruitToppingNS_14default_deleteIS7_EEEEvEE6targetERKSt9type_info, symObjAddr: 0x85D4, symBinAddr: 0x10000AA34, symSize: 0x60 }
  - { offset: 0x27256, size: 0x8, addend: 0x0, symName: __ZNKSt3__110__function6__funcIZN11ToppingListC1EvEUlvE_NS_9allocatorIS3_EEFNS_10unique_ptrI12FruitToppingNS_14default_deleteIS7_EEEEvEE11target_typeEv, symObjAddr: 0x8634, symBinAddr: 0x10000AA94, symSize: 0x18 }
  - { offset: 0x2727E, size: 0x8, addend: 0x0, symName: __ZNSt3__110__function6__baseIFNS_10unique_ptrI12FruitToppingNS_14default_deleteIS3_EEEEvEED1Ev, symObjAddr: 0x864C, symBinAddr: 0x10000AAAC, symSize: 0x14 }
  - { offset: 0x272A8, size: 0x8, addend: 0x0, symName: __ZNSt3__110__function6__baseIFNS_10unique_ptrI12FruitToppingNS_14default_deleteIS3_EEEEvEED0Ev, symObjAddr: 0x8660, symBinAddr: 0x10000AAC0, symSize: 0xC }
  - { offset: 0x272D2, size: 0x8, addend: 0x0, symName: __ZNSt3__110__function12__alloc_funcIZN11ToppingListC1EvEUlvE_NS_9allocatorIS3_EEFNS_10unique_ptrI12FruitToppingNS_14default_deleteIS7_EEEEvEEC2B8ne180100EOS3_OS5_, symObjAddr: 0x866C, symBinAddr: 0x10000AACC, symSize: 0x5C }
  - { offset: 0x27318, size: 0x8, addend: 0x0, symName: __ZNSt3__117__compressed_pairIZN11ToppingListC1EvEUlvE_NS_9allocatorIS2_EEEC1B8ne180100IJOS2_EJOS4_EEENS_21piecewise_construct_tENS_5tupleIJDpT_EEENSA_IJDpT0_EEE, symObjAddr: 0x8720, symBinAddr: 0x10000AB80, symSize: 0x3C }
  - { offset: 0x27382, size: 0x8, addend: 0x0, symName: __ZNSt3__15tupleIJOZN11ToppingListC1EvEUlvE_EEC1B8ne180100IJS2_ELi0EEEDpOT_, symObjAddr: 0x875C, symBinAddr: 0x10000ABBC, symSize: 0x34 }
  - { offset: 0x273CC, size: 0x8, addend: 0x0, symName: __ZNSt3__15tupleIJOZN11ToppingListC1EvEUlvE_EEC2B8ne180100IJS2_ELi0EEEDpOT_, symObjAddr: 0x8790, symBinAddr: 0x10000ABF0, symSize: 0x34 }
  - { offset: 0x27416, size: 0x8, addend: 0x0, symName: __ZNSt3__112__tuple_implINS_15__tuple_indicesIJLm0EEEEJOZN11ToppingListC1EvEUlvE_EEC1B8ne180100IJLm0EEJS5_EJEJEJS4_EEENS1_IJXspT_EEEENS_13__tuple_typesIJDpT0_EEENS1_IJXspT1_EEEENS9_IJDpT2_EEEDpOT3_, symObjAddr: 0x87C4, symBinAddr: 0x10000AC24, symSize: 0x34 }
  - { offset: 0x274AB, size: 0x8, addend: 0x0, symName: __ZNSt3__112__tuple_implINS_15__tuple_indicesIJLm0EEEEJOZN11ToppingListC1EvEUlvE_EEC2B8ne180100IJLm0EEJS5_EJEJEJS4_EEENS1_IJXspT_EEEENS_13__tuple_typesIJDpT0_EEENS1_IJXspT1_EEEENS9_IJDpT2_EEEDpOT3_, symObjAddr: 0x87F8, symBinAddr: 0x10000AC58, symSize: 0x34 }
  - { offset: 0x27540, size: 0x8, addend: 0x0, symName: __ZNSt3__112__tuple_leafILm0EOZN11ToppingListC1EvEUlvE_Lb0EEC2B8ne180100IS2_vEEOT_, symObjAddr: 0x882C, symBinAddr: 0x10000AC8C, symSize: 0x20 }
  - { offset: 0x27583, size: 0x8, addend: 0x0, symName: __ZNSt3__15tupleIJONS_9allocatorIZN11ToppingListC1EvEUlvE_EEEEC1B8ne180100IJS4_ELi0EEEDpOT_, symObjAddr: 0x884C, symBinAddr: 0x10000ACAC, symSize: 0x34 }
  - { offset: 0x275CD, size: 0x8, addend: 0x0, symName: __ZNSt3__15tupleIJONS_9allocatorIZN11ToppingListC1EvEUlvE_EEEEC2B8ne180100IJS4_ELi0EEEDpOT_, symObjAddr: 0x8880, symBinAddr: 0x10000ACE0, symSize: 0x34 }
  - { offset: 0x27617, size: 0x8, addend: 0x0, symName: __ZNSt3__112__tuple_implINS_15__tuple_indicesIJLm0EEEEJONS_9allocatorIZN11ToppingListC1EvEUlvE_EEEEC1B8ne180100IJLm0EEJS7_EJEJEJS6_EEENS1_IJXspT_EEEENS_13__tuple_typesIJDpT0_EEENS1_IJXspT1_EEEENSB_IJDpT2_EEEDpOT3_, symObjAddr: 0x88B4, symBinAddr: 0x10000AD14, symSize: 0x34 }
  - { offset: 0x276AC, size: 0x8, addend: 0x0, symName: __ZNSt3__112__tuple_implINS_15__tuple_indicesIJLm0EEEEJONS_9allocatorIZN11ToppingListC1EvEUlvE_EEEEC2B8ne180100IJLm0EEJS7_EJEJEJS6_EEENS1_IJXspT_EEEENS_13__tuple_typesIJDpT0_EEENS1_IJXspT1_EEEENSB_IJDpT2_EEEDpOT3_, symObjAddr: 0x88E8, symBinAddr: 0x10000AD48, symSize: 0x34 }
  - { offset: 0x27741, size: 0x8, addend: 0x0, symName: __ZNSt3__112__tuple_leafILm0EONS_9allocatorIZN11ToppingListC1EvEUlvE_EELb0EEC2B8ne180100IS4_vEEOT_, symObjAddr: 0x891C, symBinAddr: 0x10000AD7C, symSize: 0x20 }
  - { offset: 0x27784, size: 0x8, addend: 0x0, symName: __ZNSt3__117__compressed_pairIZN11ToppingListC1EvEUlvE_NS_9allocatorIS2_EEEC2B8ne180100IJOS2_EJOS4_EEENS_21piecewise_construct_tENS_5tupleIJDpT_EEENSA_IJDpT0_EEE, symObjAddr: 0x893C, symBinAddr: 0x10000AD9C, symSize: 0x54 }
  - { offset: 0x277EE, size: 0x8, addend: 0x0, symName: __ZNSt3__122__compressed_pair_elemIZN11ToppingListC1EvEUlvE_Li0ELb1EEC2B8ne180100IJOS2_EJLm0EEEENS_21piecewise_construct_tENS_5tupleIJDpT_EEENS_15__tuple_indicesIJXspT0_EEEE, symObjAddr: 0x8990, symBinAddr: 0x10000ADF0, symSize: 0x38 }
  - { offset: 0x27851, size: 0x8, addend: 0x0, symName: __ZNSt3__122__compressed_pair_elemINS_9allocatorIZN11ToppingListC1EvEUlvE_EELi1ELb1EEC2B8ne180100IJOS4_EJLm0EEEENS_21piecewise_construct_tENS_5tupleIJDpT_EEENS_15__tuple_indicesIJXspT0_EEEE, symObjAddr: 0x89C8, symBinAddr: 0x10000AE28, symSize: 0x38 }
  - { offset: 0x278B4, size: 0x8, addend: 0x0, symName: __ZNSt3__112__tuple_leafILm0EOZN11ToppingListC1EvEUlvE_Lb0EE3getB8ne180100Ev, symObjAddr: 0x8A24, symBinAddr: 0x10000AE84, symSize: 0x18 }
  - { offset: 0x278DA, size: 0x8, addend: 0x0, symName: __ZNSt3__112__tuple_leafILm0EONS_9allocatorIZN11ToppingListC1EvEUlvE_EELb0EE3getB8ne180100Ev, symObjAddr: 0x8A60, symBinAddr: 0x10000AEC0, symSize: 0x18 }
  - { offset: 0x27900, size: 0x8, addend: 0x0, symName: __ZNSt3__110__function6__funcIZN11ToppingListC1EvEUlvE_NS_9allocatorIS3_EEFNS_10unique_ptrI12FruitToppingNS_14default_deleteIS7_EEEEvEED2Ev, symObjAddr: 0x8A78, symBinAddr: 0x10000AED8, symSize: 0x2C }
  - { offset: 0x2792C, size: 0x8, addend: 0x0, symName: __ZNKSt3__110__function12__alloc_funcIZN11ToppingListC1EvEUlvE_NS_9allocatorIS3_EEFNS_10unique_ptrI12FruitToppingNS_14default_deleteIS7_EEEEvEE15__get_allocatorB8ne180100Ev, symObjAddr: 0x8AA4, symBinAddr: 0x10000AF04, symSize: 0x24 }
  - { offset: 0x27952, size: 0x8, addend: 0x0, symName: __ZNSt3__19allocatorINS_10__function6__funcIZN11ToppingListC1EvEUlvE_NS0_IS4_EEFNS_10unique_ptrI12FruitToppingNS_14default_deleteIS7_EEEEvEEEE8allocateB8ne180100Em, symObjAddr: 0x8AC8, symBinAddr: 0x10000AF28, symSize: 0x58 }
  - { offset: 0x27995, size: 0x8, addend: 0x0, symName: __ZNSt3__122__allocator_destructorINS_9allocatorINS_10__function6__funcIZN11ToppingListC1EvEUlvE_NS1_IS5_EEFNS_10unique_ptrI12FruitToppingNS_14default_deleteIS8_EEEEvEEEEEEC1B8ne180100ERSE_m, symObjAddr: 0x8B20, symBinAddr: 0x10000AF80, symSize: 0x3C }
  - { offset: 0x27A69, size: 0x8, addend: 0x0, symName: __ZNSt3__110unique_ptrINS_10__function6__funcIZN11ToppingListC1EvEUlvE_NS_9allocatorIS4_EEFNS0_I12FruitToppingNS_14default_deleteIS7_EEEEvEEENS_22__allocator_destructorINS5_ISC_EEEEEC1B8ne180100ILb1EvEEPSC_NS_16__dependent_typeINS_27__unique_ptr_deleter_sfinaeISF_EEXT_EE20__good_rval_ref_typeE, symObjAddr: 0x8B5C, symBinAddr: 0x10000AFBC, symSize: 0x3C }
  - { offset: 0x27ABA, size: 0x8, addend: 0x0, symName: __ZNKSt3__110unique_ptrINS_10__function6__funcIZN11ToppingListC1EvEUlvE_NS_9allocatorIS4_EEFNS0_I12FruitToppingNS_14default_deleteIS7_EEEEvEEENS_22__allocator_destructorINS5_ISC_EEEEE3getB8ne180100Ev, symObjAddr: 0x8B98, symBinAddr: 0x10000AFF8, symSize: 0x28 }
  - { offset: 0x27AE0, size: 0x8, addend: 0x0, symName: __ZNKSt3__110__function12__alloc_funcIZN11ToppingListC1EvEUlvE_NS_9allocatorIS3_EEFNS_10unique_ptrI12FruitToppingNS_14default_deleteIS7_EEEEvEE8__targetB8ne180100Ev, symObjAddr: 0x8BC0, symBinAddr: 0x10000B020, symSize: 0x24 }
  - { offset: 0x27B06, size: 0x8, addend: 0x0, symName: __ZNSt3__110__function6__funcIZN11ToppingListC1EvEUlvE_NS_9allocatorIS3_EEFNS_10unique_ptrI12FruitToppingNS_14default_deleteIS7_EEEEvEEC1B8ne180100ERKS3_OS5_, symObjAddr: 0x8BE4, symBinAddr: 0x10000B044, symSize: 0x3C }
  - { offset: 0x27B4E, size: 0x8, addend: 0x0, symName: __ZNSt3__110unique_ptrINS_10__function6__funcIZN11ToppingListC1EvEUlvE_NS_9allocatorIS4_EEFNS0_I12FruitToppingNS_14default_deleteIS7_EEEEvEEENS_22__allocator_destructorINS5_ISC_EEEEE7releaseB8ne180100Ev, symObjAddr: 0x8C20, symBinAddr: 0x10000B080, symSize: 0x44 }
  - { offset: 0x27B83, size: 0x8, addend: 0x0, symName: __ZNSt3__110unique_ptrINS_10__function6__funcIZN11ToppingListC1EvEUlvE_NS_9allocatorIS4_EEFNS0_I12FruitToppingNS_14default_deleteIS7_EEEEvEEENS_22__allocator_destructorINS5_ISC_EEEEED1B8ne180100Ev, symObjAddr: 0x8C64, symBinAddr: 0x10000B0C4, symSize: 0x2C }
  - { offset: 0x27BAD, size: 0x8, addend: 0x0, symName: __ZNKSt3__117__compressed_pairIZN11ToppingListC1EvEUlvE_NS_9allocatorIS2_EEE6secondB8ne180100Ev, symObjAddr: 0x8C90, symBinAddr: 0x10000B0F0, symSize: 0x24 }
  - { offset: 0x27BD3, size: 0x8, addend: 0x0, symName: __ZNKSt3__122__compressed_pair_elemINS_9allocatorIZN11ToppingListC1EvEUlvE_EELi1ELb1EE5__getB8ne180100Ev, symObjAddr: 0x8CB4, symBinAddr: 0x10000B114, symSize: 0x14 }
  - { offset: 0x27C03, size: 0x8, addend: 0x0, symName: __ZNSt3__116allocator_traitsINS_9allocatorINS_10__function6__funcIZN11ToppingListC1EvEUlvE_NS1_IS5_EEFNS_10unique_ptrI12FruitToppingNS_14default_deleteIS8_EEEEvEEEEEE8max_sizeB8ne180100ISE_vEEmRKSE_, symObjAddr: 0x8CC8, symBinAddr: 0x10000B128, symSize: 0x24 }
  - { offset: 0x27C31, size: 0x8, addend: 0x0, symName: __ZNKSt3__19allocatorINS_10__function6__funcIZN11ToppingListC1EvEUlvE_NS0_IS4_EEFNS_10unique_ptrI12FruitToppingNS_14default_deleteIS7_EEEEvEEEE8max_sizeB8ne180100Ev, symObjAddr: 0x8CEC, symBinAddr: 0x10000B14C, symSize: 0x14 }
  - { offset: 0x27C57, size: 0x8, addend: 0x0, symName: __ZNSt3__122__allocator_destructorINS_9allocatorINS_10__function6__funcIZN11ToppingListC1EvEUlvE_NS1_IS5_EEFNS_10unique_ptrI12FruitToppingNS_14default_deleteIS8_EEEEvEEEEEEC2B8ne180100ERSE_m, symObjAddr: 0x8D00, symBinAddr: 0x10000B160, symSize: 0x2C }
  - { offset: 0x27C9D, size: 0x8, addend: 0x0, symName: __ZNSt3__110unique_ptrINS_10__function6__funcIZN11ToppingListC1EvEUlvE_NS_9allocatorIS4_EEFNS0_I12FruitToppingNS_14default_deleteIS7_EEEEvEEENS_22__allocator_destructorINS5_ISC_EEEEEC2B8ne180100ILb1EvEEPSC_NS_16__dependent_typeINS_27__unique_ptr_deleter_sfinaeISF_EEXT_EE20__good_rval_ref_typeE, symObjAddr: 0x8D2C, symBinAddr: 0x10000B18C, symSize: 0x48 }
  - { offset: 0x27CEE, size: 0x8, addend: 0x0, symName: __ZNSt3__117__compressed_pairIPNS_10__function6__funcIZN11ToppingListC1EvEUlvE_NS_9allocatorIS4_EEFNS_10unique_ptrI12FruitToppingNS_14default_deleteIS8_EEEEvEEENS_22__allocator_destructorINS5_ISD_EEEEEC1B8ne180100IRSE_SH_EEOT_OT0_, symObjAddr: 0x8D74, symBinAddr: 0x10000B1D4, symSize: 0x3C }
  - { offset: 0x27D46, size: 0x8, addend: 0x0, symName: __ZNSt3__117__compressed_pairIPNS_10__function6__funcIZN11ToppingListC1EvEUlvE_NS_9allocatorIS4_EEFNS_10unique_ptrI12FruitToppingNS_14default_deleteIS8_EEEEvEEENS_22__allocator_destructorINS5_ISD_EEEEEC2B8ne180100IRSE_SH_EEOT_OT0_, symObjAddr: 0x8DB0, symBinAddr: 0x10000B210, symSize: 0x48 }
  - { offset: 0x27D9E, size: 0x8, addend: 0x0, symName: __ZNSt3__122__compressed_pair_elemIPNS_10__function6__funcIZN11ToppingListC1EvEUlvE_NS_9allocatorIS4_EEFNS_10unique_ptrI12FruitToppingNS_14default_deleteIS8_EEEEvEEELi0ELb0EEC2B8ne180100IRSE_vEEOT_, symObjAddr: 0x8DF8, symBinAddr: 0x10000B258, symSize: 0x24 }
  - { offset: 0x27DE0, size: 0x8, addend: 0x0, symName: __ZNSt3__122__compressed_pair_elemINS_22__allocator_destructorINS_9allocatorINS_10__function6__funcIZN11ToppingListC1EvEUlvE_NS2_IS6_EEFNS_10unique_ptrI12FruitToppingNS_14default_deleteIS9_EEEEvEEEEEEELi1ELb0EEC2B8ne180100ISG_vEEOT_, symObjAddr: 0x8E1C, symBinAddr: 0x10000B27C, symSize: 0x24 }
  - { offset: 0x27E22, size: 0x8, addend: 0x0, symName: __ZNKSt3__117__compressed_pairIPNS_10__function6__funcIZN11ToppingListC1EvEUlvE_NS_9allocatorIS4_EEFNS_10unique_ptrI12FruitToppingNS_14default_deleteIS8_EEEEvEEENS_22__allocator_destructorINS5_ISD_EEEEE5firstB8ne180100Ev, symObjAddr: 0x8E40, symBinAddr: 0x10000B2A0, symSize: 0x24 }
  - { offset: 0x27E48, size: 0x8, addend: 0x0, symName: __ZNKSt3__122__compressed_pair_elemIPNS_10__function6__funcIZN11ToppingListC1EvEUlvE_NS_9allocatorIS4_EEFNS_10unique_ptrI12FruitToppingNS_14default_deleteIS8_EEEEvEEELi0ELb0EE5__getB8ne180100Ev, symObjAddr: 0x8E64, symBinAddr: 0x10000B2C4, symSize: 0x14 }
  - { offset: 0x27E6E, size: 0x8, addend: 0x0, symName: __ZNKSt3__117__compressed_pairIZN11ToppingListC1EvEUlvE_NS_9allocatorIS2_EEE5firstB8ne180100Ev, symObjAddr: 0x8E78, symBinAddr: 0x10000B2D8, symSize: 0x24 }
  - { offset: 0x27E94, size: 0x8, addend: 0x0, symName: __ZNKSt3__122__compressed_pair_elemIZN11ToppingListC1EvEUlvE_Li0ELb1EE5__getB8ne180100Ev, symObjAddr: 0x8E9C, symBinAddr: 0x10000B2FC, symSize: 0x14 }
  - { offset: 0x27EBA, size: 0x8, addend: 0x0, symName: __ZNSt3__110__function6__funcIZN11ToppingListC1EvEUlvE_NS_9allocatorIS3_EEFNS_10unique_ptrI12FruitToppingNS_14default_deleteIS7_EEEEvEEC2B8ne180100ERKS3_OS5_, symObjAddr: 0x8EB0, symBinAddr: 0x10000B310, symSize: 0x80 }
  - { offset: 0x27F02, size: 0x8, addend: 0x0, symName: __ZNSt3__110__function12__alloc_funcIZN11ToppingListC1EvEUlvE_NS_9allocatorIS3_EEFNS_10unique_ptrI12FruitToppingNS_14default_deleteIS7_EEEEvEEC1B8ne180100ERKS3_OS5_, symObjAddr: 0x8F30, symBinAddr: 0x10000B390, symSize: 0x3C }
  - { offset: 0x27F48, size: 0x8, addend: 0x0, symName: __ZNSt3__110__function12__alloc_funcIZN11ToppingListC1EvEUlvE_NS_9allocatorIS3_EEFNS_10unique_ptrI12FruitToppingNS_14default_deleteIS7_EEEEvEEC2B8ne180100ERKS3_OS5_, symObjAddr: 0x8F6C, symBinAddr: 0x10000B3CC, symSize: 0x5C }
  - { offset: 0x27F8E, size: 0x8, addend: 0x0, symName: __ZNSt3__117__compressed_pairIZN11ToppingListC1EvEUlvE_NS_9allocatorIS2_EEEC1B8ne180100IJRKS2_EJOS4_EEENS_21piecewise_construct_tENS_5tupleIJDpT_EEENSB_IJDpT0_EEE, symObjAddr: 0x8FF4, symBinAddr: 0x10000B454, symSize: 0x3C }
  - { offset: 0x27FF8, size: 0x8, addend: 0x0, symName: __ZNSt3__15tupleIJRKZN11ToppingListC1EvEUlvE_EEC1B8ne180100INS_4_AndELi0EEES4_, symObjAddr: 0x9030, symBinAddr: 0x10000B490, symSize: 0x34 }
  - { offset: 0x28040, size: 0x8, addend: 0x0, symName: __ZNSt3__15tupleIJRKZN11ToppingListC1EvEUlvE_EEC2B8ne180100INS_4_AndELi0EEES4_, symObjAddr: 0x9064, symBinAddr: 0x10000B4C4, symSize: 0x34 }
  - { offset: 0x28088, size: 0x8, addend: 0x0, symName: __ZNSt3__112__tuple_implINS_15__tuple_indicesIJLm0EEEEJRKZN11ToppingListC1EvEUlvE_EEC1B8ne180100IJLm0EEJS6_EJEJEJS6_EEENS1_IJXspT_EEEENS_13__tuple_typesIJDpT0_EEENS1_IJXspT1_EEEENSA_IJDpT2_EEEDpOT3_, symObjAddr: 0x9098, symBinAddr: 0x10000B4F8, symSize: 0x34 }
  - { offset: 0x2811D, size: 0x8, addend: 0x0, symName: __ZNSt3__112__tuple_implINS_15__tuple_indicesIJLm0EEEEJRKZN11ToppingListC1EvEUlvE_EEC2B8ne180100IJLm0EEJS6_EJEJEJS6_EEENS1_IJXspT_EEEENS_13__tuple_typesIJDpT0_EEENS1_IJXspT1_EEEENSA_IJDpT2_EEEDpOT3_, symObjAddr: 0x90CC, symBinAddr: 0x10000B52C, symSize: 0x34 }
  - { offset: 0x281B2, size: 0x8, addend: 0x0, symName: __ZNSt3__112__tuple_leafILm0ERKZN11ToppingListC1EvEUlvE_Lb0EEC2B8ne180100IS4_vEEOT_, symObjAddr: 0x9100, symBinAddr: 0x10000B560, symSize: 0x20 }
  - { offset: 0x281F5, size: 0x8, addend: 0x0, symName: __ZNSt3__117__compressed_pairIZN11ToppingListC1EvEUlvE_NS_9allocatorIS2_EEEC2B8ne180100IJRKS2_EJOS4_EEENS_21piecewise_construct_tENS_5tupleIJDpT_EEENSB_IJDpT0_EEE, symObjAddr: 0x9120, symBinAddr: 0x10000B580, symSize: 0x54 }
  - { offset: 0x2825F, size: 0x8, addend: 0x0, symName: __ZNSt3__122__compressed_pair_elemIZN11ToppingListC1EvEUlvE_Li0ELb1EEC2B8ne180100IJRKS2_EJLm0EEEENS_21piecewise_construct_tENS_5tupleIJDpT_EEENS_15__tuple_indicesIJXspT0_EEEE, symObjAddr: 0x9174, symBinAddr: 0x10000B5D4, symSize: 0x38 }
  - { offset: 0x282C2, size: 0x8, addend: 0x0, symName: __ZNSt3__112__tuple_leafILm0ERKZN11ToppingListC1EvEUlvE_Lb0EE3getB8ne180100Ev, symObjAddr: 0x91D0, symBinAddr: 0x10000B630, symSize: 0x18 }
  - { offset: 0x282E8, size: 0x8, addend: 0x0, symName: __ZNSt3__117__compressed_pairIPNS_10__function6__funcIZN11ToppingListC1EvEUlvE_NS_9allocatorIS4_EEFNS_10unique_ptrI12FruitToppingNS_14default_deleteIS8_EEEEvEEENS_22__allocator_destructorINS5_ISD_EEEEE5firstB8ne180100Ev, symObjAddr: 0x91E8, symBinAddr: 0x10000B648, symSize: 0x24 }
  - { offset: 0x2830E, size: 0x8, addend: 0x0, symName: __ZNSt3__122__compressed_pair_elemIPNS_10__function6__funcIZN11ToppingListC1EvEUlvE_NS_9allocatorIS4_EEFNS_10unique_ptrI12FruitToppingNS_14default_deleteIS8_EEEEvEEELi0ELb0EE5__getB8ne180100Ev, symObjAddr: 0x920C, symBinAddr: 0x10000B66C, symSize: 0x14 }
  - { offset: 0x28334, size: 0x8, addend: 0x0, symName: __ZNSt3__110unique_ptrINS_10__function6__funcIZN11ToppingListC1EvEUlvE_NS_9allocatorIS4_EEFNS0_I12FruitToppingNS_14default_deleteIS7_EEEEvEEENS_22__allocator_destructorINS5_ISC_EEEEED2B8ne180100Ev, symObjAddr: 0x9220, symBinAddr: 0x10000B680, symSize: 0x30 }
  - { offset: 0x2835E, size: 0x8, addend: 0x0, symName: __ZNSt3__110unique_ptrINS_10__function6__funcIZN11ToppingListC1EvEUlvE_NS_9allocatorIS4_EEFNS0_I12FruitToppingNS_14default_deleteIS7_EEEEvEEENS_22__allocator_destructorINS5_ISC_EEEEE5resetB8ne180100EPSC_, symObjAddr: 0x9250, symBinAddr: 0x10000B6B0, symSize: 0x78 }
  - { offset: 0x283A2, size: 0x8, addend: 0x0, symName: __ZNSt3__117__compressed_pairIPNS_10__function6__funcIZN11ToppingListC1EvEUlvE_NS_9allocatorIS4_EEFNS_10unique_ptrI12FruitToppingNS_14default_deleteIS8_EEEEvEEENS_22__allocator_destructorINS5_ISD_EEEEE6secondB8ne180100Ev, symObjAddr: 0x92C8, symBinAddr: 0x10000B728, symSize: 0x28 }
  - { offset: 0x283C8, size: 0x8, addend: 0x0, symName: __ZNSt3__122__allocator_destructorINS_9allocatorINS_10__function6__funcIZN11ToppingListC1EvEUlvE_NS1_IS5_EEFNS_10unique_ptrI12FruitToppingNS_14default_deleteIS8_EEEEvEEEEEEclB8ne180100EPSD_, symObjAddr: 0x92F0, symBinAddr: 0x10000B750, symSize: 0x34 }
  - { offset: 0x283FC, size: 0x8, addend: 0x0, symName: __ZNSt3__122__compressed_pair_elemINS_22__allocator_destructorINS_9allocatorINS_10__function6__funcIZN11ToppingListC1EvEUlvE_NS2_IS6_EEFNS_10unique_ptrI12FruitToppingNS_14default_deleteIS9_EEEEvEEEEEEELi1ELb0EE5__getB8ne180100Ev, symObjAddr: 0x9324, symBinAddr: 0x10000B784, symSize: 0x14 }
  - { offset: 0x28422, size: 0x8, addend: 0x0, symName: __ZNSt3__116allocator_traitsINS_9allocatorINS_10__function6__funcIZN11ToppingListC1EvEUlvE_NS1_IS5_EEFNS_10unique_ptrI12FruitToppingNS_14default_deleteIS8_EEEEvEEEEEE10deallocateB8ne180100ERSE_PSD_m, symObjAddr: 0x9338, symBinAddr: 0x10000B798, symSize: 0x34 }
  - { offset: 0x28464, size: 0x8, addend: 0x0, symName: __ZNSt3__19allocatorINS_10__function6__funcIZN11ToppingListC1EvEUlvE_NS0_IS4_EEFNS_10unique_ptrI12FruitToppingNS_14default_deleteIS7_EEEEvEEEE10deallocateB8ne180100EPSC_m, symObjAddr: 0x936C, symBinAddr: 0x10000B7CC, symSize: 0x40 }
  - { offset: 0x284A6, size: 0x8, addend: 0x0, symName: __ZNSt3__110__function6__funcIZN11ToppingListC1EvEUlvE_NS_9allocatorIS3_EEFNS_10unique_ptrI12FruitToppingNS_14default_deleteIS7_EEEEvEEC1B8ne180100ERKS3_RKS5_, symObjAddr: 0x93AC, symBinAddr: 0x10000B80C, symSize: 0x3C }
  - { offset: 0x284EE, size: 0x8, addend: 0x0, symName: __ZNSt3__110__function6__funcIZN11ToppingListC1EvEUlvE_NS_9allocatorIS3_EEFNS_10unique_ptrI12FruitToppingNS_14default_deleteIS7_EEEEvEEC2B8ne180100ERKS3_RKS5_, symObjAddr: 0x93E8, symBinAddr: 0x10000B848, symSize: 0x80 }
  - { offset: 0x28536, size: 0x8, addend: 0x0, symName: __ZNSt3__110__function12__alloc_funcIZN11ToppingListC1EvEUlvE_NS_9allocatorIS3_EEFNS_10unique_ptrI12FruitToppingNS_14default_deleteIS7_EEEEvEEC1B8ne180100ERKS3_RKS5_, symObjAddr: 0x9468, symBinAddr: 0x10000B8C8, symSize: 0x3C }
  - { offset: 0x2857C, size: 0x8, addend: 0x0, symName: __ZNSt3__110__function12__alloc_funcIZN11ToppingListC1EvEUlvE_NS_9allocatorIS3_EEFNS_10unique_ptrI12FruitToppingNS_14default_deleteIS7_EEEEvEEC2B8ne180100ERKS3_RKS5_, symObjAddr: 0x94A4, symBinAddr: 0x10000B904, symSize: 0x5C }
  - { offset: 0x285C2, size: 0x8, addend: 0x0, symName: __ZNSt3__117__compressed_pairIZN11ToppingListC1EvEUlvE_NS_9allocatorIS2_EEEC1B8ne180100IJRKS2_EJRKS4_EEENS_21piecewise_construct_tENS_5tupleIJDpT_EEENSC_IJDpT0_EEE, symObjAddr: 0x952C, symBinAddr: 0x10000B98C, symSize: 0x3C }
  - { offset: 0x2862C, size: 0x8, addend: 0x0, symName: __ZNSt3__15tupleIJRKNS_9allocatorIZN11ToppingListC1EvEUlvE_EEEEC1B8ne180100INS_4_AndELi0EEES6_, symObjAddr: 0x9568, symBinAddr: 0x10000B9C8, symSize: 0x34 }
  - { offset: 0x28674, size: 0x8, addend: 0x0, symName: __ZNSt3__15tupleIJRKNS_9allocatorIZN11ToppingListC1EvEUlvE_EEEEC2B8ne180100INS_4_AndELi0EEES6_, symObjAddr: 0x959C, symBinAddr: 0x10000B9FC, symSize: 0x34 }
  - { offset: 0x286BC, size: 0x8, addend: 0x0, symName: __ZNSt3__112__tuple_implINS_15__tuple_indicesIJLm0EEEEJRKNS_9allocatorIZN11ToppingListC1EvEUlvE_EEEEC1B8ne180100IJLm0EEJS8_EJEJEJS8_EEENS1_IJXspT_EEEENS_13__tuple_typesIJDpT0_EEENS1_IJXspT1_EEEENSC_IJDpT2_EEEDpOT3_, symObjAddr: 0x95D0, symBinAddr: 0x10000BA30, symSize: 0x34 }
  - { offset: 0x28751, size: 0x8, addend: 0x0, symName: __ZNSt3__112__tuple_implINS_15__tuple_indicesIJLm0EEEEJRKNS_9allocatorIZN11ToppingListC1EvEUlvE_EEEEC2B8ne180100IJLm0EEJS8_EJEJEJS8_EEENS1_IJXspT_EEEENS_13__tuple_typesIJDpT0_EEENS1_IJXspT1_EEEENSC_IJDpT2_EEEDpOT3_, symObjAddr: 0x9604, symBinAddr: 0x10000BA64, symSize: 0x34 }
  - { offset: 0x287E6, size: 0x8, addend: 0x0, symName: __ZNSt3__112__tuple_leafILm0ERKNS_9allocatorIZN11ToppingListC1EvEUlvE_EELb0EEC2B8ne180100IS6_vEEOT_, symObjAddr: 0x9638, symBinAddr: 0x10000BA98, symSize: 0x20 }
  - { offset: 0x28829, size: 0x8, addend: 0x0, symName: __ZNSt3__117__compressed_pairIZN11ToppingListC1EvEUlvE_NS_9allocatorIS2_EEEC2B8ne180100IJRKS2_EJRKS4_EEENS_21piecewise_construct_tENS_5tupleIJDpT_EEENSC_IJDpT0_EEE, symObjAddr: 0x9658, symBinAddr: 0x10000BAB8, symSize: 0x54 }
  - { offset: 0x28893, size: 0x8, addend: 0x0, symName: __ZNSt3__122__compressed_pair_elemINS_9allocatorIZN11ToppingListC1EvEUlvE_EELi1ELb1EEC2B8ne180100IJRKS4_EJLm0EEEENS_21piecewise_construct_tENS_5tupleIJDpT_EEENS_15__tuple_indicesIJXspT0_EEEE, symObjAddr: 0x96AC, symBinAddr: 0x10000BB0C, symSize: 0x38 }
  - { offset: 0x288F6, size: 0x8, addend: 0x0, symName: __ZNSt3__112__tuple_leafILm0ERKNS_9allocatorIZN11ToppingListC1EvEUlvE_EELb0EE3getB8ne180100Ev, symObjAddr: 0x9708, symBinAddr: 0x10000BB68, symSize: 0x18 }
  - { offset: 0x2891C, size: 0x8, addend: 0x0, symName: __ZNSt3__110__function12__alloc_funcIZN11ToppingListC1EvEUlvE_NS_9allocatorIS3_EEFNS_10unique_ptrI12FruitToppingNS_14default_deleteIS7_EEEEvEE7destroyB8ne180100Ev, symObjAddr: 0x9720, symBinAddr: 0x10000BB80, symSize: 0x10 }
  - { offset: 0x28942, size: 0x8, addend: 0x0, symName: __ZNSt3__110__function12__alloc_funcIZN11ToppingListC1EvEUlvE_NS_9allocatorIS3_EEFNS_10unique_ptrI12FruitToppingNS_14default_deleteIS7_EEEEvEEclB8ne180100Ev, symObjAddr: 0x9730, symBinAddr: 0x10000BB90, symSize: 0x34 }
  - { offset: 0x28968, size: 0x8, addend: 0x0, symName: __ZNSt3__128__invoke_void_return_wrapperINS_10unique_ptrI12FruitToppingNS_14default_deleteIS2_EEEELb0EE6__callB8ne180100IJRZN11ToppingListC1EvEUlvE_EEES5_DpOT_, symObjAddr: 0x9764, symBinAddr: 0x10000BBC4, symSize: 0x2C }
  - { offset: 0x28997, size: 0x8, addend: 0x0, symName: __ZNSt3__117__compressed_pairIZN11ToppingListC1EvEUlvE_NS_9allocatorIS2_EEE5firstB8ne180100Ev, symObjAddr: 0x9790, symBinAddr: 0x10000BBF0, symSize: 0x24 }
  - { offset: 0x289C2, size: 0x8, addend: 0x0, symName: __ZZN11ToppingListC1EvENKUlvE_clEv, symObjAddr: 0x97E0, symBinAddr: 0x10000BC40, symSize: 0x30 }
  - { offset: 0x289EC, size: 0x8, addend: 0x0, symName: __ZN12FruitToppingC1ENSt3__112basic_stringIcNS0_11char_traitsIcEENS0_9allocatorIcEEEE, symObjAddr: 0x98E0, symBinAddr: 0x10000BD40, symSize: 0x34 }
  - { offset: 0x28A25, size: 0x8, addend: 0x0, symName: __ZNSt3__110unique_ptrI12FruitToppingNS_14default_deleteIS1_EEEC1B8ne180100ILb1EvEEPS1_, symObjAddr: 0x9914, symBinAddr: 0x10000BD74, symSize: 0x34 }
  - { offset: 0x28A68, size: 0x8, addend: 0x0, symName: __ZN12FruitToppingC2ENSt3__112basic_stringIcNS0_11char_traitsIcEENS0_9allocatorIcEEEE, symObjAddr: 0x9948, symBinAddr: 0x10000BDA8, symSize: 0x7C }
  - { offset: 0x28AA6, size: 0x8, addend: 0x0, symName: __ZN7ToppingC2Ev, symObjAddr: 0x99C4, symBinAddr: 0x10000BE24, symSize: 0x3C }
  - { offset: 0x28AD2, size: 0x8, addend: 0x0, symName: __ZN7ToppingD2Ev, symObjAddr: 0x9A00, symBinAddr: 0x10000BE60, symSize: 0x2C }
  - { offset: 0x28AFE, size: 0x8, addend: 0x0, symName: __ZNK12FruitTopping7getNameEv, symObjAddr: 0x9A2C, symBinAddr: 0x10000BE8C, symSize: 0x3C }
  - { offset: 0x28B24, size: 0x8, addend: 0x0, symName: __ZNK7Topping11getCategoryEv, symObjAddr: 0x9A68, symBinAddr: 0x10000BEC8, symSize: 0x3C }
  - { offset: 0x28B4A, size: 0x8, addend: 0x0, symName: __ZN12FruitToppingD1Ev, symObjAddr: 0x9AA4, symBinAddr: 0x10000BF04, symSize: 0x2C }
  - { offset: 0x28B76, size: 0x8, addend: 0x0, symName: __ZN12FruitToppingD0Ev, symObjAddr: 0x9AD0, symBinAddr: 0x10000BF30, symSize: 0x30 }
  - { offset: 0x28BA2, size: 0x8, addend: 0x0, symName: __ZNK12FruitTopping7getTypeEv, symObjAddr: 0x9B00, symBinAddr: 0x10000BF60, symSize: 0x3C }
  - { offset: 0x28BC8, size: 0x8, addend: 0x0, symName: __ZN10IngredientC2Ev, symObjAddr: 0x9B3C, symBinAddr: 0x10000BF9C, symSize: 0x24 }
  - { offset: 0x28BF4, size: 0x8, addend: 0x0, symName: __ZN7ToppingD1Ev, symObjAddr: 0x9B60, symBinAddr: 0x10000BFC0, symSize: 0x14 }
  - { offset: 0x28C20, size: 0x8, addend: 0x0, symName: __ZN7ToppingD0Ev, symObjAddr: 0x9B74, symBinAddr: 0x10000BFD4, symSize: 0xC }
  - { offset: 0x28C4C, size: 0x8, addend: 0x0, symName: __ZN10IngredientD1Ev, symObjAddr: 0x9B80, symBinAddr: 0x10000BFE0, symSize: 0x14 }
  - { offset: 0x28C76, size: 0x8, addend: 0x0, symName: __ZN10IngredientD0Ev, symObjAddr: 0x9B94, symBinAddr: 0x10000BFF4, symSize: 0xC }
  - { offset: 0x28CA0, size: 0x8, addend: 0x0, symName: __ZN10IngredientD2Ev, symObjAddr: 0x9BA0, symBinAddr: 0x10000C000, symSize: 0x14 }
  - { offset: 0x28CCA, size: 0x8, addend: 0x0, symName: __ZN12FruitToppingD2Ev, symObjAddr: 0x9BB4, symBinAddr: 0x10000C014, symSize: 0x48 }
  - { offset: 0x28CF6, size: 0x8, addend: 0x0, symName: __ZNSt3__110unique_ptrI12FruitToppingNS_14default_deleteIS1_EEEC2B8ne180100ILb1EvEEPS1_, symObjAddr: 0x9BFC, symBinAddr: 0x10000C05C, symSize: 0x44 }
  - { offset: 0x28D39, size: 0x8, addend: 0x0, symName: __ZNSt3__117__compressed_pairIP12FruitToppingNS_14default_deleteIS1_EEEC1B8ne180100IRS2_NS_16__value_init_tagEEEOT_OT0_, symObjAddr: 0x9C40, symBinAddr: 0x10000C0A0, symSize: 0x3C }
  - { offset: 0x28D91, size: 0x8, addend: 0x0, symName: __ZNSt3__117__compressed_pairIP12FruitToppingNS_14default_deleteIS1_EEEC2B8ne180100IRS2_NS_16__value_init_tagEEEOT_OT0_, symObjAddr: 0x9C7C, symBinAddr: 0x10000C0DC, symSize: 0x40 }
  - { offset: 0x28DE9, size: 0x8, addend: 0x0, symName: __ZNSt3__122__compressed_pair_elemIP12FruitToppingLi0ELb0EEC2B8ne180100IRS2_vEEOT_, symObjAddr: 0x9CBC, symBinAddr: 0x10000C11C, symSize: 0x24 }
  - { offset: 0x28E2B, size: 0x8, addend: 0x0, symName: __ZNSt3__122__compressed_pair_elemINS_14default_deleteI12FruitToppingEELi1ELb1EEC2B8ne180100ENS_16__value_init_tagE, symObjAddr: 0x9CE0, symBinAddr: 0x10000C140, symSize: 0x14 }
  - { offset: 0x28E5F, size: 0x8, addend: 0x0, symName: __ZNSt3__122__compressed_pair_elemIZN11ToppingListC1EvEUlvE_Li0ELb1EE5__getB8ne180100Ev, symObjAddr: 0x9CF4, symBinAddr: 0x10000C154, symSize: 0x14 }
  - { offset: 0x28EB9, size: 0x8, addend: 0x0, symName: __ZNKSt9type_infoeqB8ne180100ERKS_, symObjAddr: 0x9D08, symBinAddr: 0x10000C168, symSize: 0xDC }
  - { offset: 0x28F55, size: 0x8, addend: 0x0, symName: __ZNSt27__type_info_implementations30__non_unique_arm_rtti_bit_impl21__is_type_name_uniqueB8ne180100Em, symObjAddr: 0x9DE4, symBinAddr: 0x10000C244, symSize: 0x20 }
  - { offset: 0x28F79, size: 0x8, addend: 0x0, symName: __ZNSt3__18functionIFNS_10unique_ptrI12FruitToppingNS_14default_deleteIS2_EEEEvEED2Ev, symObjAddr: 0x9E04, symBinAddr: 0x10000C264, symSize: 0x2C }
  - { offset: 0x28FA5, size: 0x8, addend: 0x0, symName: __ZNSt3__110__function12__value_funcIFNS_10unique_ptrI12FruitToppingNS_14default_deleteIS3_EEEEvEED1B8ne180100Ev, symObjAddr: 0x9E30, symBinAddr: 0x10000C290, symSize: 0x2C }
  - { offset: 0x28FCF, size: 0x8, addend: 0x0, symName: __ZNSt3__110__function12__value_funcIFNS_10unique_ptrI12FruitToppingNS_14default_deleteIS3_EEEEvEED2B8ne180100Ev, symObjAddr: 0x9E5C, symBinAddr: 0x10000C2BC, symSize: 0x90 }
  - { offset: 0x28FF9, size: 0x8, addend: 0x0, symName: __ZNSt3__18functionIFNS_10unique_ptrI12FruitToppingNS_14default_deleteIS2_EEEEvEEC2IZN11ToppingListC1EvEUlvE0_vEET_, symObjAddr: 0x9EEC, symBinAddr: 0x10000C34C, symSize: 0x30 }
  - { offset: 0x2903E, size: 0x8, addend: 0x0, symName: __ZNSt3__110__function12__value_funcIFNS_10unique_ptrI12FruitToppingNS_14default_deleteIS3_EEEEvEEC1B8ne180100IZN11ToppingListC1EvEUlvE0_Li0EEEOT_, symObjAddr: 0x9F1C, symBinAddr: 0x10000C37C, symSize: 0x50 }
  - { offset: 0x29086, size: 0x8, addend: 0x0, symName: __ZNSt3__19allocatorIZN11ToppingListC1EvEUlvE0_EC1B8ne180100Ev, symObjAddr: 0x9F6C, symBinAddr: 0x10000C3CC, symSize: 0x2C }
  - { offset: 0x290B0, size: 0x8, addend: 0x0, symName: __ZNSt3__110__function12__value_funcIFNS_10unique_ptrI12FruitToppingNS_14default_deleteIS3_EEEEvEEC1B8ne180100IZN11ToppingListC1EvEUlvE0_NS_9allocatorISB_EEEEOT_RKT0_, symObjAddr: 0x9F98, symBinAddr: 0x10000C3F8, symSize: 0x3C }
  - { offset: 0x2910A, size: 0x8, addend: 0x0, symName: __ZNSt3__19allocatorIZN11ToppingListC1EvEUlvE0_EC2B8ne180100Ev, symObjAddr: 0x9FD4, symBinAddr: 0x10000C434, symSize: 0x2C }
  - { offset: 0x29134, size: 0x8, addend: 0x0, symName: __ZNSt3__116__non_trivial_ifILb1ENS_9allocatorIZN11ToppingListC1EvEUlvE0_EEEC2B8ne180100Ev, symObjAddr: 0xA000, symBinAddr: 0x10000C460, symSize: 0x14 }
  - { offset: 0x2915E, size: 0x8, addend: 0x0, symName: __ZNSt3__110__function12__value_funcIFNS_10unique_ptrI12FruitToppingNS_14default_deleteIS3_EEEEvEEC2B8ne180100IZN11ToppingListC1EvEUlvE0_NS_9allocatorISB_EEEEOT_RKT0_, symObjAddr: 0xA014, symBinAddr: 0x10000C474, symSize: 0x94 }
  - { offset: 0x29205, size: 0x8, addend: 0x0, symName: __ZNSt3__19allocatorINS_10__function6__funcIZN11ToppingListC1EvEUlvE0_NS0_IS4_EEFNS_10unique_ptrI12FruitToppingNS_14default_deleteIS7_EEEEvEEEEC1B8ne180100IS4_EERKNS0_IT_EE, symObjAddr: 0xA0C0, symBinAddr: 0x10000C520, symSize: 0x34 }
  - { offset: 0x29247, size: 0x8, addend: 0x0, symName: __ZNSt3__19allocatorIZN11ToppingListC1EvEUlvE0_EC1B8ne180100INS_10__function6__funcIS2_S3_FNS_10unique_ptrI12FruitToppingNS_14default_deleteIS8_EEEEvEEEEERKNS0_IT_EE, symObjAddr: 0xA0F4, symBinAddr: 0x10000C554, symSize: 0x34 }
  - { offset: 0x29284, size: 0x8, addend: 0x0, symName: __ZNSt3__110__function6__funcIZN11ToppingListC1EvEUlvE0_NS_9allocatorIS3_EEFNS_10unique_ptrI12FruitToppingNS_14default_deleteIS7_EEEEvEEC1B8ne180100EOS3_OS5_, symObjAddr: 0xA128, symBinAddr: 0x10000C588, symSize: 0x3C }
  - { offset: 0x292CC, size: 0x8, addend: 0x0, symName: __ZNSt3__19allocatorINS_10__function6__funcIZN11ToppingListC1EvEUlvE0_NS0_IS4_EEFNS_10unique_ptrI12FruitToppingNS_14default_deleteIS7_EEEEvEEEEC2B8ne180100IS4_EERKNS0_IT_EE, symObjAddr: 0xA164, symBinAddr: 0x10000C5C4, symSize: 0x30 }
  - { offset: 0x29309, size: 0x8, addend: 0x0, symName: __ZNSt3__116__non_trivial_ifILb1ENS_9allocatorINS_10__function6__funcIZN11ToppingListC1EvEUlvE0_NS1_IS5_EEFNS_10unique_ptrI12FruitToppingNS_14default_deleteIS8_EEEEvEEEEEEC2B8ne180100Ev, symObjAddr: 0xA194, symBinAddr: 0x10000C5F4, symSize: 0x14 }
  - { offset: 0x29333, size: 0x8, addend: 0x0, symName: __ZNSt3__19allocatorIZN11ToppingListC1EvEUlvE0_EC2B8ne180100INS_10__function6__funcIS2_S3_FNS_10unique_ptrI12FruitToppingNS_14default_deleteIS8_EEEEvEEEEERKNS0_IT_EE, symObjAddr: 0xA1A8, symBinAddr: 0x10000C608, symSize: 0x30 }
  - { offset: 0x29370, size: 0x8, addend: 0x0, symName: __ZNSt3__110__function6__funcIZN11ToppingListC1EvEUlvE0_NS_9allocatorIS3_EEFNS_10unique_ptrI12FruitToppingNS_14default_deleteIS7_EEEEvEEC2B8ne180100EOS3_OS5_, symObjAddr: 0xA1D8, symBinAddr: 0x10000C638, symSize: 0x80 }
  - { offset: 0x293B8, size: 0x8, addend: 0x0, symName: __ZNSt3__110__function12__alloc_funcIZN11ToppingListC1EvEUlvE0_NS_9allocatorIS3_EEFNS_10unique_ptrI12FruitToppingNS_14default_deleteIS7_EEEEvEEC1B8ne180100EOS3_OS5_, symObjAddr: 0xA258, symBinAddr: 0x10000C6B8, symSize: 0x3C }
  - { offset: 0x293FE, size: 0x8, addend: 0x0, symName: __ZNSt3__110__function6__funcIZN11ToppingListC1EvEUlvE0_NS_9allocatorIS3_EEFNS_10unique_ptrI12FruitToppingNS_14default_deleteIS7_EEEEvEED1Ev, symObjAddr: 0xA294, symBinAddr: 0x10000C6F4, symSize: 0x2C }
  - { offset: 0x2942A, size: 0x8, addend: 0x0, symName: __ZNSt3__110__function6__funcIZN11ToppingListC1EvEUlvE0_NS_9allocatorIS3_EEFNS_10unique_ptrI12FruitToppingNS_14default_deleteIS7_EEEEvEED0Ev, symObjAddr: 0xA2C0, symBinAddr: 0x10000C720, symSize: 0x30 }
  - { offset: 0x29456, size: 0x8, addend: 0x0, symName: __ZNKSt3__110__function6__funcIZN11ToppingListC1EvEUlvE0_NS_9allocatorIS3_EEFNS_10unique_ptrI12FruitToppingNS_14default_deleteIS7_EEEEvEE7__cloneEv, symObjAddr: 0xA2F0, symBinAddr: 0x10000C750, symSize: 0xFC }
  - { offset: 0x294A8, size: 0x8, addend: 0x0, symName: __ZNKSt3__110__function6__funcIZN11ToppingListC1EvEUlvE0_NS_9allocatorIS3_EEFNS_10unique_ptrI12FruitToppingNS_14default_deleteIS7_EEEEvEE7__cloneEPNS0_6__baseISB_EE, symObjAddr: 0xA3EC, symBinAddr: 0x10000C84C, symSize: 0x58 }
  - { offset: 0x294DF, size: 0x8, addend: 0x0, symName: __ZNSt3__110__function6__funcIZN11ToppingListC1EvEUlvE0_NS_9allocatorIS3_EEFNS_10unique_ptrI12FruitToppingNS_14default_deleteIS7_EEEEvEE7destroyEv, symObjAddr: 0xA444, symBinAddr: 0x10000C8A4, symSize: 0x28 }
  - { offset: 0x29507, size: 0x8, addend: 0x0, symName: __ZNSt3__110__function6__funcIZN11ToppingListC1EvEUlvE0_NS_9allocatorIS3_EEFNS_10unique_ptrI12FruitToppingNS_14default_deleteIS7_EEEEvEE18destroy_deallocateEv, symObjAddr: 0xA46C, symBinAddr: 0x10000C8CC, symSize: 0x58 }
  - { offset: 0x2954A, size: 0x8, addend: 0x0, symName: __ZNSt3__110__function6__funcIZN11ToppingListC1EvEUlvE0_NS_9allocatorIS3_EEFNS_10unique_ptrI12FruitToppingNS_14default_deleteIS7_EEEEvEEclEv, symObjAddr: 0xA4C4, symBinAddr: 0x10000C924, symSize: 0x30 }
  - { offset: 0x29572, size: 0x8, addend: 0x0, symName: __ZNKSt3__110__function6__funcIZN11ToppingListC1EvEUlvE0_NS_9allocatorIS3_EEFNS_10unique_ptrI12FruitToppingNS_14default_deleteIS7_EEEEvEE6targetERKSt9type_info, symObjAddr: 0xA4F4, symBinAddr: 0x10000C954, symSize: 0x60 }
  - { offset: 0x295A9, size: 0x8, addend: 0x0, symName: __ZNKSt3__110__function6__funcIZN11ToppingListC1EvEUlvE0_NS_9allocatorIS3_EEFNS_10unique_ptrI12FruitToppingNS_14default_deleteIS7_EEEEvEE11target_typeEv, symObjAddr: 0xA554, symBinAddr: 0x10000C9B4, symSize: 0x18 }
  - { offset: 0x295D1, size: 0x8, addend: 0x0, symName: __ZNSt3__110__function12__alloc_funcIZN11ToppingListC1EvEUlvE0_NS_9allocatorIS3_EEFNS_10unique_ptrI12FruitToppingNS_14default_deleteIS7_EEEEvEEC2B8ne180100EOS3_OS5_, symObjAddr: 0xA56C, symBinAddr: 0x10000C9CC, symSize: 0x5C }
  - { offset: 0x29617, size: 0x8, addend: 0x0, symName: __ZNSt3__117__compressed_pairIZN11ToppingListC1EvEUlvE0_NS_9allocatorIS2_EEEC1B8ne180100IJOS2_EJOS4_EEENS_21piecewise_construct_tENS_5tupleIJDpT_EEENSA_IJDpT0_EEE, symObjAddr: 0xA620, symBinAddr: 0x10000CA80, symSize: 0x3C }
  - { offset: 0x29681, size: 0x8, addend: 0x0, symName: __ZNSt3__15tupleIJOZN11ToppingListC1EvEUlvE0_EEC1B8ne180100IJS2_ELi0EEEDpOT_, symObjAddr: 0xA65C, symBinAddr: 0x10000CABC, symSize: 0x34 }
  - { offset: 0x296CB, size: 0x8, addend: 0x0, symName: __ZNSt3__15tupleIJOZN11ToppingListC1EvEUlvE0_EEC2B8ne180100IJS2_ELi0EEEDpOT_, symObjAddr: 0xA690, symBinAddr: 0x10000CAF0, symSize: 0x34 }
  - { offset: 0x29715, size: 0x8, addend: 0x0, symName: __ZNSt3__112__tuple_implINS_15__tuple_indicesIJLm0EEEEJOZN11ToppingListC1EvEUlvE0_EEC1B8ne180100IJLm0EEJS5_EJEJEJS4_EEENS1_IJXspT_EEEENS_13__tuple_typesIJDpT0_EEENS1_IJXspT1_EEEENS9_IJDpT2_EEEDpOT3_, symObjAddr: 0xA6C4, symBinAddr: 0x10000CB24, symSize: 0x34 }
  - { offset: 0x297AA, size: 0x8, addend: 0x0, symName: __ZNSt3__112__tuple_implINS_15__tuple_indicesIJLm0EEEEJOZN11ToppingListC1EvEUlvE0_EEC2B8ne180100IJLm0EEJS5_EJEJEJS4_EEENS1_IJXspT_EEEENS_13__tuple_typesIJDpT0_EEENS1_IJXspT1_EEEENS9_IJDpT2_EEEDpOT3_, symObjAddr: 0xA6F8, symBinAddr: 0x10000CB58, symSize: 0x34 }
  - { offset: 0x2983F, size: 0x8, addend: 0x0, symName: __ZNSt3__112__tuple_leafILm0EOZN11ToppingListC1EvEUlvE0_Lb0EEC2B8ne180100IS2_vEEOT_, symObjAddr: 0xA72C, symBinAddr: 0x10000CB8C, symSize: 0x20 }
  - { offset: 0x29882, size: 0x8, addend: 0x0, symName: __ZNSt3__15tupleIJONS_9allocatorIZN11ToppingListC1EvEUlvE0_EEEEC1B8ne180100IJS4_ELi0EEEDpOT_, symObjAddr: 0xA74C, symBinAddr: 0x10000CBAC, symSize: 0x34 }
  - { offset: 0x298CC, size: 0x8, addend: 0x0, symName: __ZNSt3__15tupleIJONS_9allocatorIZN11ToppingListC1EvEUlvE0_EEEEC2B8ne180100IJS4_ELi0EEEDpOT_, symObjAddr: 0xA780, symBinAddr: 0x10000CBE0, symSize: 0x34 }
  - { offset: 0x29916, size: 0x8, addend: 0x0, symName: __ZNSt3__112__tuple_implINS_15__tuple_indicesIJLm0EEEEJONS_9allocatorIZN11ToppingListC1EvEUlvE0_EEEEC1B8ne180100IJLm0EEJS7_EJEJEJS6_EEENS1_IJXspT_EEEENS_13__tuple_typesIJDpT0_EEENS1_IJXspT1_EEEENSB_IJDpT2_EEEDpOT3_, symObjAddr: 0xA7B4, symBinAddr: 0x10000CC14, symSize: 0x34 }
  - { offset: 0x299AB, size: 0x8, addend: 0x0, symName: __ZNSt3__112__tuple_implINS_15__tuple_indicesIJLm0EEEEJONS_9allocatorIZN11ToppingListC1EvEUlvE0_EEEEC2B8ne180100IJLm0EEJS7_EJEJEJS6_EEENS1_IJXspT_EEEENS_13__tuple_typesIJDpT0_EEENS1_IJXspT1_EEEENSB_IJDpT2_EEEDpOT3_, symObjAddr: 0xA7E8, symBinAddr: 0x10000CC48, symSize: 0x34 }
  - { offset: 0x29A40, size: 0x8, addend: 0x0, symName: __ZNSt3__112__tuple_leafILm0EONS_9allocatorIZN11ToppingListC1EvEUlvE0_EELb0EEC2B8ne180100IS4_vEEOT_, symObjAddr: 0xA81C, symBinAddr: 0x10000CC7C, symSize: 0x20 }
  - { offset: 0x29A83, size: 0x8, addend: 0x0, symName: __ZNSt3__117__compressed_pairIZN11ToppingListC1EvEUlvE0_NS_9allocatorIS2_EEEC2B8ne180100IJOS2_EJOS4_EEENS_21piecewise_construct_tENS_5tupleIJDpT_EEENSA_IJDpT0_EEE, symObjAddr: 0xA83C, symBinAddr: 0x10000CC9C, symSize: 0x54 }
  - { offset: 0x29AED, size: 0x8, addend: 0x0, symName: __ZNSt3__122__compressed_pair_elemIZN11ToppingListC1EvEUlvE0_Li0ELb1EEC2B8ne180100IJOS2_EJLm0EEEENS_21piecewise_construct_tENS_5tupleIJDpT_EEENS_15__tuple_indicesIJXspT0_EEEE, symObjAddr: 0xA890, symBinAddr: 0x10000CCF0, symSize: 0x38 }
  - { offset: 0x29B50, size: 0x8, addend: 0x0, symName: __ZNSt3__122__compressed_pair_elemINS_9allocatorIZN11ToppingListC1EvEUlvE0_EELi1ELb1EEC2B8ne180100IJOS4_EJLm0EEEENS_21piecewise_construct_tENS_5tupleIJDpT_EEENS_15__tuple_indicesIJXspT0_EEEE, symObjAddr: 0xA8C8, symBinAddr: 0x10000CD28, symSize: 0x38 }
  - { offset: 0x29BB3, size: 0x8, addend: 0x0, symName: __ZNSt3__112__tuple_leafILm0EOZN11ToppingListC1EvEUlvE0_Lb0EE3getB8ne180100Ev, symObjAddr: 0xA924, symBinAddr: 0x10000CD84, symSize: 0x18 }
  - { offset: 0x29BD9, size: 0x8, addend: 0x0, symName: __ZNSt3__112__tuple_leafILm0EONS_9allocatorIZN11ToppingListC1EvEUlvE0_EELb0EE3getB8ne180100Ev, symObjAddr: 0xA960, symBinAddr: 0x10000CDC0, symSize: 0x18 }
  - { offset: 0x29BFF, size: 0x8, addend: 0x0, symName: __ZNSt3__110__function6__funcIZN11ToppingListC1EvEUlvE0_NS_9allocatorIS3_EEFNS_10unique_ptrI12FruitToppingNS_14default_deleteIS7_EEEEvEED2Ev, symObjAddr: 0xA978, symBinAddr: 0x10000CDD8, symSize: 0x2C }
  - { offset: 0x29C2B, size: 0x8, addend: 0x0, symName: __ZNKSt3__110__function12__alloc_funcIZN11ToppingListC1EvEUlvE0_NS_9allocatorIS3_EEFNS_10unique_ptrI12FruitToppingNS_14default_deleteIS7_EEEEvEE15__get_allocatorB8ne180100Ev, symObjAddr: 0xA9A4, symBinAddr: 0x10000CE04, symSize: 0x24 }
  - { offset: 0x29C51, size: 0x8, addend: 0x0, symName: __ZNSt3__19allocatorINS_10__function6__funcIZN11ToppingListC1EvEUlvE0_NS0_IS4_EEFNS_10unique_ptrI12FruitToppingNS_14default_deleteIS7_EEEEvEEEE8allocateB8ne180100Em, symObjAddr: 0xA9C8, symBinAddr: 0x10000CE28, symSize: 0x58 }
  - { offset: 0x29C94, size: 0x8, addend: 0x0, symName: __ZNSt3__122__allocator_destructorINS_9allocatorINS_10__function6__funcIZN11ToppingListC1EvEUlvE0_NS1_IS5_EEFNS_10unique_ptrI12FruitToppingNS_14default_deleteIS8_EEEEvEEEEEEC1B8ne180100ERSE_m, symObjAddr: 0xAA20, symBinAddr: 0x10000CE80, symSize: 0x3C }
  - { offset: 0x29D68, size: 0x8, addend: 0x0, symName: __ZNSt3__110unique_ptrINS_10__function6__funcIZN11ToppingListC1EvEUlvE0_NS_9allocatorIS4_EEFNS0_I12FruitToppingNS_14default_deleteIS7_EEEEvEEENS_22__allocator_destructorINS5_ISC_EEEEEC1B8ne180100ILb1EvEEPSC_NS_16__dependent_typeINS_27__unique_ptr_deleter_sfinaeISF_EEXT_EE20__good_rval_ref_typeE, symObjAddr: 0xAA5C, symBinAddr: 0x10000CEBC, symSize: 0x3C }
  - { offset: 0x29DB9, size: 0x8, addend: 0x0, symName: __ZNKSt3__110unique_ptrINS_10__function6__funcIZN11ToppingListC1EvEUlvE0_NS_9allocatorIS4_EEFNS0_I12FruitToppingNS_14default_deleteIS7_EEEEvEEENS_22__allocator_destructorINS5_ISC_EEEEE3getB8ne180100Ev, symObjAddr: 0xAA98, symBinAddr: 0x10000CEF8, symSize: 0x28 }
  - { offset: 0x29DDF, size: 0x8, addend: 0x0, symName: __ZNKSt3__110__function12__alloc_funcIZN11ToppingListC1EvEUlvE0_NS_9allocatorIS3_EEFNS_10unique_ptrI12FruitToppingNS_14default_deleteIS7_EEEEvEE8__targetB8ne180100Ev, symObjAddr: 0xAAC0, symBinAddr: 0x10000CF20, symSize: 0x24 }
  - { offset: 0x29E05, size: 0x8, addend: 0x0, symName: __ZNSt3__110__function6__funcIZN11ToppingListC1EvEUlvE0_NS_9allocatorIS3_EEFNS_10unique_ptrI12FruitToppingNS_14default_deleteIS7_EEEEvEEC1B8ne180100ERKS3_OS5_, symObjAddr: 0xAAE4, symBinAddr: 0x10000CF44, symSize: 0x3C }
  - { offset: 0x29E4D, size: 0x8, addend: 0x0, symName: __ZNSt3__110unique_ptrINS_10__function6__funcIZN11ToppingListC1EvEUlvE0_NS_9allocatorIS4_EEFNS0_I12FruitToppingNS_14default_deleteIS7_EEEEvEEENS_22__allocator_destructorINS5_ISC_EEEEE7releaseB8ne180100Ev, symObjAddr: 0xAB20, symBinAddr: 0x10000CF80, symSize: 0x44 }
  - { offset: 0x29E82, size: 0x8, addend: 0x0, symName: __ZNSt3__110unique_ptrINS_10__function6__funcIZN11ToppingListC1EvEUlvE0_NS_9allocatorIS4_EEFNS0_I12FruitToppingNS_14default_deleteIS7_EEEEvEEENS_22__allocator_destructorINS5_ISC_EEEEED1B8ne180100Ev, symObjAddr: 0xAB64, symBinAddr: 0x10000CFC4, symSize: 0x2C }
  - { offset: 0x29EAC, size: 0x8, addend: 0x0, symName: __ZNKSt3__117__compressed_pairIZN11ToppingListC1EvEUlvE0_NS_9allocatorIS2_EEE6secondB8ne180100Ev, symObjAddr: 0xAB90, symBinAddr: 0x10000CFF0, symSize: 0x24 }
  - { offset: 0x29ED2, size: 0x8, addend: 0x0, symName: __ZNKSt3__122__compressed_pair_elemINS_9allocatorIZN11ToppingListC1EvEUlvE0_EELi1ELb1EE5__getB8ne180100Ev, symObjAddr: 0xABB4, symBinAddr: 0x10000D014, symSize: 0x14 }
  - { offset: 0x29F02, size: 0x8, addend: 0x0, symName: __ZNSt3__116allocator_traitsINS_9allocatorINS_10__function6__funcIZN11ToppingListC1EvEUlvE0_NS1_IS5_EEFNS_10unique_ptrI12FruitToppingNS_14default_deleteIS8_EEEEvEEEEEE8max_sizeB8ne180100ISE_vEEmRKSE_, symObjAddr: 0xABC8, symBinAddr: 0x10000D028, symSize: 0x24 }
  - { offset: 0x29F30, size: 0x8, addend: 0x0, symName: __ZNKSt3__19allocatorINS_10__function6__funcIZN11ToppingListC1EvEUlvE0_NS0_IS4_EEFNS_10unique_ptrI12FruitToppingNS_14default_deleteIS7_EEEEvEEEE8max_sizeB8ne180100Ev, symObjAddr: 0xABEC, symBinAddr: 0x10000D04C, symSize: 0x14 }
  - { offset: 0x29F56, size: 0x8, addend: 0x0, symName: __ZNSt3__122__allocator_destructorINS_9allocatorINS_10__function6__funcIZN11ToppingListC1EvEUlvE0_NS1_IS5_EEFNS_10unique_ptrI12FruitToppingNS_14default_deleteIS8_EEEEvEEEEEEC2B8ne180100ERSE_m, symObjAddr: 0xAC00, symBinAddr: 0x10000D060, symSize: 0x2C }
  - { offset: 0x29F9C, size: 0x8, addend: 0x0, symName: __ZNSt3__110unique_ptrINS_10__function6__funcIZN11ToppingListC1EvEUlvE0_NS_9allocatorIS4_EEFNS0_I12FruitToppingNS_14default_deleteIS7_EEEEvEEENS_22__allocator_destructorINS5_ISC_EEEEEC2B8ne180100ILb1EvEEPSC_NS_16__dependent_typeINS_27__unique_ptr_deleter_sfinaeISF_EEXT_EE20__good_rval_ref_typeE, symObjAddr: 0xAC2C, symBinAddr: 0x10000D08C, symSize: 0x48 }
  - { offset: 0x29FED, size: 0x8, addend: 0x0, symName: __ZNSt3__117__compressed_pairIPNS_10__function6__funcIZN11ToppingListC1EvEUlvE0_NS_9allocatorIS4_EEFNS_10unique_ptrI12FruitToppingNS_14default_deleteIS8_EEEEvEEENS_22__allocator_destructorINS5_ISD_EEEEEC1B8ne180100IRSE_SH_EEOT_OT0_, symObjAddr: 0xAC74, symBinAddr: 0x10000D0D4, symSize: 0x3C }
  - { offset: 0x2A045, size: 0x8, addend: 0x0, symName: __ZNSt3__117__compressed_pairIPNS_10__function6__funcIZN11ToppingListC1EvEUlvE0_NS_9allocatorIS4_EEFNS_10unique_ptrI12FruitToppingNS_14default_deleteIS8_EEEEvEEENS_22__allocator_destructorINS5_ISD_EEEEEC2B8ne180100IRSE_SH_EEOT_OT0_, symObjAddr: 0xACB0, symBinAddr: 0x10000D110, symSize: 0x48 }
  - { offset: 0x2A09D, size: 0x8, addend: 0x0, symName: __ZNSt3__122__compressed_pair_elemIPNS_10__function6__funcIZN11ToppingListC1EvEUlvE0_NS_9allocatorIS4_EEFNS_10unique_ptrI12FruitToppingNS_14default_deleteIS8_EEEEvEEELi0ELb0EEC2B8ne180100IRSE_vEEOT_, symObjAddr: 0xACF8, symBinAddr: 0x10000D158, symSize: 0x24 }
  - { offset: 0x2A0DF, size: 0x8, addend: 0x0, symName: __ZNSt3__122__compressed_pair_elemINS_22__allocator_destructorINS_9allocatorINS_10__function6__funcIZN11ToppingListC1EvEUlvE0_NS2_IS6_EEFNS_10unique_ptrI12FruitToppingNS_14default_deleteIS9_EEEEvEEEEEEELi1ELb0EEC2B8ne180100ISG_vEEOT_, symObjAddr: 0xAD1C, symBinAddr: 0x10000D17C, symSize: 0x24 }
  - { offset: 0x2A121, size: 0x8, addend: 0x0, symName: __ZNKSt3__117__compressed_pairIPNS_10__function6__funcIZN11ToppingListC1EvEUlvE0_NS_9allocatorIS4_EEFNS_10unique_ptrI12FruitToppingNS_14default_deleteIS8_EEEEvEEENS_22__allocator_destructorINS5_ISD_EEEEE5firstB8ne180100Ev, symObjAddr: 0xAD40, symBinAddr: 0x10000D1A0, symSize: 0x24 }
  - { offset: 0x2A147, size: 0x8, addend: 0x0, symName: __ZNKSt3__122__compressed_pair_elemIPNS_10__function6__funcIZN11ToppingListC1EvEUlvE0_NS_9allocatorIS4_EEFNS_10unique_ptrI12FruitToppingNS_14default_deleteIS8_EEEEvEEELi0ELb0EE5__getB8ne180100Ev, symObjAddr: 0xAD64, symBinAddr: 0x10000D1C4, symSize: 0x14 }
  - { offset: 0x2A16D, size: 0x8, addend: 0x0, symName: __ZNKSt3__117__compressed_pairIZN11ToppingListC1EvEUlvE0_NS_9allocatorIS2_EEE5firstB8ne180100Ev, symObjAddr: 0xAD78, symBinAddr: 0x10000D1D8, symSize: 0x24 }
  - { offset: 0x2A193, size: 0x8, addend: 0x0, symName: __ZNKSt3__122__compressed_pair_elemIZN11ToppingListC1EvEUlvE0_Li0ELb1EE5__getB8ne180100Ev, symObjAddr: 0xAD9C, symBinAddr: 0x10000D1FC, symSize: 0x14 }
  - { offset: 0x2A1B9, size: 0x8, addend: 0x0, symName: __ZNSt3__110__function6__funcIZN11ToppingListC1EvEUlvE0_NS_9allocatorIS3_EEFNS_10unique_ptrI12FruitToppingNS_14default_deleteIS7_EEEEvEEC2B8ne180100ERKS3_OS5_, symObjAddr: 0xADB0, symBinAddr: 0x10000D210, symSize: 0x80 }
  - { offset: 0x2A201, size: 0x8, addend: 0x0, symName: __ZNSt3__110__function12__alloc_funcIZN11ToppingListC1EvEUlvE0_NS_9allocatorIS3_EEFNS_10unique_ptrI12FruitToppingNS_14default_deleteIS7_EEEEvEEC1B8ne180100ERKS3_OS5_, symObjAddr: 0xAE30, symBinAddr: 0x10000D290, symSize: 0x3C }
  - { offset: 0x2A247, size: 0x8, addend: 0x0, symName: __ZNSt3__110__function12__alloc_funcIZN11ToppingListC1EvEUlvE0_NS_9allocatorIS3_EEFNS_10unique_ptrI12FruitToppingNS_14default_deleteIS7_EEEEvEEC2B8ne180100ERKS3_OS5_, symObjAddr: 0xAE6C, symBinAddr: 0x10000D2CC, symSize: 0x5C }
  - { offset: 0x2A28D, size: 0x8, addend: 0x0, symName: __ZNSt3__117__compressed_pairIZN11ToppingListC1EvEUlvE0_NS_9allocatorIS2_EEEC1B8ne180100IJRKS2_EJOS4_EEENS_21piecewise_construct_tENS_5tupleIJDpT_EEENSB_IJDpT0_EEE, symObjAddr: 0xAEF4, symBinAddr: 0x10000D354, symSize: 0x3C }
  - { offset: 0x2A2F7, size: 0x8, addend: 0x0, symName: __ZNSt3__15tupleIJRKZN11ToppingListC1EvEUlvE0_EEC1B8ne180100INS_4_AndELi0EEES4_, symObjAddr: 0xAF30, symBinAddr: 0x10000D390, symSize: 0x34 }
  - { offset: 0x2A33F, size: 0x8, addend: 0x0, symName: __ZNSt3__15tupleIJRKZN11ToppingListC1EvEUlvE0_EEC2B8ne180100INS_4_AndELi0EEES4_, symObjAddr: 0xAF64, symBinAddr: 0x10000D3C4, symSize: 0x34 }
  - { offset: 0x2A387, size: 0x8, addend: 0x0, symName: __ZNSt3__112__tuple_implINS_15__tuple_indicesIJLm0EEEEJRKZN11ToppingListC1EvEUlvE0_EEC1B8ne180100IJLm0EEJS6_EJEJEJS6_EEENS1_IJXspT_EEEENS_13__tuple_typesIJDpT0_EEENS1_IJXspT1_EEEENSA_IJDpT2_EEEDpOT3_, symObjAddr: 0xAF98, symBinAddr: 0x10000D3F8, symSize: 0x34 }
  - { offset: 0x2A41C, size: 0x8, addend: 0x0, symName: __ZNSt3__112__tuple_implINS_15__tuple_indicesIJLm0EEEEJRKZN11ToppingListC1EvEUlvE0_EEC2B8ne180100IJLm0EEJS6_EJEJEJS6_EEENS1_IJXspT_EEEENS_13__tuple_typesIJDpT0_EEENS1_IJXspT1_EEEENSA_IJDpT2_EEEDpOT3_, symObjAddr: 0xAFCC, symBinAddr: 0x10000D42C, symSize: 0x34 }
  - { offset: 0x2A4B1, size: 0x8, addend: 0x0, symName: __ZNSt3__112__tuple_leafILm0ERKZN11ToppingListC1EvEUlvE0_Lb0EEC2B8ne180100IS4_vEEOT_, symObjAddr: 0xB000, symBinAddr: 0x10000D460, symSize: 0x20 }
  - { offset: 0x2A4F4, size: 0x8, addend: 0x0, symName: __ZNSt3__117__compressed_pairIZN11ToppingListC1EvEUlvE0_NS_9allocatorIS2_EEEC2B8ne180100IJRKS2_EJOS4_EEENS_21piecewise_construct_tENS_5tupleIJDpT_EEENSB_IJDpT0_EEE, symObjAddr: 0xB020, symBinAddr: 0x10000D480, symSize: 0x54 }
  - { offset: 0x2A55E, size: 0x8, addend: 0x0, symName: __ZNSt3__122__compressed_pair_elemIZN11ToppingListC1EvEUlvE0_Li0ELb1EEC2B8ne180100IJRKS2_EJLm0EEEENS_21piecewise_construct_tENS_5tupleIJDpT_EEENS_15__tuple_indicesIJXspT0_EEEE, symObjAddr: 0xB074, symBinAddr: 0x10000D4D4, symSize: 0x38 }
  - { offset: 0x2A5C1, size: 0x8, addend: 0x0, symName: __ZNSt3__112__tuple_leafILm0ERKZN11ToppingListC1EvEUlvE0_Lb0EE3getB8ne180100Ev, symObjAddr: 0xB0D0, symBinAddr: 0x10000D530, symSize: 0x18 }
  - { offset: 0x2A5E7, size: 0x8, addend: 0x0, symName: __ZNSt3__117__compressed_pairIPNS_10__function6__funcIZN11ToppingListC1EvEUlvE0_NS_9allocatorIS4_EEFNS_10unique_ptrI12FruitToppingNS_14default_deleteIS8_EEEEvEEENS_22__allocator_destructorINS5_ISD_EEEEE5firstB8ne180100Ev, symObjAddr: 0xB0E8, symBinAddr: 0x10000D548, symSize: 0x24 }
  - { offset: 0x2A60D, size: 0x8, addend: 0x0, symName: __ZNSt3__122__compressed_pair_elemIPNS_10__function6__funcIZN11ToppingListC1EvEUlvE0_NS_9allocatorIS4_EEFNS_10unique_ptrI12FruitToppingNS_14default_deleteIS8_EEEEvEEELi0ELb0EE5__getB8ne180100Ev, symObjAddr: 0xB10C, symBinAddr: 0x10000D56C, symSize: 0x14 }
  - { offset: 0x2A633, size: 0x8, addend: 0x0, symName: __ZNSt3__110unique_ptrINS_10__function6__funcIZN11ToppingListC1EvEUlvE0_NS_9allocatorIS4_EEFNS0_I12FruitToppingNS_14default_deleteIS7_EEEEvEEENS_22__allocator_destructorINS5_ISC_EEEEED2B8ne180100Ev, symObjAddr: 0xB120, symBinAddr: 0x10000D580, symSize: 0x30 }
  - { offset: 0x2A65D, size: 0x8, addend: 0x0, symName: __ZNSt3__110unique_ptrINS_10__function6__funcIZN11ToppingListC1EvEUlvE0_NS_9allocatorIS4_EEFNS0_I12FruitToppingNS_14default_deleteIS7_EEEEvEEENS_22__allocator_destructorINS5_ISC_EEEEE5resetB8ne180100EPSC_, symObjAddr: 0xB150, symBinAddr: 0x10000D5B0, symSize: 0x78 }
  - { offset: 0x2A6A1, size: 0x8, addend: 0x0, symName: __ZNSt3__117__compressed_pairIPNS_10__function6__funcIZN11ToppingListC1EvEUlvE0_NS_9allocatorIS4_EEFNS_10unique_ptrI12FruitToppingNS_14default_deleteIS8_EEEEvEEENS_22__allocator_destructorINS5_ISD_EEEEE6secondB8ne180100Ev, symObjAddr: 0xB1C8, symBinAddr: 0x10000D628, symSize: 0x28 }
  - { offset: 0x2A6C7, size: 0x8, addend: 0x0, symName: __ZNSt3__122__allocator_destructorINS_9allocatorINS_10__function6__funcIZN11ToppingListC1EvEUlvE0_NS1_IS5_EEFNS_10unique_ptrI12FruitToppingNS_14default_deleteIS8_EEEEvEEEEEEclB8ne180100EPSD_, symObjAddr: 0xB1F0, symBinAddr: 0x10000D650, symSize: 0x34 }
  - { offset: 0x2A6FB, size: 0x8, addend: 0x0, symName: __ZNSt3__122__compressed_pair_elemINS_22__allocator_destructorINS_9allocatorINS_10__function6__funcIZN11ToppingListC1EvEUlvE0_NS2_IS6_EEFNS_10unique_ptrI12FruitToppingNS_14default_deleteIS9_EEEEvEEEEEEELi1ELb0EE5__getB8ne180100Ev, symObjAddr: 0xB224, symBinAddr: 0x10000D684, symSize: 0x14 }
  - { offset: 0x2A721, size: 0x8, addend: 0x0, symName: __ZNSt3__116allocator_traitsINS_9allocatorINS_10__function6__funcIZN11ToppingListC1EvEUlvE0_NS1_IS5_EEFNS_10unique_ptrI12FruitToppingNS_14default_deleteIS8_EEEEvEEEEEE10deallocateB8ne180100ERSE_PSD_m, symObjAddr: 0xB238, symBinAddr: 0x10000D698, symSize: 0x34 }
  - { offset: 0x2A763, size: 0x8, addend: 0x0, symName: __ZNSt3__19allocatorINS_10__function6__funcIZN11ToppingListC1EvEUlvE0_NS0_IS4_EEFNS_10unique_ptrI12FruitToppingNS_14default_deleteIS7_EEEEvEEEE10deallocateB8ne180100EPSC_m, symObjAddr: 0xB26C, symBinAddr: 0x10000D6CC, symSize: 0x40 }
  - { offset: 0x2A7A5, size: 0x8, addend: 0x0, symName: __ZNSt3__110__function6__funcIZN11ToppingListC1EvEUlvE0_NS_9allocatorIS3_EEFNS_10unique_ptrI12FruitToppingNS_14default_deleteIS7_EEEEvEEC1B8ne180100ERKS3_RKS5_, symObjAddr: 0xB2AC, symBinAddr: 0x10000D70C, symSize: 0x3C }
  - { offset: 0x2A7ED, size: 0x8, addend: 0x0, symName: __ZNSt3__110__function6__funcIZN11ToppingListC1EvEUlvE0_NS_9allocatorIS3_EEFNS_10unique_ptrI12FruitToppingNS_14default_deleteIS7_EEEEvEEC2B8ne180100ERKS3_RKS5_, symObjAddr: 0xB2E8, symBinAddr: 0x10000D748, symSize: 0x80 }
  - { offset: 0x2A835, size: 0x8, addend: 0x0, symName: __ZNSt3__110__function12__alloc_funcIZN11ToppingListC1EvEUlvE0_NS_9allocatorIS3_EEFNS_10unique_ptrI12FruitToppingNS_14default_deleteIS7_EEEEvEEC1B8ne180100ERKS3_RKS5_, symObjAddr: 0xB368, symBinAddr: 0x10000D7C8, symSize: 0x3C }
  - { offset: 0x2A87B, size: 0x8, addend: 0x0, symName: __ZNSt3__110__function12__alloc_funcIZN11ToppingListC1EvEUlvE0_NS_9allocatorIS3_EEFNS_10unique_ptrI12FruitToppingNS_14default_deleteIS7_EEEEvEEC2B8ne180100ERKS3_RKS5_, symObjAddr: 0xB3A4, symBinAddr: 0x10000D804, symSize: 0x5C }
  - { offset: 0x2A8C1, size: 0x8, addend: 0x0, symName: __ZNSt3__117__compressed_pairIZN11ToppingListC1EvEUlvE0_NS_9allocatorIS2_EEEC1B8ne180100IJRKS2_EJRKS4_EEENS_21piecewise_construct_tENS_5tupleIJDpT_EEENSC_IJDpT0_EEE, symObjAddr: 0xB42C, symBinAddr: 0x10000D88C, symSize: 0x3C }
  - { offset: 0x2A92B, size: 0x8, addend: 0x0, symName: __ZNSt3__15tupleIJRKNS_9allocatorIZN11ToppingListC1EvEUlvE0_EEEEC1B8ne180100INS_4_AndELi0EEES6_, symObjAddr: 0xB468, symBinAddr: 0x10000D8C8, symSize: 0x34 }
  - { offset: 0x2A973, size: 0x8, addend: 0x0, symName: __ZNSt3__15tupleIJRKNS_9allocatorIZN11ToppingListC1EvEUlvE0_EEEEC2B8ne180100INS_4_AndELi0EEES6_, symObjAddr: 0xB49C, symBinAddr: 0x10000D8FC, symSize: 0x34 }
  - { offset: 0x2A9BB, size: 0x8, addend: 0x0, symName: __ZNSt3__112__tuple_implINS_15__tuple_indicesIJLm0EEEEJRKNS_9allocatorIZN11ToppingListC1EvEUlvE0_EEEEC1B8ne180100IJLm0EEJS8_EJEJEJS8_EEENS1_IJXspT_EEEENS_13__tuple_typesIJDpT0_EEENS1_IJXspT1_EEEENSC_IJDpT2_EEEDpOT3_, symObjAddr: 0xB4D0, symBinAddr: 0x10000D930, symSize: 0x34 }
  - { offset: 0x2AA50, size: 0x8, addend: 0x0, symName: __ZNSt3__112__tuple_implINS_15__tuple_indicesIJLm0EEEEJRKNS_9allocatorIZN11ToppingListC1EvEUlvE0_EEEEC2B8ne180100IJLm0EEJS8_EJEJEJS8_EEENS1_IJXspT_EEEENS_13__tuple_typesIJDpT0_EEENS1_IJXspT1_EEEENSC_IJDpT2_EEEDpOT3_, symObjAddr: 0xB504, symBinAddr: 0x10000D964, symSize: 0x34 }
  - { offset: 0x2AAE5, size: 0x8, addend: 0x0, symName: __ZNSt3__112__tuple_leafILm0ERKNS_9allocatorIZN11ToppingListC1EvEUlvE0_EELb0EEC2B8ne180100IS6_vEEOT_, symObjAddr: 0xB538, symBinAddr: 0x10000D998, symSize: 0x20 }
  - { offset: 0x2AB28, size: 0x8, addend: 0x0, symName: __ZNSt3__117__compressed_pairIZN11ToppingListC1EvEUlvE0_NS_9allocatorIS2_EEEC2B8ne180100IJRKS2_EJRKS4_EEENS_21piecewise_construct_tENS_5tupleIJDpT_EEENSC_IJDpT0_EEE, symObjAddr: 0xB558, symBinAddr: 0x10000D9B8, symSize: 0x54 }
  - { offset: 0x2AB92, size: 0x8, addend: 0x0, symName: __ZNSt3__122__compressed_pair_elemINS_9allocatorIZN11ToppingListC1EvEUlvE0_EELi1ELb1EEC2B8ne180100IJRKS4_EJLm0EEEENS_21piecewise_construct_tENS_5tupleIJDpT_EEENS_15__tuple_indicesIJXspT0_EEEE, symObjAddr: 0xB5AC, symBinAddr: 0x10000DA0C, symSize: 0x38 }
  - { offset: 0x2ABF5, size: 0x8, addend: 0x0, symName: __ZNSt3__112__tuple_leafILm0ERKNS_9allocatorIZN11ToppingListC1EvEUlvE0_EELb0EE3getB8ne180100Ev, symObjAddr: 0xB608, symBinAddr: 0x10000DA68, symSize: 0x18 }
  - { offset: 0x2AC1B, size: 0x8, addend: 0x0, symName: __ZNSt3__110__function12__alloc_funcIZN11ToppingListC1EvEUlvE0_NS_9allocatorIS3_EEFNS_10unique_ptrI12FruitToppingNS_14default_deleteIS7_EEEEvEE7destroyB8ne180100Ev, symObjAddr: 0xB620, symBinAddr: 0x10000DA80, symSize: 0x10 }
  - { offset: 0x2AC41, size: 0x8, addend: 0x0, symName: __ZNSt3__110__function12__alloc_funcIZN11ToppingListC1EvEUlvE0_NS_9allocatorIS3_EEFNS_10unique_ptrI12FruitToppingNS_14default_deleteIS7_EEEEvEEclB8ne180100Ev, symObjAddr: 0xB630, symBinAddr: 0x10000DA90, symSize: 0x34 }
  - { offset: 0x2AC67, size: 0x8, addend: 0x0, symName: __ZNSt3__128__invoke_void_return_wrapperINS_10unique_ptrI12FruitToppingNS_14default_deleteIS2_EEEELb0EE6__callB8ne180100IJRZN11ToppingListC1EvEUlvE0_EEES5_DpOT_, symObjAddr: 0xB664, symBinAddr: 0x10000DAC4, symSize: 0x2C }
  - { offset: 0x2AC96, size: 0x8, addend: 0x0, symName: __ZNSt3__117__compressed_pairIZN11ToppingListC1EvEUlvE0_NS_9allocatorIS2_EEE5firstB8ne180100Ev, symObjAddr: 0xB690, symBinAddr: 0x10000DAF0, symSize: 0x24 }
  - { offset: 0x2ACC1, size: 0x8, addend: 0x0, symName: __ZZN11ToppingListC1EvENKUlvE0_clEv, symObjAddr: 0xB6E0, symBinAddr: 0x10000DB40, symSize: 0x30 }
  - { offset: 0x2ACEB, size: 0x8, addend: 0x0, symName: __ZNSt3__122__compressed_pair_elemIZN11ToppingListC1EvEUlvE0_Li0ELb1EE5__getB8ne180100Ev, symObjAddr: 0xB710, symBinAddr: 0x10000DB70, symSize: 0x14 }
  - { offset: 0x2AD11, size: 0x8, addend: 0x0, symName: __ZNSt3__16vectorINS_8functionIFNS_10unique_ptrI12SweetToppingNS_14default_deleteIS3_EEEEvEEENS_9allocatorIS8_EEE22__construct_one_at_endB8ne180100IJS8_EEEvDpOT_, symObjAddr: 0xB724, symBinAddr: 0x10000DB84, symSize: 0x90 }
  - { offset: 0x2AD60, size: 0x8, addend: 0x0, symName: __ZNSt3__16vectorINS_8functionIFNS_10unique_ptrI12SweetToppingNS_14default_deleteIS3_EEEEvEEENS_9allocatorIS8_EEE21__push_back_slow_pathIS8_EEPS8_OT_, symObjAddr: 0xB7B4, symBinAddr: 0x10000DC14, symSize: 0xE8 }
  - { offset: 0x2ADD7, size: 0x8, addend: 0x0, symName: __ZNSt3__16vectorINS_8functionIFNS_10unique_ptrI12SweetToppingNS_14default_deleteIS3_EEEEvEEENS_9allocatorIS8_EEE21_ConstructTransactionC1B8ne180100ERSB_m, symObjAddr: 0xB89C, symBinAddr: 0x10000DCFC, symSize: 0x3C }
  - { offset: 0x2AE1F, size: 0x8, addend: 0x0, symName: __ZNSt3__116allocator_traitsINS_9allocatorINS_8functionIFNS_10unique_ptrI12SweetToppingNS_14default_deleteIS4_EEEEvEEEEEE9constructB8ne180100IS9_JS9_EvEEvRSA_PT_DpOT0_, symObjAddr: 0xB8D8, symBinAddr: 0x10000DD38, symSize: 0x34 }
  - { offset: 0x2AE76, size: 0x8, addend: 0x0, symName: __ZNSt3__16vectorINS_8functionIFNS_10unique_ptrI12SweetToppingNS_14default_deleteIS3_EEEEvEEENS_9allocatorIS8_EEE21_ConstructTransactionD1B8ne180100Ev, symObjAddr: 0xB920, symBinAddr: 0x10000DD80, symSize: 0x2C }
  - { offset: 0x2AEA0, size: 0x8, addend: 0x0, symName: __ZNSt3__16vectorINS_8functionIFNS_10unique_ptrI12SweetToppingNS_14default_deleteIS3_EEEEvEEENS_9allocatorIS8_EEE21_ConstructTransactionC2B8ne180100ERSB_m, symObjAddr: 0xB94C, symBinAddr: 0x10000DDAC, symSize: 0x44 }
  - { offset: 0x2AEE8, size: 0x8, addend: 0x0, symName: __ZNSt3__19allocatorINS_8functionIFNS_10unique_ptrI12SweetToppingNS_14default_deleteIS3_EEEEvEEEE9constructB8ne180100IS8_JS8_EEEvPT_DpOT0_, symObjAddr: 0xB990, symBinAddr: 0x10000DDF0, symSize: 0x30 }
  - { offset: 0x2AF3E, size: 0x8, addend: 0x0, symName: __ZNSt3__18functionIFNS_10unique_ptrI12SweetToppingNS_14default_deleteIS2_EEEEvEEC1EOS7_, symObjAddr: 0xB9C0, symBinAddr: 0x10000DE20, symSize: 0x34 }
  - { offset: 0x2AF79, size: 0x8, addend: 0x0, symName: __ZNSt3__18functionIFNS_10unique_ptrI12SweetToppingNS_14default_deleteIS2_EEEEvEEC2EOS7_, symObjAddr: 0xB9F4, symBinAddr: 0x10000DE54, symSize: 0x34 }
  - { offset: 0x2AFB4, size: 0x8, addend: 0x0, symName: __ZNSt3__110__function12__value_funcIFNS_10unique_ptrI12SweetToppingNS_14default_deleteIS3_EEEEvEEC1B8ne180100EOS8_, symObjAddr: 0xBA28, symBinAddr: 0x10000DE88, symSize: 0x34 }
  - { offset: 0x2AFED, size: 0x8, addend: 0x0, symName: __ZNSt3__110__function12__value_funcIFNS_10unique_ptrI12SweetToppingNS_14default_deleteIS3_EEEEvEEC2B8ne180100EOS8_, symObjAddr: 0xBA5C, symBinAddr: 0x10000DEBC, symSize: 0xD0 }
  - { offset: 0x2B026, size: 0x8, addend: 0x0, symName: __ZNSt3__110__function12__value_funcIFNS_10unique_ptrI12SweetToppingNS_14default_deleteIS3_EEEEvEE9__as_baseB8ne180100EPv, symObjAddr: 0xBB2C, symBinAddr: 0x10000DF8C, symSize: 0x14 }
  - { offset: 0x2B04A, size: 0x8, addend: 0x0, symName: __ZNSt3__16vectorINS_8functionIFNS_10unique_ptrI12SweetToppingNS_14default_deleteIS3_EEEEvEEENS_9allocatorIS8_EEE21_ConstructTransactionD2B8ne180100Ev, symObjAddr: 0xBB40, symBinAddr: 0x10000DFA0, symSize: 0x20 }
  - { offset: 0x2B074, size: 0x8, addend: 0x0, symName: __ZNKSt3__16vectorINS_8functionIFNS_10unique_ptrI12SweetToppingNS_14default_deleteIS3_EEEEvEEENS_9allocatorIS8_EEE11__recommendB8ne180100Em, symObjAddr: 0xBB60, symBinAddr: 0x10000DFC0, symSize: 0xB4 }
  - { offset: 0x2B0C9, size: 0x8, addend: 0x0, symName: __ZNKSt3__16vectorINS_8functionIFNS_10unique_ptrI12SweetToppingNS_14default_deleteIS3_EEEEvEEENS_9allocatorIS8_EEE4sizeB8ne180100Ev, symObjAddr: 0xBC14, symBinAddr: 0x10000E074, symSize: 0x28 }
  - { offset: 0x2B0EF, size: 0x8, addend: 0x0, symName: __ZNSt3__114__split_bufferINS_8functionIFNS_10unique_ptrI12SweetToppingNS_14default_deleteIS3_EEEEvEEERNS_9allocatorIS8_EEEC1EmmSB_, symObjAddr: 0xBC3C, symBinAddr: 0x10000E09C, symSize: 0x44 }
  - { offset: 0x2B145, size: 0x8, addend: 0x0, symName: __ZNSt3__114__split_bufferINS_8functionIFNS_10unique_ptrI12SweetToppingNS_14default_deleteIS3_EEEEvEEERNS_9allocatorIS8_EEED1Ev, symObjAddr: 0xBD90, symBinAddr: 0x10000E1F0, symSize: 0x2C }
  - { offset: 0x2B171, size: 0x8, addend: 0x0, symName: __ZNKSt3__16vectorINS_8functionIFNS_10unique_ptrI12SweetToppingNS_14default_deleteIS3_EEEEvEEENS_9allocatorIS8_EEE8max_sizeEv, symObjAddr: 0xBDBC, symBinAddr: 0x10000E21C, symSize: 0x60 }
  - { offset: 0x2B199, size: 0x8, addend: 0x0, symName: __ZNKSt3__16vectorINS_8functionIFNS_10unique_ptrI12SweetToppingNS_14default_deleteIS3_EEEEvEEENS_9allocatorIS8_EEE20__throw_length_errorB8ne180100Ev, symObjAddr: 0xBE1C, symBinAddr: 0x10000E27C, symSize: 0x1C }
  - { offset: 0x2B1BF, size: 0x8, addend: 0x0, symName: __ZNKSt3__16vectorINS_8functionIFNS_10unique_ptrI12SweetToppingNS_14default_deleteIS3_EEEEvEEENS_9allocatorIS8_EEE8capacityB8ne180100Ev, symObjAddr: 0xBE38, symBinAddr: 0x10000E298, symSize: 0x40 }
  - { offset: 0x2B1EF, size: 0x8, addend: 0x0, symName: __ZNSt3__116allocator_traitsINS_9allocatorINS_8functionIFNS_10unique_ptrI12SweetToppingNS_14default_deleteIS4_EEEEvEEEEEE8max_sizeB8ne180100ISA_vEEmRKSA_, symObjAddr: 0xBE78, symBinAddr: 0x10000E2D8, symSize: 0x24 }
  - { offset: 0x2B21D, size: 0x8, addend: 0x0, symName: __ZNKSt3__16vectorINS_8functionIFNS_10unique_ptrI12SweetToppingNS_14default_deleteIS3_EEEEvEEENS_9allocatorIS8_EEE7__allocB8ne180100Ev, symObjAddr: 0xBE9C, symBinAddr: 0x10000E2FC, symSize: 0x28 }
  - { offset: 0x2B243, size: 0x8, addend: 0x0, symName: __ZNKSt3__19allocatorINS_8functionIFNS_10unique_ptrI12SweetToppingNS_14default_deleteIS3_EEEEvEEEE8max_sizeB8ne180100Ev, symObjAddr: 0xBEC4, symBinAddr: 0x10000E324, symSize: 0x14 }
  - { offset: 0x2B269, size: 0x8, addend: 0x0, symName: __ZNKSt3__117__compressed_pairIPNS_8functionIFNS_10unique_ptrI12SweetToppingNS_14default_deleteIS3_EEEEvEEENS_9allocatorIS8_EEE6secondB8ne180100Ev, symObjAddr: 0xBED8, symBinAddr: 0x10000E338, symSize: 0x24 }
  - { offset: 0x2B28F, size: 0x8, addend: 0x0, symName: __ZNKSt3__122__compressed_pair_elemINS_9allocatorINS_8functionIFNS_10unique_ptrI12SweetToppingNS_14default_deleteIS4_EEEEvEEEEELi1ELb1EE5__getB8ne180100Ev, symObjAddr: 0xBEFC, symBinAddr: 0x10000E35C, symSize: 0x14 }
  - { offset: 0x2B2B5, size: 0x8, addend: 0x0, symName: __ZNKSt3__16vectorINS_8functionIFNS_10unique_ptrI12SweetToppingNS_14default_deleteIS3_EEEEvEEENS_9allocatorIS8_EEE9__end_capB8ne180100Ev, symObjAddr: 0xBF10, symBinAddr: 0x10000E370, symSize: 0x28 }
  - { offset: 0x2B2DB, size: 0x8, addend: 0x0, symName: __ZNKSt3__117__compressed_pairIPNS_8functionIFNS_10unique_ptrI12SweetToppingNS_14default_deleteIS3_EEEEvEEENS_9allocatorIS8_EEE5firstB8ne180100Ev, symObjAddr: 0xBF38, symBinAddr: 0x10000E398, symSize: 0x24 }
  - { offset: 0x2B301, size: 0x8, addend: 0x0, symName: __ZNKSt3__122__compressed_pair_elemIPNS_8functionIFNS_10unique_ptrI12SweetToppingNS_14default_deleteIS3_EEEEvEEELi0ELb0EE5__getB8ne180100Ev, symObjAddr: 0xBF5C, symBinAddr: 0x10000E3BC, symSize: 0x14 }
  - { offset: 0x2B327, size: 0x8, addend: 0x0, symName: __ZNSt3__114__split_bufferINS_8functionIFNS_10unique_ptrI12SweetToppingNS_14default_deleteIS3_EEEEvEEERNS_9allocatorIS8_EEEC2EmmSB_, symObjAddr: 0xBF70, symBinAddr: 0x10000E3D0, symSize: 0xD4 }
  - { offset: 0x2B39B, size: 0x8, addend: 0x0, symName: __ZNSt3__117__compressed_pairIPNS_8functionIFNS_10unique_ptrI12SweetToppingNS_14default_deleteIS3_EEEEvEEERNS_9allocatorIS8_EEEC1B8ne180100IDnSC_EEOT_OT0_, symObjAddr: 0xC044, symBinAddr: 0x10000E4A4, symSize: 0x3C }
  - { offset: 0x2B3F3, size: 0x8, addend: 0x0, symName: __ZNSt3__114__split_bufferINS_8functionIFNS_10unique_ptrI12SweetToppingNS_14default_deleteIS3_EEEEvEEERNS_9allocatorIS8_EEE7__allocB8ne180100Ev, symObjAddr: 0xC0C0, symBinAddr: 0x10000E520, symSize: 0x28 }
  - { offset: 0x2B419, size: 0x8, addend: 0x0, symName: __ZNSt3__114__split_bufferINS_8functionIFNS_10unique_ptrI12SweetToppingNS_14default_deleteIS3_EEEEvEEERNS_9allocatorIS8_EEE9__end_capB8ne180100Ev, symObjAddr: 0xC0E8, symBinAddr: 0x10000E548, symSize: 0x28 }
  - { offset: 0x2B43F, size: 0x8, addend: 0x0, symName: __ZNSt3__117__compressed_pairIPNS_8functionIFNS_10unique_ptrI12SweetToppingNS_14default_deleteIS3_EEEEvEEERNS_9allocatorIS8_EEEC2B8ne180100IDnSC_EEOT_OT0_, symObjAddr: 0xC110, symBinAddr: 0x10000E570, symSize: 0x48 }
  - { offset: 0x2B497, size: 0x8, addend: 0x0, symName: __ZNSt3__122__compressed_pair_elemIRNS_9allocatorINS_8functionIFNS_10unique_ptrI12SweetToppingNS_14default_deleteIS4_EEEEvEEEEELi1ELb0EEC2B8ne180100ISB_vEEOT_, symObjAddr: 0xC158, symBinAddr: 0x10000E5B8, symSize: 0x20 }
  - { offset: 0x2B4D9, size: 0x8, addend: 0x0, symName: __ZNSt3__19allocatorINS_8functionIFNS_10unique_ptrI12SweetToppingNS_14default_deleteIS3_EEEEvEEEE8allocateB8ne180100Em, symObjAddr: 0xC178, symBinAddr: 0x10000E5D8, symSize: 0x58 }
  - { offset: 0x2B50D, size: 0x8, addend: 0x0, symName: __ZNSt3__117__compressed_pairIPNS_8functionIFNS_10unique_ptrI12SweetToppingNS_14default_deleteIS3_EEEEvEEERNS_9allocatorIS8_EEE6secondB8ne180100Ev, symObjAddr: 0xC1D0, symBinAddr: 0x10000E630, symSize: 0x28 }
  - { offset: 0x2B533, size: 0x8, addend: 0x0, symName: __ZNSt3__122__compressed_pair_elemIRNS_9allocatorINS_8functionIFNS_10unique_ptrI12SweetToppingNS_14default_deleteIS4_EEEEvEEEEELi1ELb0EE5__getB8ne180100Ev, symObjAddr: 0xC1F8, symBinAddr: 0x10000E658, symSize: 0x18 }
  - { offset: 0x2B559, size: 0x8, addend: 0x0, symName: __ZNSt3__117__compressed_pairIPNS_8functionIFNS_10unique_ptrI12SweetToppingNS_14default_deleteIS3_EEEEvEEERNS_9allocatorIS8_EEE5firstB8ne180100Ev, symObjAddr: 0xC210, symBinAddr: 0x10000E670, symSize: 0x24 }
  - { offset: 0x2B57F, size: 0x8, addend: 0x0, symName: __ZNKSt3__16vectorINS_8functionIFNS_10unique_ptrI12SweetToppingNS_14default_deleteIS3_EEEEvEEENS_9allocatorIS8_EEE17__annotate_deleteB8ne180100Ev, symObjAddr: 0xC234, symBinAddr: 0x10000E694, symSize: 0x10 }
  - { offset: 0x2B5A5, size: 0x8, addend: 0x0, symName: __ZNSt3__116reverse_iteratorIPNS_8functionIFNS_10unique_ptrI12SweetToppingNS_14default_deleteIS3_EEEEvEEEEC1B8ne180100ES9_, symObjAddr: 0xC370, symBinAddr: 0x10000E7D0, symSize: 0x34 }
  - { offset: 0x2B5DD, size: 0x8, addend: 0x0, symName: __ZNKSt3__116reverse_iteratorIPNS_8functionIFNS_10unique_ptrI12SweetToppingNS_14default_deleteIS3_EEEEvEEEE4baseB8ne180100Ev, symObjAddr: 0xC3A4, symBinAddr: 0x10000E804, symSize: 0x18 }
  - { offset: 0x2B603, size: 0x8, addend: 0x0, symName: __ZNKSt3__16vectorINS_8functionIFNS_10unique_ptrI12SweetToppingNS_14default_deleteIS3_EEEEvEEENS_9allocatorIS8_EEE14__annotate_newB8ne180100Em, symObjAddr: 0xC3F8, symBinAddr: 0x10000E858, symSize: 0x14 }
  - { offset: 0x2B638, size: 0x8, addend: 0x0, symName: __ZNSt3__129_AllocatorDestroyRangeReverseINS_9allocatorINS_8functionIFNS_10unique_ptrI12SweetToppingNS_14default_deleteIS4_EEEEvEEEEENS_16reverse_iteratorIPS9_EEEC1B8ne180100ERSA_RSD_SG_, symObjAddr: 0xC458, symBinAddr: 0x10000E8B8, symSize: 0x44 }
  - { offset: 0x2B68F, size: 0x8, addend: 0x0, symName: __ZNKSt3__116reverse_iteratorIPNS_8functionIFNS_10unique_ptrI12SweetToppingNS_14default_deleteIS3_EEEEvEEEEdeB8ne180100Ev, symObjAddr: 0xC508, symBinAddr: 0x10000E968, symSize: 0x28 }
  - { offset: 0x2B6C3, size: 0x8, addend: 0x0, symName: __ZNSt3__116reverse_iteratorIPNS_8functionIFNS_10unique_ptrI12SweetToppingNS_14default_deleteIS3_EEEEvEEEEppB8ne180100Ev, symObjAddr: 0xC530, symBinAddr: 0x10000E990, symSize: 0x20 }
  - { offset: 0x2B6E9, size: 0x8, addend: 0x0, symName: __ZNSt3__128__exception_guard_exceptionsINS_29_AllocatorDestroyRangeReverseINS_9allocatorINS_8functionIFNS_10unique_ptrI12SweetToppingNS_14default_deleteIS5_EEEEvEEEEENS_16reverse_iteratorIPSA_EEEEE10__completeB8ne180100Ev, symObjAddr: 0xC550, symBinAddr: 0x10000E9B0, symSize: 0x1C }
  - { offset: 0x2B70F, size: 0x8, addend: 0x0, symName: __ZNSt3__128__exception_guard_exceptionsINS_29_AllocatorDestroyRangeReverseINS_9allocatorINS_8functionIFNS_10unique_ptrI12SweetToppingNS_14default_deleteIS5_EEEEvEEEEENS_16reverse_iteratorIPSA_EEEEED1B8ne180100Ev, symObjAddr: 0xC56C, symBinAddr: 0x10000E9CC, symSize: 0x2C }
  - { offset: 0x2B739, size: 0x8, addend: 0x0, symName: __ZNSt3__128__exception_guard_exceptionsINS_29_AllocatorDestroyRangeReverseINS_9allocatorINS_8functionIFNS_10unique_ptrI12SweetToppingNS_14default_deleteIS5_EEEEvEEEEENS_16reverse_iteratorIPSA_EEEEEC1B8ne180100ESF_, symObjAddr: 0xC598, symBinAddr: 0x10000E9F8, symSize: 0x34 }
  - { offset: 0x2B772, size: 0x8, addend: 0x0, symName: __ZNSt3__128__exception_guard_exceptionsINS_29_AllocatorDestroyRangeReverseINS_9allocatorINS_8functionIFNS_10unique_ptrI12SweetToppingNS_14default_deleteIS5_EEEEvEEEEENS_16reverse_iteratorIPSA_EEEEEC2B8ne180100ESF_, symObjAddr: 0xC5CC, symBinAddr: 0x10000EA2C, symSize: 0x30 }
  - { offset: 0x2B7AB, size: 0x8, addend: 0x0, symName: __ZNSt3__129_AllocatorDestroyRangeReverseINS_9allocatorINS_8functionIFNS_10unique_ptrI12SweetToppingNS_14default_deleteIS4_EEEEvEEEEENS_16reverse_iteratorIPS9_EEEC2B8ne180100ERSA_RSD_SG_, symObjAddr: 0xC5FC, symBinAddr: 0x10000EA5C, symSize: 0x38 }
  - { offset: 0x2B807, size: 0x8, addend: 0x0, symName: __ZNSt3__119__to_address_helperINS_16reverse_iteratorIPNS_8functionIFNS_10unique_ptrI12SweetToppingNS_14default_deleteIS4_EEEEvEEEEEvE6__callB8ne180100ERKSB_, symObjAddr: 0xC634, symBinAddr: 0x10000EA94, symSize: 0x38 }
  - { offset: 0x2B82A, size: 0x8, addend: 0x0, symName: __ZNKSt3__116reverse_iteratorIPNS_8functionIFNS_10unique_ptrI12SweetToppingNS_14default_deleteIS3_EEEEvEEEEptB8ne180100Ev, symObjAddr: 0xC66C, symBinAddr: 0x10000EACC, symSize: 0x24 }
  - { offset: 0x2B850, size: 0x8, addend: 0x0, symName: __ZNSt3__128__exception_guard_exceptionsINS_29_AllocatorDestroyRangeReverseINS_9allocatorINS_8functionIFNS_10unique_ptrI12SweetToppingNS_14default_deleteIS5_EEEEvEEEEENS_16reverse_iteratorIPSA_EEEEED2B8ne180100Ev, symObjAddr: 0xC690, symBinAddr: 0x10000EAF0, symSize: 0x50 }
  - { offset: 0x2B87A, size: 0x8, addend: 0x0, symName: __ZNKSt3__129_AllocatorDestroyRangeReverseINS_9allocatorINS_8functionIFNS_10unique_ptrI12SweetToppingNS_14default_deleteIS4_EEEEvEEEEENS_16reverse_iteratorIPS9_EEEclB8ne180100Ev, symObjAddr: 0xC6E0, symBinAddr: 0x10000EB40, symSize: 0xB4 }
  - { offset: 0x2B8A1, size: 0x8, addend: 0x0, symName: __ZNSt3__116reverse_iteratorINS0_IPNS_8functionIFNS_10unique_ptrI12SweetToppingNS_14default_deleteIS3_EEEEvEEEEEEC1B8ne180100ESA_, symObjAddr: 0xC804, symBinAddr: 0x10000EC64, symSize: 0x3C }
  - { offset: 0x2B8D9, size: 0x8, addend: 0x0, symName: __ZNSt3__116allocator_traitsINS_9allocatorINS_8functionIFNS_10unique_ptrI12SweetToppingNS_14default_deleteIS4_EEEEvEEEEEE7destroyB8ne180100IS9_vEEvRSA_PT_, symObjAddr: 0xC8A0, symBinAddr: 0x10000ED00, symSize: 0x2C }
  - { offset: 0x2B916, size: 0x8, addend: 0x0, symName: __ZNSt3__116reverse_iteratorINS0_IPNS_8functionIFNS_10unique_ptrI12SweetToppingNS_14default_deleteIS3_EEEEvEEEEEEppB8ne180100Ev, symObjAddr: 0xC8F0, symBinAddr: 0x10000ED50, symSize: 0x30 }
  - { offset: 0x2B93C, size: 0x8, addend: 0x0, symName: __ZNKSt3__116reverse_iteratorINS0_IPNS_8functionIFNS_10unique_ptrI12SweetToppingNS_14default_deleteIS3_EEEEvEEEEEE4baseB8ne180100Ev, symObjAddr: 0xC920, symBinAddr: 0x10000ED80, symSize: 0x24 }
  - { offset: 0x2B962, size: 0x8, addend: 0x0, symName: __ZNSt3__19allocatorINS_8functionIFNS_10unique_ptrI12SweetToppingNS_14default_deleteIS3_EEEEvEEEE7destroyB8ne180100EPS8_, symObjAddr: 0xC944, symBinAddr: 0x10000EDA4, symSize: 0x28 }
  - { offset: 0x2B99B, size: 0x8, addend: 0x0, symName: __ZNSt3__119__to_address_helperINS_16reverse_iteratorINS1_IPNS_8functionIFNS_10unique_ptrI12SweetToppingNS_14default_deleteIS4_EEEEvEEEEEEEvE6__callB8ne180100ERKSC_, symObjAddr: 0xC96C, symBinAddr: 0x10000EDCC, symSize: 0x38 }
  - { offset: 0x2B9BE, size: 0x8, addend: 0x0, symName: __ZNKSt3__116reverse_iteratorINS0_IPNS_8functionIFNS_10unique_ptrI12SweetToppingNS_14default_deleteIS3_EEEEvEEEEEEptB8ne180100Ev, symObjAddr: 0xC9A4, symBinAddr: 0x10000EE04, symSize: 0x24 }
  - { offset: 0x2B9E4, size: 0x8, addend: 0x0, symName: __ZNKSt3__116reverse_iteratorINS0_IPNS_8functionIFNS_10unique_ptrI12SweetToppingNS_14default_deleteIS3_EEEEvEEEEEEdeB8ne180100Ev, symObjAddr: 0xC9C8, symBinAddr: 0x10000EE28, symSize: 0x34 }
  - { offset: 0x2BA18, size: 0x8, addend: 0x0, symName: __ZNSt3__116reverse_iteratorIPNS_8functionIFNS_10unique_ptrI12SweetToppingNS_14default_deleteIS3_EEEEvEEEEmmB8ne180100Ev, symObjAddr: 0xC9FC, symBinAddr: 0x10000EE5C, symSize: 0x20 }
  - { offset: 0x2BA3E, size: 0x8, addend: 0x0, symName: __ZNSt3__116reverse_iteratorINS0_IPNS_8functionIFNS_10unique_ptrI12SweetToppingNS_14default_deleteIS3_EEEEvEEEEEEC2B8ne180100ESA_, symObjAddr: 0xCA1C, symBinAddr: 0x10000EE7C, symSize: 0x2C }
  - { offset: 0x2BA76, size: 0x8, addend: 0x0, symName: __ZNSt3__116reverse_iteratorIPNS_8functionIFNS_10unique_ptrI12SweetToppingNS_14default_deleteIS3_EEEEvEEEEC2B8ne180100ES9_, symObjAddr: 0xCA48, symBinAddr: 0x10000EEA8, symSize: 0x28 }
  - { offset: 0x2BAAE, size: 0x8, addend: 0x0, symName: __ZNSt3__114__split_bufferINS_8functionIFNS_10unique_ptrI12SweetToppingNS_14default_deleteIS3_EEEEvEEERNS_9allocatorIS8_EEED2Ev, symObjAddr: 0xCA70, symBinAddr: 0x10000EED0, symSize: 0x8C }
  - { offset: 0x2BADA, size: 0x8, addend: 0x0, symName: __ZNSt3__114__split_bufferINS_8functionIFNS_10unique_ptrI12SweetToppingNS_14default_deleteIS3_EEEEvEEERNS_9allocatorIS8_EEE5clearB8ne180100Ev, symObjAddr: 0xCAFC, symBinAddr: 0x10000EF5C, symSize: 0x28 }
  - { offset: 0x2BB00, size: 0x8, addend: 0x0, symName: __ZNSt3__116allocator_traitsINS_9allocatorINS_8functionIFNS_10unique_ptrI12SweetToppingNS_14default_deleteIS4_EEEEvEEEEEE10deallocateB8ne180100ERSA_PS9_m, symObjAddr: 0xCB24, symBinAddr: 0x10000EF84, symSize: 0x34 }
  - { offset: 0x2BB42, size: 0x8, addend: 0x0, symName: __ZNKSt3__114__split_bufferINS_8functionIFNS_10unique_ptrI12SweetToppingNS_14default_deleteIS3_EEEEvEEERNS_9allocatorIS8_EEE8capacityB8ne180100Ev, symObjAddr: 0xCB58, symBinAddr: 0x10000EFB8, symSize: 0x40 }
  - { offset: 0x2BB68, size: 0x8, addend: 0x0, symName: __ZNSt3__114__split_bufferINS_8functionIFNS_10unique_ptrI12SweetToppingNS_14default_deleteIS3_EEEEvEEERNS_9allocatorIS8_EEE17__destruct_at_endB8ne180100EPS8_, symObjAddr: 0xCB98, symBinAddr: 0x10000EFF8, symSize: 0x2C }
  - { offset: 0x2BB9C, size: 0x8, addend: 0x0, symName: __ZNSt3__114__split_bufferINS_8functionIFNS_10unique_ptrI12SweetToppingNS_14default_deleteIS3_EEEEvEEERNS_9allocatorIS8_EEE17__destruct_at_endB8ne180100EPS8_NS_17integral_constantIbLb0EEE, symObjAddr: 0xCBC4, symBinAddr: 0x10000F024, symSize: 0x80 }
  - { offset: 0x2BBDC, size: 0x8, addend: 0x0, symName: __ZNSt3__19allocatorINS_8functionIFNS_10unique_ptrI12SweetToppingNS_14default_deleteIS3_EEEEvEEEE10deallocateB8ne180100EPS8_m, symObjAddr: 0xCC44, symBinAddr: 0x10000F0A4, symSize: 0x40 }
  - { offset: 0x2BC1E, size: 0x8, addend: 0x0, symName: __ZNKSt3__114__split_bufferINS_8functionIFNS_10unique_ptrI12SweetToppingNS_14default_deleteIS3_EEEEvEEERNS_9allocatorIS8_EEE9__end_capB8ne180100Ev, symObjAddr: 0xCC84, symBinAddr: 0x10000F0E4, symSize: 0x28 }
  - { offset: 0x2BC44, size: 0x8, addend: 0x0, symName: __ZNKSt3__117__compressed_pairIPNS_8functionIFNS_10unique_ptrI12SweetToppingNS_14default_deleteIS3_EEEEvEEERNS_9allocatorIS8_EEE5firstB8ne180100Ev, symObjAddr: 0xCCAC, symBinAddr: 0x10000F10C, symSize: 0x24 }
  - { offset: 0x2BC6A, size: 0x8, addend: 0x0, symName: __ZNSt3__18functionIFNS_10unique_ptrI12SweetToppingNS_14default_deleteIS2_EEEEvEEC2IZN11ToppingListC1EvEUlvE1_vEET_, symObjAddr: 0xCCD0, symBinAddr: 0x10000F130, symSize: 0x30 }
  - { offset: 0x2BCAF, size: 0x8, addend: 0x0, symName: __ZNSt3__110__function12__value_funcIFNS_10unique_ptrI12SweetToppingNS_14default_deleteIS3_EEEEvEEC1B8ne180100IZN11ToppingListC1EvEUlvE1_Li0EEEOT_, symObjAddr: 0xCD00, symBinAddr: 0x10000F160, symSize: 0x50 }
  - { offset: 0x2BCF7, size: 0x8, addend: 0x0, symName: __ZNSt3__19allocatorIZN11ToppingListC1EvEUlvE1_EC1B8ne180100Ev, symObjAddr: 0xCD50, symBinAddr: 0x10000F1B0, symSize: 0x2C }
  - { offset: 0x2BD21, size: 0x8, addend: 0x0, symName: __ZNSt3__110__function12__value_funcIFNS_10unique_ptrI12SweetToppingNS_14default_deleteIS3_EEEEvEEC1B8ne180100IZN11ToppingListC1EvEUlvE1_NS_9allocatorISB_EEEEOT_RKT0_, symObjAddr: 0xCD7C, symBinAddr: 0x10000F1DC, symSize: 0x3C }
  - { offset: 0x2BD7B, size: 0x8, addend: 0x0, symName: __ZNSt3__19allocatorIZN11ToppingListC1EvEUlvE1_EC2B8ne180100Ev, symObjAddr: 0xCDB8, symBinAddr: 0x10000F218, symSize: 0x2C }
  - { offset: 0x2BDA5, size: 0x8, addend: 0x0, symName: __ZNSt3__116__non_trivial_ifILb1ENS_9allocatorIZN11ToppingListC1EvEUlvE1_EEEC2B8ne180100Ev, symObjAddr: 0xCDE4, symBinAddr: 0x10000F244, symSize: 0x14 }
  - { offset: 0x2BDCF, size: 0x8, addend: 0x0, symName: __ZNSt3__110__function12__value_funcIFNS_10unique_ptrI12SweetToppingNS_14default_deleteIS3_EEEEvEEC2B8ne180100IZN11ToppingListC1EvEUlvE1_NS_9allocatorISB_EEEEOT_RKT0_, symObjAddr: 0xCDF8, symBinAddr: 0x10000F258, symSize: 0x94 }
  - { offset: 0x2BE76, size: 0x8, addend: 0x0, symName: __ZNSt3__19allocatorINS_10__function6__funcIZN11ToppingListC1EvEUlvE1_NS0_IS4_EEFNS_10unique_ptrI12SweetToppingNS_14default_deleteIS7_EEEEvEEEEC1B8ne180100IS4_EERKNS0_IT_EE, symObjAddr: 0xCEA4, symBinAddr: 0x10000F304, symSize: 0x34 }
  - { offset: 0x2BEB8, size: 0x8, addend: 0x0, symName: __ZNSt3__19allocatorIZN11ToppingListC1EvEUlvE1_EC1B8ne180100INS_10__function6__funcIS2_S3_FNS_10unique_ptrI12SweetToppingNS_14default_deleteIS8_EEEEvEEEEERKNS0_IT_EE, symObjAddr: 0xCED8, symBinAddr: 0x10000F338, symSize: 0x34 }
  - { offset: 0x2BEF5, size: 0x8, addend: 0x0, symName: __ZNSt3__110__function6__funcIZN11ToppingListC1EvEUlvE1_NS_9allocatorIS3_EEFNS_10unique_ptrI12SweetToppingNS_14default_deleteIS7_EEEEvEEC1B8ne180100EOS3_OS5_, symObjAddr: 0xCF0C, symBinAddr: 0x10000F36C, symSize: 0x3C }
  - { offset: 0x2BF3D, size: 0x8, addend: 0x0, symName: __ZNSt3__19allocatorINS_10__function6__funcIZN11ToppingListC1EvEUlvE1_NS0_IS4_EEFNS_10unique_ptrI12SweetToppingNS_14default_deleteIS7_EEEEvEEEEC2B8ne180100IS4_EERKNS0_IT_EE, symObjAddr: 0xCF48, symBinAddr: 0x10000F3A8, symSize: 0x30 }
  - { offset: 0x2BF7A, size: 0x8, addend: 0x0, symName: __ZNSt3__116__non_trivial_ifILb1ENS_9allocatorINS_10__function6__funcIZN11ToppingListC1EvEUlvE1_NS1_IS5_EEFNS_10unique_ptrI12SweetToppingNS_14default_deleteIS8_EEEEvEEEEEEC2B8ne180100Ev, symObjAddr: 0xCF78, symBinAddr: 0x10000F3D8, symSize: 0x14 }
  - { offset: 0x2BFA4, size: 0x8, addend: 0x0, symName: __ZNSt3__19allocatorIZN11ToppingListC1EvEUlvE1_EC2B8ne180100INS_10__function6__funcIS2_S3_FNS_10unique_ptrI12SweetToppingNS_14default_deleteIS8_EEEEvEEEEERKNS0_IT_EE, symObjAddr: 0xCF8C, symBinAddr: 0x10000F3EC, symSize: 0x30 }
  - { offset: 0x2BFE1, size: 0x8, addend: 0x0, symName: __ZNSt3__110__function6__funcIZN11ToppingListC1EvEUlvE1_NS_9allocatorIS3_EEFNS_10unique_ptrI12SweetToppingNS_14default_deleteIS7_EEEEvEEC2B8ne180100EOS3_OS5_, symObjAddr: 0xCFBC, symBinAddr: 0x10000F41C, symSize: 0x80 }
  - { offset: 0x2C029, size: 0x8, addend: 0x0, symName: __ZNSt3__110__function6__baseIFNS_10unique_ptrI12SweetToppingNS_14default_deleteIS3_EEEEvEEC2B8ne180100Ev, symObjAddr: 0xD03C, symBinAddr: 0x10000F49C, symSize: 0x24 }
  - { offset: 0x2C053, size: 0x8, addend: 0x0, symName: __ZNSt3__110__function12__alloc_funcIZN11ToppingListC1EvEUlvE1_NS_9allocatorIS3_EEFNS_10unique_ptrI12SweetToppingNS_14default_deleteIS7_EEEEvEEC1B8ne180100EOS3_OS5_, symObjAddr: 0xD060, symBinAddr: 0x10000F4C0, symSize: 0x3C }
  - { offset: 0x2C099, size: 0x8, addend: 0x0, symName: __ZNSt3__110__function6__baseIFNS_10unique_ptrI12SweetToppingNS_14default_deleteIS3_EEEEvEED2Ev, symObjAddr: 0xD09C, symBinAddr: 0x10000F4FC, symSize: 0x14 }
  - { offset: 0x2C0C3, size: 0x8, addend: 0x0, symName: __ZNSt3__110__function6__funcIZN11ToppingListC1EvEUlvE1_NS_9allocatorIS3_EEFNS_10unique_ptrI12SweetToppingNS_14default_deleteIS7_EEEEvEED1Ev, symObjAddr: 0xD0B0, symBinAddr: 0x10000F510, symSize: 0x2C }
  - { offset: 0x2C0EF, size: 0x8, addend: 0x0, symName: __ZNSt3__110__function6__funcIZN11ToppingListC1EvEUlvE1_NS_9allocatorIS3_EEFNS_10unique_ptrI12SweetToppingNS_14default_deleteIS7_EEEEvEED0Ev, symObjAddr: 0xD0DC, symBinAddr: 0x10000F53C, symSize: 0x30 }
  - { offset: 0x2C11B, size: 0x8, addend: 0x0, symName: __ZNKSt3__110__function6__funcIZN11ToppingListC1EvEUlvE1_NS_9allocatorIS3_EEFNS_10unique_ptrI12SweetToppingNS_14default_deleteIS7_EEEEvEE7__cloneEv, symObjAddr: 0xD10C, symBinAddr: 0x10000F56C, symSize: 0xFC }
  - { offset: 0x2C16D, size: 0x8, addend: 0x0, symName: __ZNKSt3__110__function6__funcIZN11ToppingListC1EvEUlvE1_NS_9allocatorIS3_EEFNS_10unique_ptrI12SweetToppingNS_14default_deleteIS7_EEEEvEE7__cloneEPNS0_6__baseISB_EE, symObjAddr: 0xD208, symBinAddr: 0x10000F668, symSize: 0x58 }
  - { offset: 0x2C1A4, size: 0x8, addend: 0x0, symName: __ZNSt3__110__function6__funcIZN11ToppingListC1EvEUlvE1_NS_9allocatorIS3_EEFNS_10unique_ptrI12SweetToppingNS_14default_deleteIS7_EEEEvEE7destroyEv, symObjAddr: 0xD260, symBinAddr: 0x10000F6C0, symSize: 0x28 }
  - { offset: 0x2C1CC, size: 0x8, addend: 0x0, symName: __ZNSt3__110__function6__funcIZN11ToppingListC1EvEUlvE1_NS_9allocatorIS3_EEFNS_10unique_ptrI12SweetToppingNS_14default_deleteIS7_EEEEvEE18destroy_deallocateEv, symObjAddr: 0xD288, symBinAddr: 0x10000F6E8, symSize: 0x58 }
  - { offset: 0x2C20F, size: 0x8, addend: 0x0, symName: __ZNSt3__110__function6__funcIZN11ToppingListC1EvEUlvE1_NS_9allocatorIS3_EEFNS_10unique_ptrI12SweetToppingNS_14default_deleteIS7_EEEEvEEclEv, symObjAddr: 0xD2E0, symBinAddr: 0x10000F740, symSize: 0x30 }
  - { offset: 0x2C237, size: 0x8, addend: 0x0, symName: __ZNKSt3__110__function6__funcIZN11ToppingListC1EvEUlvE1_NS_9allocatorIS3_EEFNS_10unique_ptrI12SweetToppingNS_14default_deleteIS7_EEEEvEE6targetERKSt9type_info, symObjAddr: 0xD310, symBinAddr: 0x10000F770, symSize: 0x60 }
  - { offset: 0x2C26E, size: 0x8, addend: 0x0, symName: __ZNKSt3__110__function6__funcIZN11ToppingListC1EvEUlvE1_NS_9allocatorIS3_EEFNS_10unique_ptrI12SweetToppingNS_14default_deleteIS7_EEEEvEE11target_typeEv, symObjAddr: 0xD370, symBinAddr: 0x10000F7D0, symSize: 0x18 }
  - { offset: 0x2C296, size: 0x8, addend: 0x0, symName: __ZNSt3__110__function6__baseIFNS_10unique_ptrI12SweetToppingNS_14default_deleteIS3_EEEEvEED1Ev, symObjAddr: 0xD388, symBinAddr: 0x10000F7E8, symSize: 0x14 }
  - { offset: 0x2C2C0, size: 0x8, addend: 0x0, symName: __ZNSt3__110__function6__baseIFNS_10unique_ptrI12SweetToppingNS_14default_deleteIS3_EEEEvEED0Ev, symObjAddr: 0xD39C, symBinAddr: 0x10000F7FC, symSize: 0xC }
  - { offset: 0x2C2EA, size: 0x8, addend: 0x0, symName: __ZNSt3__110__function12__alloc_funcIZN11ToppingListC1EvEUlvE1_NS_9allocatorIS3_EEFNS_10unique_ptrI12SweetToppingNS_14default_deleteIS7_EEEEvEEC2B8ne180100EOS3_OS5_, symObjAddr: 0xD3A8, symBinAddr: 0x10000F808, symSize: 0x5C }
  - { offset: 0x2C330, size: 0x8, addend: 0x0, symName: __ZNSt3__117__compressed_pairIZN11ToppingListC1EvEUlvE1_NS_9allocatorIS2_EEEC1B8ne180100IJOS2_EJOS4_EEENS_21piecewise_construct_tENS_5tupleIJDpT_EEENSA_IJDpT0_EEE, symObjAddr: 0xD45C, symBinAddr: 0x10000F8BC, symSize: 0x3C }
  - { offset: 0x2C39A, size: 0x8, addend: 0x0, symName: __ZNSt3__15tupleIJOZN11ToppingListC1EvEUlvE1_EEC1B8ne180100IJS2_ELi0EEEDpOT_, symObjAddr: 0xD498, symBinAddr: 0x10000F8F8, symSize: 0x34 }
  - { offset: 0x2C3E4, size: 0x8, addend: 0x0, symName: __ZNSt3__15tupleIJOZN11ToppingListC1EvEUlvE1_EEC2B8ne180100IJS2_ELi0EEEDpOT_, symObjAddr: 0xD4CC, symBinAddr: 0x10000F92C, symSize: 0x34 }
  - { offset: 0x2C42E, size: 0x8, addend: 0x0, symName: __ZNSt3__112__tuple_implINS_15__tuple_indicesIJLm0EEEEJOZN11ToppingListC1EvEUlvE1_EEC1B8ne180100IJLm0EEJS5_EJEJEJS4_EEENS1_IJXspT_EEEENS_13__tuple_typesIJDpT0_EEENS1_IJXspT1_EEEENS9_IJDpT2_EEEDpOT3_, symObjAddr: 0xD500, symBinAddr: 0x10000F960, symSize: 0x34 }
  - { offset: 0x2C4C3, size: 0x8, addend: 0x0, symName: __ZNSt3__112__tuple_implINS_15__tuple_indicesIJLm0EEEEJOZN11ToppingListC1EvEUlvE1_EEC2B8ne180100IJLm0EEJS5_EJEJEJS4_EEENS1_IJXspT_EEEENS_13__tuple_typesIJDpT0_EEENS1_IJXspT1_EEEENS9_IJDpT2_EEEDpOT3_, symObjAddr: 0xD534, symBinAddr: 0x10000F994, symSize: 0x34 }
  - { offset: 0x2C558, size: 0x8, addend: 0x0, symName: __ZNSt3__112__tuple_leafILm0EOZN11ToppingListC1EvEUlvE1_Lb0EEC2B8ne180100IS2_vEEOT_, symObjAddr: 0xD568, symBinAddr: 0x10000F9C8, symSize: 0x20 }
  - { offset: 0x2C59B, size: 0x8, addend: 0x0, symName: __ZNSt3__15tupleIJONS_9allocatorIZN11ToppingListC1EvEUlvE1_EEEEC1B8ne180100IJS4_ELi0EEEDpOT_, symObjAddr: 0xD588, symBinAddr: 0x10000F9E8, symSize: 0x34 }
  - { offset: 0x2C5E5, size: 0x8, addend: 0x0, symName: __ZNSt3__15tupleIJONS_9allocatorIZN11ToppingListC1EvEUlvE1_EEEEC2B8ne180100IJS4_ELi0EEEDpOT_, symObjAddr: 0xD5BC, symBinAddr: 0x10000FA1C, symSize: 0x34 }
  - { offset: 0x2C62F, size: 0x8, addend: 0x0, symName: __ZNSt3__112__tuple_implINS_15__tuple_indicesIJLm0EEEEJONS_9allocatorIZN11ToppingListC1EvEUlvE1_EEEEC1B8ne180100IJLm0EEJS7_EJEJEJS6_EEENS1_IJXspT_EEEENS_13__tuple_typesIJDpT0_EEENS1_IJXspT1_EEEENSB_IJDpT2_EEEDpOT3_, symObjAddr: 0xD5F0, symBinAddr: 0x10000FA50, symSize: 0x34 }
  - { offset: 0x2C6C4, size: 0x8, addend: 0x0, symName: __ZNSt3__112__tuple_implINS_15__tuple_indicesIJLm0EEEEJONS_9allocatorIZN11ToppingListC1EvEUlvE1_EEEEC2B8ne180100IJLm0EEJS7_EJEJEJS6_EEENS1_IJXspT_EEEENS_13__tuple_typesIJDpT0_EEENS1_IJXspT1_EEEENSB_IJDpT2_EEEDpOT3_, symObjAddr: 0xD624, symBinAddr: 0x10000FA84, symSize: 0x34 }
  - { offset: 0x2C759, size: 0x8, addend: 0x0, symName: __ZNSt3__112__tuple_leafILm0EONS_9allocatorIZN11ToppingListC1EvEUlvE1_EELb0EEC2B8ne180100IS4_vEEOT_, symObjAddr: 0xD658, symBinAddr: 0x10000FAB8, symSize: 0x20 }
  - { offset: 0x2C79C, size: 0x8, addend: 0x0, symName: __ZNSt3__117__compressed_pairIZN11ToppingListC1EvEUlvE1_NS_9allocatorIS2_EEEC2B8ne180100IJOS2_EJOS4_EEENS_21piecewise_construct_tENS_5tupleIJDpT_EEENSA_IJDpT0_EEE, symObjAddr: 0xD678, symBinAddr: 0x10000FAD8, symSize: 0x54 }
  - { offset: 0x2C806, size: 0x8, addend: 0x0, symName: __ZNSt3__122__compressed_pair_elemIZN11ToppingListC1EvEUlvE1_Li0ELb1EEC2B8ne180100IJOS2_EJLm0EEEENS_21piecewise_construct_tENS_5tupleIJDpT_EEENS_15__tuple_indicesIJXspT0_EEEE, symObjAddr: 0xD6CC, symBinAddr: 0x10000FB2C, symSize: 0x38 }
  - { offset: 0x2C869, size: 0x8, addend: 0x0, symName: __ZNSt3__122__compressed_pair_elemINS_9allocatorIZN11ToppingListC1EvEUlvE1_EELi1ELb1EEC2B8ne180100IJOS4_EJLm0EEEENS_21piecewise_construct_tENS_5tupleIJDpT_EEENS_15__tuple_indicesIJXspT0_EEEE, symObjAddr: 0xD704, symBinAddr: 0x10000FB64, symSize: 0x38 }
  - { offset: 0x2C8CC, size: 0x8, addend: 0x0, symName: __ZNSt3__112__tuple_leafILm0EOZN11ToppingListC1EvEUlvE1_Lb0EE3getB8ne180100Ev, symObjAddr: 0xD760, symBinAddr: 0x10000FBC0, symSize: 0x18 }
  - { offset: 0x2C8F2, size: 0x8, addend: 0x0, symName: __ZNSt3__112__tuple_leafILm0EONS_9allocatorIZN11ToppingListC1EvEUlvE1_EELb0EE3getB8ne180100Ev, symObjAddr: 0xD79C, symBinAddr: 0x10000FBFC, symSize: 0x18 }
  - { offset: 0x2C918, size: 0x8, addend: 0x0, symName: __ZNSt3__110__function6__funcIZN11ToppingListC1EvEUlvE1_NS_9allocatorIS3_EEFNS_10unique_ptrI12SweetToppingNS_14default_deleteIS7_EEEEvEED2Ev, symObjAddr: 0xD7B4, symBinAddr: 0x10000FC14, symSize: 0x2C }
  - { offset: 0x2C944, size: 0x8, addend: 0x0, symName: __ZNKSt3__110__function12__alloc_funcIZN11ToppingListC1EvEUlvE1_NS_9allocatorIS3_EEFNS_10unique_ptrI12SweetToppingNS_14default_deleteIS7_EEEEvEE15__get_allocatorB8ne180100Ev, symObjAddr: 0xD7E0, symBinAddr: 0x10000FC40, symSize: 0x24 }
  - { offset: 0x2C96A, size: 0x8, addend: 0x0, symName: __ZNSt3__19allocatorINS_10__function6__funcIZN11ToppingListC1EvEUlvE1_NS0_IS4_EEFNS_10unique_ptrI12SweetToppingNS_14default_deleteIS7_EEEEvEEEE8allocateB8ne180100Em, symObjAddr: 0xD804, symBinAddr: 0x10000FC64, symSize: 0x58 }
  - { offset: 0x2C9AD, size: 0x8, addend: 0x0, symName: __ZNSt3__122__allocator_destructorINS_9allocatorINS_10__function6__funcIZN11ToppingListC1EvEUlvE1_NS1_IS5_EEFNS_10unique_ptrI12SweetToppingNS_14default_deleteIS8_EEEEvEEEEEEC1B8ne180100ERSE_m, symObjAddr: 0xD85C, symBinAddr: 0x10000FCBC, symSize: 0x3C }
  - { offset: 0x2CA81, size: 0x8, addend: 0x0, symName: __ZNSt3__110unique_ptrINS_10__function6__funcIZN11ToppingListC1EvEUlvE1_NS_9allocatorIS4_EEFNS0_I12SweetToppingNS_14default_deleteIS7_EEEEvEEENS_22__allocator_destructorINS5_ISC_EEEEEC1B8ne180100ILb1EvEEPSC_NS_16__dependent_typeINS_27__unique_ptr_deleter_sfinaeISF_EEXT_EE20__good_rval_ref_typeE, symObjAddr: 0xD898, symBinAddr: 0x10000FCF8, symSize: 0x3C }
  - { offset: 0x2CAD2, size: 0x8, addend: 0x0, symName: __ZNKSt3__110unique_ptrINS_10__function6__funcIZN11ToppingListC1EvEUlvE1_NS_9allocatorIS4_EEFNS0_I12SweetToppingNS_14default_deleteIS7_EEEEvEEENS_22__allocator_destructorINS5_ISC_EEEEE3getB8ne180100Ev, symObjAddr: 0xD8D4, symBinAddr: 0x10000FD34, symSize: 0x28 }
  - { offset: 0x2CAF8, size: 0x8, addend: 0x0, symName: __ZNKSt3__110__function12__alloc_funcIZN11ToppingListC1EvEUlvE1_NS_9allocatorIS3_EEFNS_10unique_ptrI12SweetToppingNS_14default_deleteIS7_EEEEvEE8__targetB8ne180100Ev, symObjAddr: 0xD8FC, symBinAddr: 0x10000FD5C, symSize: 0x24 }
  - { offset: 0x2CB1E, size: 0x8, addend: 0x0, symName: __ZNSt3__110__function6__funcIZN11ToppingListC1EvEUlvE1_NS_9allocatorIS3_EEFNS_10unique_ptrI12SweetToppingNS_14default_deleteIS7_EEEEvEEC1B8ne180100ERKS3_OS5_, symObjAddr: 0xD920, symBinAddr: 0x10000FD80, symSize: 0x3C }
  - { offset: 0x2CB66, size: 0x8, addend: 0x0, symName: __ZNSt3__110unique_ptrINS_10__function6__funcIZN11ToppingListC1EvEUlvE1_NS_9allocatorIS4_EEFNS0_I12SweetToppingNS_14default_deleteIS7_EEEEvEEENS_22__allocator_destructorINS5_ISC_EEEEE7releaseB8ne180100Ev, symObjAddr: 0xD95C, symBinAddr: 0x10000FDBC, symSize: 0x44 }
  - { offset: 0x2CB9B, size: 0x8, addend: 0x0, symName: __ZNSt3__110unique_ptrINS_10__function6__funcIZN11ToppingListC1EvEUlvE1_NS_9allocatorIS4_EEFNS0_I12SweetToppingNS_14default_deleteIS7_EEEEvEEENS_22__allocator_destructorINS5_ISC_EEEEED1B8ne180100Ev, symObjAddr: 0xD9A0, symBinAddr: 0x10000FE00, symSize: 0x2C }
  - { offset: 0x2CBC5, size: 0x8, addend: 0x0, symName: __ZNKSt3__117__compressed_pairIZN11ToppingListC1EvEUlvE1_NS_9allocatorIS2_EEE6secondB8ne180100Ev, symObjAddr: 0xD9CC, symBinAddr: 0x10000FE2C, symSize: 0x24 }
  - { offset: 0x2CBEB, size: 0x8, addend: 0x0, symName: __ZNKSt3__122__compressed_pair_elemINS_9allocatorIZN11ToppingListC1EvEUlvE1_EELi1ELb1EE5__getB8ne180100Ev, symObjAddr: 0xD9F0, symBinAddr: 0x10000FE50, symSize: 0x14 }
  - { offset: 0x2CC1B, size: 0x8, addend: 0x0, symName: __ZNSt3__116allocator_traitsINS_9allocatorINS_10__function6__funcIZN11ToppingListC1EvEUlvE1_NS1_IS5_EEFNS_10unique_ptrI12SweetToppingNS_14default_deleteIS8_EEEEvEEEEEE8max_sizeB8ne180100ISE_vEEmRKSE_, symObjAddr: 0xDA04, symBinAddr: 0x10000FE64, symSize: 0x24 }
  - { offset: 0x2CC49, size: 0x8, addend: 0x0, symName: __ZNKSt3__19allocatorINS_10__function6__funcIZN11ToppingListC1EvEUlvE1_NS0_IS4_EEFNS_10unique_ptrI12SweetToppingNS_14default_deleteIS7_EEEEvEEEE8max_sizeB8ne180100Ev, symObjAddr: 0xDA28, symBinAddr: 0x10000FE88, symSize: 0x14 }
  - { offset: 0x2CC6F, size: 0x8, addend: 0x0, symName: __ZNSt3__122__allocator_destructorINS_9allocatorINS_10__function6__funcIZN11ToppingListC1EvEUlvE1_NS1_IS5_EEFNS_10unique_ptrI12SweetToppingNS_14default_deleteIS8_EEEEvEEEEEEC2B8ne180100ERSE_m, symObjAddr: 0xDA3C, symBinAddr: 0x10000FE9C, symSize: 0x2C }
  - { offset: 0x2CCB5, size: 0x8, addend: 0x0, symName: __ZNSt3__110unique_ptrINS_10__function6__funcIZN11ToppingListC1EvEUlvE1_NS_9allocatorIS4_EEFNS0_I12SweetToppingNS_14default_deleteIS7_EEEEvEEENS_22__allocator_destructorINS5_ISC_EEEEEC2B8ne180100ILb1EvEEPSC_NS_16__dependent_typeINS_27__unique_ptr_deleter_sfinaeISF_EEXT_EE20__good_rval_ref_typeE, symObjAddr: 0xDA68, symBinAddr: 0x10000FEC8, symSize: 0x48 }
  - { offset: 0x2CD06, size: 0x8, addend: 0x0, symName: __ZNSt3__117__compressed_pairIPNS_10__function6__funcIZN11ToppingListC1EvEUlvE1_NS_9allocatorIS4_EEFNS_10unique_ptrI12SweetToppingNS_14default_deleteIS8_EEEEvEEENS_22__allocator_destructorINS5_ISD_EEEEEC1B8ne180100IRSE_SH_EEOT_OT0_, symObjAddr: 0xDAB0, symBinAddr: 0x10000FF10, symSize: 0x3C }
  - { offset: 0x2CD5E, size: 0x8, addend: 0x0, symName: __ZNSt3__117__compressed_pairIPNS_10__function6__funcIZN11ToppingListC1EvEUlvE1_NS_9allocatorIS4_EEFNS_10unique_ptrI12SweetToppingNS_14default_deleteIS8_EEEEvEEENS_22__allocator_destructorINS5_ISD_EEEEEC2B8ne180100IRSE_SH_EEOT_OT0_, symObjAddr: 0xDAEC, symBinAddr: 0x10000FF4C, symSize: 0x48 }
  - { offset: 0x2CDB6, size: 0x8, addend: 0x0, symName: __ZNSt3__122__compressed_pair_elemIPNS_10__function6__funcIZN11ToppingListC1EvEUlvE1_NS_9allocatorIS4_EEFNS_10unique_ptrI12SweetToppingNS_14default_deleteIS8_EEEEvEEELi0ELb0EEC2B8ne180100IRSE_vEEOT_, symObjAddr: 0xDB34, symBinAddr: 0x10000FF94, symSize: 0x24 }
  - { offset: 0x2CDF8, size: 0x8, addend: 0x0, symName: __ZNSt3__122__compressed_pair_elemINS_22__allocator_destructorINS_9allocatorINS_10__function6__funcIZN11ToppingListC1EvEUlvE1_NS2_IS6_EEFNS_10unique_ptrI12SweetToppingNS_14default_deleteIS9_EEEEvEEEEEEELi1ELb0EEC2B8ne180100ISG_vEEOT_, symObjAddr: 0xDB58, symBinAddr: 0x10000FFB8, symSize: 0x24 }
  - { offset: 0x2CE3A, size: 0x8, addend: 0x0, symName: __ZNKSt3__117__compressed_pairIPNS_10__function6__funcIZN11ToppingListC1EvEUlvE1_NS_9allocatorIS4_EEFNS_10unique_ptrI12SweetToppingNS_14default_deleteIS8_EEEEvEEENS_22__allocator_destructorINS5_ISD_EEEEE5firstB8ne180100Ev, symObjAddr: 0xDB7C, symBinAddr: 0x10000FFDC, symSize: 0x24 }
  - { offset: 0x2CE60, size: 0x8, addend: 0x0, symName: __ZNKSt3__122__compressed_pair_elemIPNS_10__function6__funcIZN11ToppingListC1EvEUlvE1_NS_9allocatorIS4_EEFNS_10unique_ptrI12SweetToppingNS_14default_deleteIS8_EEEEvEEELi0ELb0EE5__getB8ne180100Ev, symObjAddr: 0xDBA0, symBinAddr: 0x100010000, symSize: 0x14 }
  - { offset: 0x2CE86, size: 0x8, addend: 0x0, symName: __ZNKSt3__117__compressed_pairIZN11ToppingListC1EvEUlvE1_NS_9allocatorIS2_EEE5firstB8ne180100Ev, symObjAddr: 0xDBB4, symBinAddr: 0x100010014, symSize: 0x24 }
  - { offset: 0x2CEAC, size: 0x8, addend: 0x0, symName: __ZNKSt3__122__compressed_pair_elemIZN11ToppingListC1EvEUlvE1_Li0ELb1EE5__getB8ne180100Ev, symObjAddr: 0xDBD8, symBinAddr: 0x100010038, symSize: 0x14 }
  - { offset: 0x2CED2, size: 0x8, addend: 0x0, symName: __ZNSt3__110__function6__funcIZN11ToppingListC1EvEUlvE1_NS_9allocatorIS3_EEFNS_10unique_ptrI12SweetToppingNS_14default_deleteIS7_EEEEvEEC2B8ne180100ERKS3_OS5_, symObjAddr: 0xDBEC, symBinAddr: 0x10001004C, symSize: 0x80 }
  - { offset: 0x2CF1A, size: 0x8, addend: 0x0, symName: __ZNSt3__110__function12__alloc_funcIZN11ToppingListC1EvEUlvE1_NS_9allocatorIS3_EEFNS_10unique_ptrI12SweetToppingNS_14default_deleteIS7_EEEEvEEC1B8ne180100ERKS3_OS5_, symObjAddr: 0xDC6C, symBinAddr: 0x1000100CC, symSize: 0x3C }
  - { offset: 0x2CF60, size: 0x8, addend: 0x0, symName: __ZNSt3__110__function12__alloc_funcIZN11ToppingListC1EvEUlvE1_NS_9allocatorIS3_EEFNS_10unique_ptrI12SweetToppingNS_14default_deleteIS7_EEEEvEEC2B8ne180100ERKS3_OS5_, symObjAddr: 0xDCA8, symBinAddr: 0x100010108, symSize: 0x5C }
  - { offset: 0x2CFA6, size: 0x8, addend: 0x0, symName: __ZNSt3__117__compressed_pairIZN11ToppingListC1EvEUlvE1_NS_9allocatorIS2_EEEC1B8ne180100IJRKS2_EJOS4_EEENS_21piecewise_construct_tENS_5tupleIJDpT_EEENSB_IJDpT0_EEE, symObjAddr: 0xDD30, symBinAddr: 0x100010190, symSize: 0x3C }
  - { offset: 0x2D010, size: 0x8, addend: 0x0, symName: __ZNSt3__15tupleIJRKZN11ToppingListC1EvEUlvE1_EEC1B8ne180100INS_4_AndELi0EEES4_, symObjAddr: 0xDD6C, symBinAddr: 0x1000101CC, symSize: 0x34 }
  - { offset: 0x2D058, size: 0x8, addend: 0x0, symName: __ZNSt3__15tupleIJRKZN11ToppingListC1EvEUlvE1_EEC2B8ne180100INS_4_AndELi0EEES4_, symObjAddr: 0xDDA0, symBinAddr: 0x100010200, symSize: 0x34 }
  - { offset: 0x2D0A0, size: 0x8, addend: 0x0, symName: __ZNSt3__112__tuple_implINS_15__tuple_indicesIJLm0EEEEJRKZN11ToppingListC1EvEUlvE1_EEC1B8ne180100IJLm0EEJS6_EJEJEJS6_EEENS1_IJXspT_EEEENS_13__tuple_typesIJDpT0_EEENS1_IJXspT1_EEEENSA_IJDpT2_EEEDpOT3_, symObjAddr: 0xDDD4, symBinAddr: 0x100010234, symSize: 0x34 }
  - { offset: 0x2D135, size: 0x8, addend: 0x0, symName: __ZNSt3__112__tuple_implINS_15__tuple_indicesIJLm0EEEEJRKZN11ToppingListC1EvEUlvE1_EEC2B8ne180100IJLm0EEJS6_EJEJEJS6_EEENS1_IJXspT_EEEENS_13__tuple_typesIJDpT0_EEENS1_IJXspT1_EEEENSA_IJDpT2_EEEDpOT3_, symObjAddr: 0xDE08, symBinAddr: 0x100010268, symSize: 0x34 }
  - { offset: 0x2D1CA, size: 0x8, addend: 0x0, symName: __ZNSt3__112__tuple_leafILm0ERKZN11ToppingListC1EvEUlvE1_Lb0EEC2B8ne180100IS4_vEEOT_, symObjAddr: 0xDE3C, symBinAddr: 0x10001029C, symSize: 0x20 }
  - { offset: 0x2D20D, size: 0x8, addend: 0x0, symName: __ZNSt3__117__compressed_pairIZN11ToppingListC1EvEUlvE1_NS_9allocatorIS2_EEEC2B8ne180100IJRKS2_EJOS4_EEENS_21piecewise_construct_tENS_5tupleIJDpT_EEENSB_IJDpT0_EEE, symObjAddr: 0xDE5C, symBinAddr: 0x1000102BC, symSize: 0x54 }
  - { offset: 0x2D277, size: 0x8, addend: 0x0, symName: __ZNSt3__122__compressed_pair_elemIZN11ToppingListC1EvEUlvE1_Li0ELb1EEC2B8ne180100IJRKS2_EJLm0EEEENS_21piecewise_construct_tENS_5tupleIJDpT_EEENS_15__tuple_indicesIJXspT0_EEEE, symObjAddr: 0xDEB0, symBinAddr: 0x100010310, symSize: 0x38 }
  - { offset: 0x2D2DA, size: 0x8, addend: 0x0, symName: __ZNSt3__112__tuple_leafILm0ERKZN11ToppingListC1EvEUlvE1_Lb0EE3getB8ne180100Ev, symObjAddr: 0xDF0C, symBinAddr: 0x10001036C, symSize: 0x18 }
  - { offset: 0x2D300, size: 0x8, addend: 0x0, symName: __ZNSt3__117__compressed_pairIPNS_10__function6__funcIZN11ToppingListC1EvEUlvE1_NS_9allocatorIS4_EEFNS_10unique_ptrI12SweetToppingNS_14default_deleteIS8_EEEEvEEENS_22__allocator_destructorINS5_ISD_EEEEE5firstB8ne180100Ev, symObjAddr: 0xDF24, symBinAddr: 0x100010384, symSize: 0x24 }
  - { offset: 0x2D326, size: 0x8, addend: 0x0, symName: __ZNSt3__122__compressed_pair_elemIPNS_10__function6__funcIZN11ToppingListC1EvEUlvE1_NS_9allocatorIS4_EEFNS_10unique_ptrI12SweetToppingNS_14default_deleteIS8_EEEEvEEELi0ELb0EE5__getB8ne180100Ev, symObjAddr: 0xDF48, symBinAddr: 0x1000103A8, symSize: 0x14 }
  - { offset: 0x2D34C, size: 0x8, addend: 0x0, symName: __ZNSt3__110unique_ptrINS_10__function6__funcIZN11ToppingListC1EvEUlvE1_NS_9allocatorIS4_EEFNS0_I12SweetToppingNS_14default_deleteIS7_EEEEvEEENS_22__allocator_destructorINS5_ISC_EEEEED2B8ne180100Ev, symObjAddr: 0xDF5C, symBinAddr: 0x1000103BC, symSize: 0x30 }
  - { offset: 0x2D376, size: 0x8, addend: 0x0, symName: __ZNSt3__110unique_ptrINS_10__function6__funcIZN11ToppingListC1EvEUlvE1_NS_9allocatorIS4_EEFNS0_I12SweetToppingNS_14default_deleteIS7_EEEEvEEENS_22__allocator_destructorINS5_ISC_EEEEE5resetB8ne180100EPSC_, symObjAddr: 0xDF8C, symBinAddr: 0x1000103EC, symSize: 0x78 }
  - { offset: 0x2D3BA, size: 0x8, addend: 0x0, symName: __ZNSt3__117__compressed_pairIPNS_10__function6__funcIZN11ToppingListC1EvEUlvE1_NS_9allocatorIS4_EEFNS_10unique_ptrI12SweetToppingNS_14default_deleteIS8_EEEEvEEENS_22__allocator_destructorINS5_ISD_EEEEE6secondB8ne180100Ev, symObjAddr: 0xE004, symBinAddr: 0x100010464, symSize: 0x28 }
  - { offset: 0x2D3E0, size: 0x8, addend: 0x0, symName: __ZNSt3__122__allocator_destructorINS_9allocatorINS_10__function6__funcIZN11ToppingListC1EvEUlvE1_NS1_IS5_EEFNS_10unique_ptrI12SweetToppingNS_14default_deleteIS8_EEEEvEEEEEEclB8ne180100EPSD_, symObjAddr: 0xE02C, symBinAddr: 0x10001048C, symSize: 0x34 }
  - { offset: 0x2D414, size: 0x8, addend: 0x0, symName: __ZNSt3__122__compressed_pair_elemINS_22__allocator_destructorINS_9allocatorINS_10__function6__funcIZN11ToppingListC1EvEUlvE1_NS2_IS6_EEFNS_10unique_ptrI12SweetToppingNS_14default_deleteIS9_EEEEvEEEEEEELi1ELb0EE5__getB8ne180100Ev, symObjAddr: 0xE060, symBinAddr: 0x1000104C0, symSize: 0x14 }
  - { offset: 0x2D43A, size: 0x8, addend: 0x0, symName: __ZNSt3__116allocator_traitsINS_9allocatorINS_10__function6__funcIZN11ToppingListC1EvEUlvE1_NS1_IS5_EEFNS_10unique_ptrI12SweetToppingNS_14default_deleteIS8_EEEEvEEEEEE10deallocateB8ne180100ERSE_PSD_m, symObjAddr: 0xE074, symBinAddr: 0x1000104D4, symSize: 0x34 }
  - { offset: 0x2D47C, size: 0x8, addend: 0x0, symName: __ZNSt3__19allocatorINS_10__function6__funcIZN11ToppingListC1EvEUlvE1_NS0_IS4_EEFNS_10unique_ptrI12SweetToppingNS_14default_deleteIS7_EEEEvEEEE10deallocateB8ne180100EPSC_m, symObjAddr: 0xE0A8, symBinAddr: 0x100010508, symSize: 0x40 }
  - { offset: 0x2D4BE, size: 0x8, addend: 0x0, symName: __ZNSt3__110__function6__funcIZN11ToppingListC1EvEUlvE1_NS_9allocatorIS3_EEFNS_10unique_ptrI12SweetToppingNS_14default_deleteIS7_EEEEvEEC1B8ne180100ERKS3_RKS5_, symObjAddr: 0xE0E8, symBinAddr: 0x100010548, symSize: 0x3C }
  - { offset: 0x2D506, size: 0x8, addend: 0x0, symName: __ZNSt3__110__function6__funcIZN11ToppingListC1EvEUlvE1_NS_9allocatorIS3_EEFNS_10unique_ptrI12SweetToppingNS_14default_deleteIS7_EEEEvEEC2B8ne180100ERKS3_RKS5_, symObjAddr: 0xE124, symBinAddr: 0x100010584, symSize: 0x80 }
  - { offset: 0x2D54E, size: 0x8, addend: 0x0, symName: __ZNSt3__110__function12__alloc_funcIZN11ToppingListC1EvEUlvE1_NS_9allocatorIS3_EEFNS_10unique_ptrI12SweetToppingNS_14default_deleteIS7_EEEEvEEC1B8ne180100ERKS3_RKS5_, symObjAddr: 0xE1A4, symBinAddr: 0x100010604, symSize: 0x3C }
  - { offset: 0x2D594, size: 0x8, addend: 0x0, symName: __ZNSt3__110__function12__alloc_funcIZN11ToppingListC1EvEUlvE1_NS_9allocatorIS3_EEFNS_10unique_ptrI12SweetToppingNS_14default_deleteIS7_EEEEvEEC2B8ne180100ERKS3_RKS5_, symObjAddr: 0xE1E0, symBinAddr: 0x100010640, symSize: 0x5C }
  - { offset: 0x2D5DA, size: 0x8, addend: 0x0, symName: __ZNSt3__117__compressed_pairIZN11ToppingListC1EvEUlvE1_NS_9allocatorIS2_EEEC1B8ne180100IJRKS2_EJRKS4_EEENS_21piecewise_construct_tENS_5tupleIJDpT_EEENSC_IJDpT0_EEE, symObjAddr: 0xE268, symBinAddr: 0x1000106C8, symSize: 0x3C }
  - { offset: 0x2D644, size: 0x8, addend: 0x0, symName: __ZNSt3__15tupleIJRKNS_9allocatorIZN11ToppingListC1EvEUlvE1_EEEEC1B8ne180100INS_4_AndELi0EEES6_, symObjAddr: 0xE2A4, symBinAddr: 0x100010704, symSize: 0x34 }
  - { offset: 0x2D68C, size: 0x8, addend: 0x0, symName: __ZNSt3__15tupleIJRKNS_9allocatorIZN11ToppingListC1EvEUlvE1_EEEEC2B8ne180100INS_4_AndELi0EEES6_, symObjAddr: 0xE2D8, symBinAddr: 0x100010738, symSize: 0x34 }
  - { offset: 0x2D6D4, size: 0x8, addend: 0x0, symName: __ZNSt3__112__tuple_implINS_15__tuple_indicesIJLm0EEEEJRKNS_9allocatorIZN11ToppingListC1EvEUlvE1_EEEEC1B8ne180100IJLm0EEJS8_EJEJEJS8_EEENS1_IJXspT_EEEENS_13__tuple_typesIJDpT0_EEENS1_IJXspT1_EEEENSC_IJDpT2_EEEDpOT3_, symObjAddr: 0xE30C, symBinAddr: 0x10001076C, symSize: 0x34 }
  - { offset: 0x2D769, size: 0x8, addend: 0x0, symName: __ZNSt3__112__tuple_implINS_15__tuple_indicesIJLm0EEEEJRKNS_9allocatorIZN11ToppingListC1EvEUlvE1_EEEEC2B8ne180100IJLm0EEJS8_EJEJEJS8_EEENS1_IJXspT_EEEENS_13__tuple_typesIJDpT0_EEENS1_IJXspT1_EEEENSC_IJDpT2_EEEDpOT3_, symObjAddr: 0xE340, symBinAddr: 0x1000107A0, symSize: 0x34 }
  - { offset: 0x2D7FE, size: 0x8, addend: 0x0, symName: __ZNSt3__112__tuple_leafILm0ERKNS_9allocatorIZN11ToppingListC1EvEUlvE1_EELb0EEC2B8ne180100IS6_vEEOT_, symObjAddr: 0xE374, symBinAddr: 0x1000107D4, symSize: 0x20 }
  - { offset: 0x2D841, size: 0x8, addend: 0x0, symName: __ZNSt3__117__compressed_pairIZN11ToppingListC1EvEUlvE1_NS_9allocatorIS2_EEEC2B8ne180100IJRKS2_EJRKS4_EEENS_21piecewise_construct_tENS_5tupleIJDpT_EEENSC_IJDpT0_EEE, symObjAddr: 0xE394, symBinAddr: 0x1000107F4, symSize: 0x54 }
  - { offset: 0x2D8AB, size: 0x8, addend: 0x0, symName: __ZNSt3__122__compressed_pair_elemINS_9allocatorIZN11ToppingListC1EvEUlvE1_EELi1ELb1EEC2B8ne180100IJRKS4_EJLm0EEEENS_21piecewise_construct_tENS_5tupleIJDpT_EEENS_15__tuple_indicesIJXspT0_EEEE, symObjAddr: 0xE3E8, symBinAddr: 0x100010848, symSize: 0x38 }
  - { offset: 0x2D90E, size: 0x8, addend: 0x0, symName: __ZNSt3__112__tuple_leafILm0ERKNS_9allocatorIZN11ToppingListC1EvEUlvE1_EELb0EE3getB8ne180100Ev, symObjAddr: 0xE444, symBinAddr: 0x1000108A4, symSize: 0x18 }
  - { offset: 0x2D934, size: 0x8, addend: 0x0, symName: __ZNSt3__110__function12__alloc_funcIZN11ToppingListC1EvEUlvE1_NS_9allocatorIS3_EEFNS_10unique_ptrI12SweetToppingNS_14default_deleteIS7_EEEEvEE7destroyB8ne180100Ev, symObjAddr: 0xE45C, symBinAddr: 0x1000108BC, symSize: 0x10 }
  - { offset: 0x2D95A, size: 0x8, addend: 0x0, symName: __ZNSt3__110__function12__alloc_funcIZN11ToppingListC1EvEUlvE1_NS_9allocatorIS3_EEFNS_10unique_ptrI12SweetToppingNS_14default_deleteIS7_EEEEvEEclB8ne180100Ev, symObjAddr: 0xE46C, symBinAddr: 0x1000108CC, symSize: 0x34 }
  - { offset: 0x2D980, size: 0x8, addend: 0x0, symName: __ZNSt3__128__invoke_void_return_wrapperINS_10unique_ptrI12SweetToppingNS_14default_deleteIS2_EEEELb0EE6__callB8ne180100IJRZN11ToppingListC1EvEUlvE1_EEES5_DpOT_, symObjAddr: 0xE4A0, symBinAddr: 0x100010900, symSize: 0x2C }
  - { offset: 0x2D9AF, size: 0x8, addend: 0x0, symName: __ZNSt3__117__compressed_pairIZN11ToppingListC1EvEUlvE1_NS_9allocatorIS2_EEE5firstB8ne180100Ev, symObjAddr: 0xE4CC, symBinAddr: 0x10001092C, symSize: 0x24 }
  - { offset: 0x2D9DA, size: 0x8, addend: 0x0, symName: __ZZN11ToppingListC1EvENKUlvE1_clEv, symObjAddr: 0xE51C, symBinAddr: 0x10001097C, symSize: 0x30 }
  - { offset: 0x2DA04, size: 0x8, addend: 0x0, symName: __ZN12SweetToppingC1ENSt3__112basic_stringIcNS0_11char_traitsIcEENS0_9allocatorIcEEEE, symObjAddr: 0xE61C, symBinAddr: 0x100010A7C, symSize: 0x34 }
  - { offset: 0x2DA3D, size: 0x8, addend: 0x0, symName: __ZNSt3__110unique_ptrI12SweetToppingNS_14default_deleteIS1_EEEC1B8ne180100ILb1EvEEPS1_, symObjAddr: 0xE650, symBinAddr: 0x100010AB0, symSize: 0x34 }
  - { offset: 0x2DA80, size: 0x8, addend: 0x0, symName: __ZN12SweetToppingC2ENSt3__112basic_stringIcNS0_11char_traitsIcEENS0_9allocatorIcEEEE, symObjAddr: 0xE684, symBinAddr: 0x100010AE4, symSize: 0x7C }
  - { offset: 0x2DAB9, size: 0x8, addend: 0x0, symName: __ZNK12SweetTopping7getNameEv, symObjAddr: 0xE700, symBinAddr: 0x100010B60, symSize: 0x3C }
  - { offset: 0x2DADF, size: 0x8, addend: 0x0, symName: __ZN12SweetToppingD1Ev, symObjAddr: 0xE73C, symBinAddr: 0x100010B9C, symSize: 0x2C }
  - { offset: 0x2DB0B, size: 0x8, addend: 0x0, symName: __ZN12SweetToppingD0Ev, symObjAddr: 0xE768, symBinAddr: 0x100010BC8, symSize: 0x30 }
  - { offset: 0x2DB37, size: 0x8, addend: 0x0, symName: __ZNK12SweetTopping7getTypeEv, symObjAddr: 0xE798, symBinAddr: 0x100010BF8, symSize: 0x3C }
  - { offset: 0x2DB5D, size: 0x8, addend: 0x0, symName: __ZN12SweetToppingD2Ev, symObjAddr: 0xE7D4, symBinAddr: 0x100010C34, symSize: 0x48 }
  - { offset: 0x2DB89, size: 0x8, addend: 0x0, symName: __ZNSt3__110unique_ptrI12SweetToppingNS_14default_deleteIS1_EEEC2B8ne180100ILb1EvEEPS1_, symObjAddr: 0xE81C, symBinAddr: 0x100010C7C, symSize: 0x44 }
  - { offset: 0x2DBCC, size: 0x8, addend: 0x0, symName: __ZNSt3__117__compressed_pairIP12SweetToppingNS_14default_deleteIS1_EEEC1B8ne180100IRS2_NS_16__value_init_tagEEEOT_OT0_, symObjAddr: 0xE860, symBinAddr: 0x100010CC0, symSize: 0x3C }
  - { offset: 0x2DC24, size: 0x8, addend: 0x0, symName: __ZNSt3__117__compressed_pairIP12SweetToppingNS_14default_deleteIS1_EEEC2B8ne180100IRS2_NS_16__value_init_tagEEEOT_OT0_, symObjAddr: 0xE89C, symBinAddr: 0x100010CFC, symSize: 0x40 }
  - { offset: 0x2DC7C, size: 0x8, addend: 0x0, symName: __ZNSt3__122__compressed_pair_elemIP12SweetToppingLi0ELb0EEC2B8ne180100IRS2_vEEOT_, symObjAddr: 0xE8DC, symBinAddr: 0x100010D3C, symSize: 0x24 }
  - { offset: 0x2DCBE, size: 0x8, addend: 0x0, symName: __ZNSt3__122__compressed_pair_elemINS_14default_deleteI12SweetToppingEELi1ELb1EEC2B8ne180100ENS_16__value_init_tagE, symObjAddr: 0xE900, symBinAddr: 0x100010D60, symSize: 0x14 }
  - { offset: 0x2DCF2, size: 0x8, addend: 0x0, symName: __ZNSt3__122__compressed_pair_elemIZN11ToppingListC1EvEUlvE1_Li0ELb1EE5__getB8ne180100Ev, symObjAddr: 0xE914, symBinAddr: 0x100010D74, symSize: 0x14 }
  - { offset: 0x2DD18, size: 0x8, addend: 0x0, symName: __ZNSt3__18functionIFNS_10unique_ptrI12SweetToppingNS_14default_deleteIS2_EEEEvEED2Ev, symObjAddr: 0xE928, symBinAddr: 0x100010D88, symSize: 0x2C }
  - { offset: 0x2DD44, size: 0x8, addend: 0x0, symName: __ZNSt3__110__function12__value_funcIFNS_10unique_ptrI12SweetToppingNS_14default_deleteIS3_EEEEvEED1B8ne180100Ev, symObjAddr: 0xE954, symBinAddr: 0x100010DB4, symSize: 0x2C }
  - { offset: 0x2DD6E, size: 0x8, addend: 0x0, symName: __ZNSt3__110__function12__value_funcIFNS_10unique_ptrI12SweetToppingNS_14default_deleteIS3_EEEEvEED2B8ne180100Ev, symObjAddr: 0xE980, symBinAddr: 0x100010DE0, symSize: 0x90 }
  - { offset: 0x2DD98, size: 0x8, addend: 0x0, symName: __ZNSt3__18functionIFNS_10unique_ptrI12SweetToppingNS_14default_deleteIS2_EEEEvEEC2IZN11ToppingListC1EvEUlvE2_vEET_, symObjAddr: 0xEA10, symBinAddr: 0x100010E70, symSize: 0x30 }
  - { offset: 0x2DDDD, size: 0x8, addend: 0x0, symName: __ZNSt3__110__function12__value_funcIFNS_10unique_ptrI12SweetToppingNS_14default_deleteIS3_EEEEvEEC1B8ne180100IZN11ToppingListC1EvEUlvE2_Li0EEEOT_, symObjAddr: 0xEA40, symBinAddr: 0x100010EA0, symSize: 0x50 }
  - { offset: 0x2DE25, size: 0x8, addend: 0x0, symName: __ZNSt3__19allocatorIZN11ToppingListC1EvEUlvE2_EC1B8ne180100Ev, symObjAddr: 0xEA90, symBinAddr: 0x100010EF0, symSize: 0x2C }
  - { offset: 0x2DE4F, size: 0x8, addend: 0x0, symName: __ZNSt3__110__function12__value_funcIFNS_10unique_ptrI12SweetToppingNS_14default_deleteIS3_EEEEvEEC1B8ne180100IZN11ToppingListC1EvEUlvE2_NS_9allocatorISB_EEEEOT_RKT0_, symObjAddr: 0xEABC, symBinAddr: 0x100010F1C, symSize: 0x3C }
  - { offset: 0x2DEA9, size: 0x8, addend: 0x0, symName: __ZNSt3__19allocatorIZN11ToppingListC1EvEUlvE2_EC2B8ne180100Ev, symObjAddr: 0xEAF8, symBinAddr: 0x100010F58, symSize: 0x2C }
  - { offset: 0x2DED3, size: 0x8, addend: 0x0, symName: __ZNSt3__116__non_trivial_ifILb1ENS_9allocatorIZN11ToppingListC1EvEUlvE2_EEEC2B8ne180100Ev, symObjAddr: 0xEB24, symBinAddr: 0x100010F84, symSize: 0x14 }
  - { offset: 0x2DEFD, size: 0x8, addend: 0x0, symName: __ZNSt3__110__function12__value_funcIFNS_10unique_ptrI12SweetToppingNS_14default_deleteIS3_EEEEvEEC2B8ne180100IZN11ToppingListC1EvEUlvE2_NS_9allocatorISB_EEEEOT_RKT0_, symObjAddr: 0xEB38, symBinAddr: 0x100010F98, symSize: 0x94 }
  - { offset: 0x2DFA4, size: 0x8, addend: 0x0, symName: __ZNSt3__19allocatorINS_10__function6__funcIZN11ToppingListC1EvEUlvE2_NS0_IS4_EEFNS_10unique_ptrI12SweetToppingNS_14default_deleteIS7_EEEEvEEEEC1B8ne180100IS4_EERKNS0_IT_EE, symObjAddr: 0xEBE4, symBinAddr: 0x100011044, symSize: 0x34 }
  - { offset: 0x2DFE6, size: 0x8, addend: 0x0, symName: __ZNSt3__19allocatorIZN11ToppingListC1EvEUlvE2_EC1B8ne180100INS_10__function6__funcIS2_S3_FNS_10unique_ptrI12SweetToppingNS_14default_deleteIS8_EEEEvEEEEERKNS0_IT_EE, symObjAddr: 0xEC18, symBinAddr: 0x100011078, symSize: 0x34 }
  - { offset: 0x2E023, size: 0x8, addend: 0x0, symName: __ZNSt3__110__function6__funcIZN11ToppingListC1EvEUlvE2_NS_9allocatorIS3_EEFNS_10unique_ptrI12SweetToppingNS_14default_deleteIS7_EEEEvEEC1B8ne180100EOS3_OS5_, symObjAddr: 0xEC4C, symBinAddr: 0x1000110AC, symSize: 0x3C }
  - { offset: 0x2E06B, size: 0x8, addend: 0x0, symName: __ZNSt3__19allocatorINS_10__function6__funcIZN11ToppingListC1EvEUlvE2_NS0_IS4_EEFNS_10unique_ptrI12SweetToppingNS_14default_deleteIS7_EEEEvEEEEC2B8ne180100IS4_EERKNS0_IT_EE, symObjAddr: 0xEC88, symBinAddr: 0x1000110E8, symSize: 0x30 }
  - { offset: 0x2E0A8, size: 0x8, addend: 0x0, symName: __ZNSt3__116__non_trivial_ifILb1ENS_9allocatorINS_10__function6__funcIZN11ToppingListC1EvEUlvE2_NS1_IS5_EEFNS_10unique_ptrI12SweetToppingNS_14default_deleteIS8_EEEEvEEEEEEC2B8ne180100Ev, symObjAddr: 0xECB8, symBinAddr: 0x100011118, symSize: 0x14 }
  - { offset: 0x2E0D2, size: 0x8, addend: 0x0, symName: __ZNSt3__19allocatorIZN11ToppingListC1EvEUlvE2_EC2B8ne180100INS_10__function6__funcIS2_S3_FNS_10unique_ptrI12SweetToppingNS_14default_deleteIS8_EEEEvEEEEERKNS0_IT_EE, symObjAddr: 0xECCC, symBinAddr: 0x10001112C, symSize: 0x30 }
  - { offset: 0x2E10F, size: 0x8, addend: 0x0, symName: __ZNSt3__110__function6__funcIZN11ToppingListC1EvEUlvE2_NS_9allocatorIS3_EEFNS_10unique_ptrI12SweetToppingNS_14default_deleteIS7_EEEEvEEC2B8ne180100EOS3_OS5_, symObjAddr: 0xECFC, symBinAddr: 0x10001115C, symSize: 0x80 }
  - { offset: 0x2E157, size: 0x8, addend: 0x0, symName: __ZNSt3__110__function12__alloc_funcIZN11ToppingListC1EvEUlvE2_NS_9allocatorIS3_EEFNS_10unique_ptrI12SweetToppingNS_14default_deleteIS7_EEEEvEEC1B8ne180100EOS3_OS5_, symObjAddr: 0xED7C, symBinAddr: 0x1000111DC, symSize: 0x3C }
  - { offset: 0x2E19D, size: 0x8, addend: 0x0, symName: __ZNSt3__110__function6__funcIZN11ToppingListC1EvEUlvE2_NS_9allocatorIS3_EEFNS_10unique_ptrI12SweetToppingNS_14default_deleteIS7_EEEEvEED1Ev, symObjAddr: 0xEDB8, symBinAddr: 0x100011218, symSize: 0x2C }
  - { offset: 0x2E1C9, size: 0x8, addend: 0x0, symName: __ZNSt3__110__function6__funcIZN11ToppingListC1EvEUlvE2_NS_9allocatorIS3_EEFNS_10unique_ptrI12SweetToppingNS_14default_deleteIS7_EEEEvEED0Ev, symObjAddr: 0xEDE4, symBinAddr: 0x100011244, symSize: 0x30 }
  - { offset: 0x2E1F5, size: 0x8, addend: 0x0, symName: __ZNKSt3__110__function6__funcIZN11ToppingListC1EvEUlvE2_NS_9allocatorIS3_EEFNS_10unique_ptrI12SweetToppingNS_14default_deleteIS7_EEEEvEE7__cloneEv, symObjAddr: 0xEE14, symBinAddr: 0x100011274, symSize: 0xFC }
  - { offset: 0x2E247, size: 0x8, addend: 0x0, symName: __ZNKSt3__110__function6__funcIZN11ToppingListC1EvEUlvE2_NS_9allocatorIS3_EEFNS_10unique_ptrI12SweetToppingNS_14default_deleteIS7_EEEEvEE7__cloneEPNS0_6__baseISB_EE, symObjAddr: 0xEF10, symBinAddr: 0x100011370, symSize: 0x58 }
  - { offset: 0x2E27E, size: 0x8, addend: 0x0, symName: __ZNSt3__110__function6__funcIZN11ToppingListC1EvEUlvE2_NS_9allocatorIS3_EEFNS_10unique_ptrI12SweetToppingNS_14default_deleteIS7_EEEEvEE7destroyEv, symObjAddr: 0xEF68, symBinAddr: 0x1000113C8, symSize: 0x28 }
  - { offset: 0x2E2A6, size: 0x8, addend: 0x0, symName: __ZNSt3__110__function6__funcIZN11ToppingListC1EvEUlvE2_NS_9allocatorIS3_EEFNS_10unique_ptrI12SweetToppingNS_14default_deleteIS7_EEEEvEE18destroy_deallocateEv, symObjAddr: 0xEF90, symBinAddr: 0x1000113F0, symSize: 0x58 }
  - { offset: 0x2E2E9, size: 0x8, addend: 0x0, symName: __ZNSt3__110__function6__funcIZN11ToppingListC1EvEUlvE2_NS_9allocatorIS3_EEFNS_10unique_ptrI12SweetToppingNS_14default_deleteIS7_EEEEvEEclEv, symObjAddr: 0xEFE8, symBinAddr: 0x100011448, symSize: 0x30 }
  - { offset: 0x2E311, size: 0x8, addend: 0x0, symName: __ZNKSt3__110__function6__funcIZN11ToppingListC1EvEUlvE2_NS_9allocatorIS3_EEFNS_10unique_ptrI12SweetToppingNS_14default_deleteIS7_EEEEvEE6targetERKSt9type_info, symObjAddr: 0xF018, symBinAddr: 0x100011478, symSize: 0x60 }
  - { offset: 0x2E348, size: 0x8, addend: 0x0, symName: __ZNKSt3__110__function6__funcIZN11ToppingListC1EvEUlvE2_NS_9allocatorIS3_EEFNS_10unique_ptrI12SweetToppingNS_14default_deleteIS7_EEEEvEE11target_typeEv, symObjAddr: 0xF078, symBinAddr: 0x1000114D8, symSize: 0x18 }
  - { offset: 0x2E370, size: 0x8, addend: 0x0, symName: __ZNSt3__110__function12__alloc_funcIZN11ToppingListC1EvEUlvE2_NS_9allocatorIS3_EEFNS_10unique_ptrI12SweetToppingNS_14default_deleteIS7_EEEEvEEC2B8ne180100EOS3_OS5_, symObjAddr: 0xF090, symBinAddr: 0x1000114F0, symSize: 0x5C }
  - { offset: 0x2E3B6, size: 0x8, addend: 0x0, symName: __ZNSt3__117__compressed_pairIZN11ToppingListC1EvEUlvE2_NS_9allocatorIS2_EEEC1B8ne180100IJOS2_EJOS4_EEENS_21piecewise_construct_tENS_5tupleIJDpT_EEENSA_IJDpT0_EEE, symObjAddr: 0xF144, symBinAddr: 0x1000115A4, symSize: 0x3C }
  - { offset: 0x2E420, size: 0x8, addend: 0x0, symName: __ZNSt3__15tupleIJOZN11ToppingListC1EvEUlvE2_EEC1B8ne180100IJS2_ELi0EEEDpOT_, symObjAddr: 0xF180, symBinAddr: 0x1000115E0, symSize: 0x34 }
  - { offset: 0x2E46A, size: 0x8, addend: 0x0, symName: __ZNSt3__15tupleIJOZN11ToppingListC1EvEUlvE2_EEC2B8ne180100IJS2_ELi0EEEDpOT_, symObjAddr: 0xF1B4, symBinAddr: 0x100011614, symSize: 0x34 }
  - { offset: 0x2E4B4, size: 0x8, addend: 0x0, symName: __ZNSt3__112__tuple_implINS_15__tuple_indicesIJLm0EEEEJOZN11ToppingListC1EvEUlvE2_EEC1B8ne180100IJLm0EEJS5_EJEJEJS4_EEENS1_IJXspT_EEEENS_13__tuple_typesIJDpT0_EEENS1_IJXspT1_EEEENS9_IJDpT2_EEEDpOT3_, symObjAddr: 0xF1E8, symBinAddr: 0x100011648, symSize: 0x34 }
  - { offset: 0x2E549, size: 0x8, addend: 0x0, symName: __ZNSt3__112__tuple_implINS_15__tuple_indicesIJLm0EEEEJOZN11ToppingListC1EvEUlvE2_EEC2B8ne180100IJLm0EEJS5_EJEJEJS4_EEENS1_IJXspT_EEEENS_13__tuple_typesIJDpT0_EEENS1_IJXspT1_EEEENS9_IJDpT2_EEEDpOT3_, symObjAddr: 0xF21C, symBinAddr: 0x10001167C, symSize: 0x34 }
  - { offset: 0x2E5DE, size: 0x8, addend: 0x0, symName: __ZNSt3__112__tuple_leafILm0EOZN11ToppingListC1EvEUlvE2_Lb0EEC2B8ne180100IS2_vEEOT_, symObjAddr: 0xF250, symBinAddr: 0x1000116B0, symSize: 0x20 }
  - { offset: 0x2E621, size: 0x8, addend: 0x0, symName: __ZNSt3__15tupleIJONS_9allocatorIZN11ToppingListC1EvEUlvE2_EEEEC1B8ne180100IJS4_ELi0EEEDpOT_, symObjAddr: 0xF270, symBinAddr: 0x1000116D0, symSize: 0x34 }
  - { offset: 0x2E66B, size: 0x8, addend: 0x0, symName: __ZNSt3__15tupleIJONS_9allocatorIZN11ToppingListC1EvEUlvE2_EEEEC2B8ne180100IJS4_ELi0EEEDpOT_, symObjAddr: 0xF2A4, symBinAddr: 0x100011704, symSize: 0x34 }
  - { offset: 0x2E6B5, size: 0x8, addend: 0x0, symName: __ZNSt3__112__tuple_implINS_15__tuple_indicesIJLm0EEEEJONS_9allocatorIZN11ToppingListC1EvEUlvE2_EEEEC1B8ne180100IJLm0EEJS7_EJEJEJS6_EEENS1_IJXspT_EEEENS_13__tuple_typesIJDpT0_EEENS1_IJXspT1_EEEENSB_IJDpT2_EEEDpOT3_, symObjAddr: 0xF2D8, symBinAddr: 0x100011738, symSize: 0x34 }
  - { offset: 0x2E74A, size: 0x8, addend: 0x0, symName: __ZNSt3__112__tuple_implINS_15__tuple_indicesIJLm0EEEEJONS_9allocatorIZN11ToppingListC1EvEUlvE2_EEEEC2B8ne180100IJLm0EEJS7_EJEJEJS6_EEENS1_IJXspT_EEEENS_13__tuple_typesIJDpT0_EEENS1_IJXspT1_EEEENSB_IJDpT2_EEEDpOT3_, symObjAddr: 0xF30C, symBinAddr: 0x10001176C, symSize: 0x34 }
  - { offset: 0x2E7DF, size: 0x8, addend: 0x0, symName: __ZNSt3__112__tuple_leafILm0EONS_9allocatorIZN11ToppingListC1EvEUlvE2_EELb0EEC2B8ne180100IS4_vEEOT_, symObjAddr: 0xF340, symBinAddr: 0x1000117A0, symSize: 0x20 }
  - { offset: 0x2E822, size: 0x8, addend: 0x0, symName: __ZNSt3__117__compressed_pairIZN11ToppingListC1EvEUlvE2_NS_9allocatorIS2_EEEC2B8ne180100IJOS2_EJOS4_EEENS_21piecewise_construct_tENS_5tupleIJDpT_EEENSA_IJDpT0_EEE, symObjAddr: 0xF360, symBinAddr: 0x1000117C0, symSize: 0x54 }
  - { offset: 0x2E88C, size: 0x8, addend: 0x0, symName: __ZNSt3__122__compressed_pair_elemIZN11ToppingListC1EvEUlvE2_Li0ELb1EEC2B8ne180100IJOS2_EJLm0EEEENS_21piecewise_construct_tENS_5tupleIJDpT_EEENS_15__tuple_indicesIJXspT0_EEEE, symObjAddr: 0xF3B4, symBinAddr: 0x100011814, symSize: 0x38 }
  - { offset: 0x2E8EF, size: 0x8, addend: 0x0, symName: __ZNSt3__122__compressed_pair_elemINS_9allocatorIZN11ToppingListC1EvEUlvE2_EELi1ELb1EEC2B8ne180100IJOS4_EJLm0EEEENS_21piecewise_construct_tENS_5tupleIJDpT_EEENS_15__tuple_indicesIJXspT0_EEEE, symObjAddr: 0xF3EC, symBinAddr: 0x10001184C, symSize: 0x38 }
  - { offset: 0x2E952, size: 0x8, addend: 0x0, symName: __ZNSt3__112__tuple_leafILm0EOZN11ToppingListC1EvEUlvE2_Lb0EE3getB8ne180100Ev, symObjAddr: 0xF448, symBinAddr: 0x1000118A8, symSize: 0x18 }
  - { offset: 0x2E978, size: 0x8, addend: 0x0, symName: __ZNSt3__112__tuple_leafILm0EONS_9allocatorIZN11ToppingListC1EvEUlvE2_EELb0EE3getB8ne180100Ev, symObjAddr: 0xF484, symBinAddr: 0x1000118E4, symSize: 0x18 }
  - { offset: 0x2E99E, size: 0x8, addend: 0x0, symName: __ZNSt3__110__function6__funcIZN11ToppingListC1EvEUlvE2_NS_9allocatorIS3_EEFNS_10unique_ptrI12SweetToppingNS_14default_deleteIS7_EEEEvEED2Ev, symObjAddr: 0xF49C, symBinAddr: 0x1000118FC, symSize: 0x2C }
  - { offset: 0x2E9CA, size: 0x8, addend: 0x0, symName: __ZNKSt3__110__function12__alloc_funcIZN11ToppingListC1EvEUlvE2_NS_9allocatorIS3_EEFNS_10unique_ptrI12SweetToppingNS_14default_deleteIS7_EEEEvEE15__get_allocatorB8ne180100Ev, symObjAddr: 0xF4C8, symBinAddr: 0x100011928, symSize: 0x24 }
  - { offset: 0x2E9F0, size: 0x8, addend: 0x0, symName: __ZNSt3__19allocatorINS_10__function6__funcIZN11ToppingListC1EvEUlvE2_NS0_IS4_EEFNS_10unique_ptrI12SweetToppingNS_14default_deleteIS7_EEEEvEEEE8allocateB8ne180100Em, symObjAddr: 0xF4EC, symBinAddr: 0x10001194C, symSize: 0x58 }
  - { offset: 0x2EA33, size: 0x8, addend: 0x0, symName: __ZNSt3__122__allocator_destructorINS_9allocatorINS_10__function6__funcIZN11ToppingListC1EvEUlvE2_NS1_IS5_EEFNS_10unique_ptrI12SweetToppingNS_14default_deleteIS8_EEEEvEEEEEEC1B8ne180100ERSE_m, symObjAddr: 0xF544, symBinAddr: 0x1000119A4, symSize: 0x3C }
  - { offset: 0x2EB07, size: 0x8, addend: 0x0, symName: __ZNSt3__110unique_ptrINS_10__function6__funcIZN11ToppingListC1EvEUlvE2_NS_9allocatorIS4_EEFNS0_I12SweetToppingNS_14default_deleteIS7_EEEEvEEENS_22__allocator_destructorINS5_ISC_EEEEEC1B8ne180100ILb1EvEEPSC_NS_16__dependent_typeINS_27__unique_ptr_deleter_sfinaeISF_EEXT_EE20__good_rval_ref_typeE, symObjAddr: 0xF580, symBinAddr: 0x1000119E0, symSize: 0x3C }
  - { offset: 0x2EB58, size: 0x8, addend: 0x0, symName: __ZNKSt3__110unique_ptrINS_10__function6__funcIZN11ToppingListC1EvEUlvE2_NS_9allocatorIS4_EEFNS0_I12SweetToppingNS_14default_deleteIS7_EEEEvEEENS_22__allocator_destructorINS5_ISC_EEEEE3getB8ne180100Ev, symObjAddr: 0xF5BC, symBinAddr: 0x100011A1C, symSize: 0x28 }
  - { offset: 0x2EB7E, size: 0x8, addend: 0x0, symName: __ZNKSt3__110__function12__alloc_funcIZN11ToppingListC1EvEUlvE2_NS_9allocatorIS3_EEFNS_10unique_ptrI12SweetToppingNS_14default_deleteIS7_EEEEvEE8__targetB8ne180100Ev, symObjAddr: 0xF5E4, symBinAddr: 0x100011A44, symSize: 0x24 }
  - { offset: 0x2EBA4, size: 0x8, addend: 0x0, symName: __ZNSt3__110__function6__funcIZN11ToppingListC1EvEUlvE2_NS_9allocatorIS3_EEFNS_10unique_ptrI12SweetToppingNS_14default_deleteIS7_EEEEvEEC1B8ne180100ERKS3_OS5_, symObjAddr: 0xF608, symBinAddr: 0x100011A68, symSize: 0x3C }
  - { offset: 0x2EBEC, size: 0x8, addend: 0x0, symName: __ZNSt3__110unique_ptrINS_10__function6__funcIZN11ToppingListC1EvEUlvE2_NS_9allocatorIS4_EEFNS0_I12SweetToppingNS_14default_deleteIS7_EEEEvEEENS_22__allocator_destructorINS5_ISC_EEEEE7releaseB8ne180100Ev, symObjAddr: 0xF644, symBinAddr: 0x100011AA4, symSize: 0x44 }
  - { offset: 0x2EC21, size: 0x8, addend: 0x0, symName: __ZNSt3__110unique_ptrINS_10__function6__funcIZN11ToppingListC1EvEUlvE2_NS_9allocatorIS4_EEFNS0_I12SweetToppingNS_14default_deleteIS7_EEEEvEEENS_22__allocator_destructorINS5_ISC_EEEEED1B8ne180100Ev, symObjAddr: 0xF688, symBinAddr: 0x100011AE8, symSize: 0x2C }
  - { offset: 0x2EC4B, size: 0x8, addend: 0x0, symName: __ZNKSt3__117__compressed_pairIZN11ToppingListC1EvEUlvE2_NS_9allocatorIS2_EEE6secondB8ne180100Ev, symObjAddr: 0xF6B4, symBinAddr: 0x100011B14, symSize: 0x24 }
  - { offset: 0x2EC71, size: 0x8, addend: 0x0, symName: __ZNKSt3__122__compressed_pair_elemINS_9allocatorIZN11ToppingListC1EvEUlvE2_EELi1ELb1EE5__getB8ne180100Ev, symObjAddr: 0xF6D8, symBinAddr: 0x100011B38, symSize: 0x14 }
  - { offset: 0x2ECA1, size: 0x8, addend: 0x0, symName: __ZNSt3__116allocator_traitsINS_9allocatorINS_10__function6__funcIZN11ToppingListC1EvEUlvE2_NS1_IS5_EEFNS_10unique_ptrI12SweetToppingNS_14default_deleteIS8_EEEEvEEEEEE8max_sizeB8ne180100ISE_vEEmRKSE_, symObjAddr: 0xF6EC, symBinAddr: 0x100011B4C, symSize: 0x24 }
  - { offset: 0x2ECCF, size: 0x8, addend: 0x0, symName: __ZNKSt3__19allocatorINS_10__function6__funcIZN11ToppingListC1EvEUlvE2_NS0_IS4_EEFNS_10unique_ptrI12SweetToppingNS_14default_deleteIS7_EEEEvEEEE8max_sizeB8ne180100Ev, symObjAddr: 0xF710, symBinAddr: 0x100011B70, symSize: 0x14 }
  - { offset: 0x2ECF5, size: 0x8, addend: 0x0, symName: __ZNSt3__122__allocator_destructorINS_9allocatorINS_10__function6__funcIZN11ToppingListC1EvEUlvE2_NS1_IS5_EEFNS_10unique_ptrI12SweetToppingNS_14default_deleteIS8_EEEEvEEEEEEC2B8ne180100ERSE_m, symObjAddr: 0xF724, symBinAddr: 0x100011B84, symSize: 0x2C }
  - { offset: 0x2ED3B, size: 0x8, addend: 0x0, symName: __ZNSt3__110unique_ptrINS_10__function6__funcIZN11ToppingListC1EvEUlvE2_NS_9allocatorIS4_EEFNS0_I12SweetToppingNS_14default_deleteIS7_EEEEvEEENS_22__allocator_destructorINS5_ISC_EEEEEC2B8ne180100ILb1EvEEPSC_NS_16__dependent_typeINS_27__unique_ptr_deleter_sfinaeISF_EEXT_EE20__good_rval_ref_typeE, symObjAddr: 0xF750, symBinAddr: 0x100011BB0, symSize: 0x48 }
  - { offset: 0x2ED8C, size: 0x8, addend: 0x0, symName: __ZNSt3__117__compressed_pairIPNS_10__function6__funcIZN11ToppingListC1EvEUlvE2_NS_9allocatorIS4_EEFNS_10unique_ptrI12SweetToppingNS_14default_deleteIS8_EEEEvEEENS_22__allocator_destructorINS5_ISD_EEEEEC1B8ne180100IRSE_SH_EEOT_OT0_, symObjAddr: 0xF798, symBinAddr: 0x100011BF8, symSize: 0x3C }
  - { offset: 0x2EDE4, size: 0x8, addend: 0x0, symName: __ZNSt3__117__compressed_pairIPNS_10__function6__funcIZN11ToppingListC1EvEUlvE2_NS_9allocatorIS4_EEFNS_10unique_ptrI12SweetToppingNS_14default_deleteIS8_EEEEvEEENS_22__allocator_destructorINS5_ISD_EEEEEC2B8ne180100IRSE_SH_EEOT_OT0_, symObjAddr: 0xF7D4, symBinAddr: 0x100011C34, symSize: 0x48 }
  - { offset: 0x2EE3C, size: 0x8, addend: 0x0, symName: __ZNSt3__122__compressed_pair_elemIPNS_10__function6__funcIZN11ToppingListC1EvEUlvE2_NS_9allocatorIS4_EEFNS_10unique_ptrI12SweetToppingNS_14default_deleteIS8_EEEEvEEELi0ELb0EEC2B8ne180100IRSE_vEEOT_, symObjAddr: 0xF81C, symBinAddr: 0x100011C7C, symSize: 0x24 }
  - { offset: 0x2EE7E, size: 0x8, addend: 0x0, symName: __ZNSt3__122__compressed_pair_elemINS_22__allocator_destructorINS_9allocatorINS_10__function6__funcIZN11ToppingListC1EvEUlvE2_NS2_IS6_EEFNS_10unique_ptrI12SweetToppingNS_14default_deleteIS9_EEEEvEEEEEEELi1ELb0EEC2B8ne180100ISG_vEEOT_, symObjAddr: 0xF840, symBinAddr: 0x100011CA0, symSize: 0x24 }
  - { offset: 0x2EEC0, size: 0x8, addend: 0x0, symName: __ZNKSt3__117__compressed_pairIPNS_10__function6__funcIZN11ToppingListC1EvEUlvE2_NS_9allocatorIS4_EEFNS_10unique_ptrI12SweetToppingNS_14default_deleteIS8_EEEEvEEENS_22__allocator_destructorINS5_ISD_EEEEE5firstB8ne180100Ev, symObjAddr: 0xF864, symBinAddr: 0x100011CC4, symSize: 0x24 }
  - { offset: 0x2EEE6, size: 0x8, addend: 0x0, symName: __ZNKSt3__122__compressed_pair_elemIPNS_10__function6__funcIZN11ToppingListC1EvEUlvE2_NS_9allocatorIS4_EEFNS_10unique_ptrI12SweetToppingNS_14default_deleteIS8_EEEEvEEELi0ELb0EE5__getB8ne180100Ev, symObjAddr: 0xF888, symBinAddr: 0x100011CE8, symSize: 0x14 }
  - { offset: 0x2EF0C, size: 0x8, addend: 0x0, symName: __ZNKSt3__117__compressed_pairIZN11ToppingListC1EvEUlvE2_NS_9allocatorIS2_EEE5firstB8ne180100Ev, symObjAddr: 0xF89C, symBinAddr: 0x100011CFC, symSize: 0x24 }
  - { offset: 0x2EF32, size: 0x8, addend: 0x0, symName: __ZNKSt3__122__compressed_pair_elemIZN11ToppingListC1EvEUlvE2_Li0ELb1EE5__getB8ne180100Ev, symObjAddr: 0xF8C0, symBinAddr: 0x100011D20, symSize: 0x14 }
  - { offset: 0x2EF58, size: 0x8, addend: 0x0, symName: __ZNSt3__110__function6__funcIZN11ToppingListC1EvEUlvE2_NS_9allocatorIS3_EEFNS_10unique_ptrI12SweetToppingNS_14default_deleteIS7_EEEEvEEC2B8ne180100ERKS3_OS5_, symObjAddr: 0xF8D4, symBinAddr: 0x100011D34, symSize: 0x80 }
  - { offset: 0x2EFA0, size: 0x8, addend: 0x0, symName: __ZNSt3__110__function12__alloc_funcIZN11ToppingListC1EvEUlvE2_NS_9allocatorIS3_EEFNS_10unique_ptrI12SweetToppingNS_14default_deleteIS7_EEEEvEEC1B8ne180100ERKS3_OS5_, symObjAddr: 0xF954, symBinAddr: 0x100011DB4, symSize: 0x3C }
  - { offset: 0x2EFE6, size: 0x8, addend: 0x0, symName: __ZNSt3__110__function12__alloc_funcIZN11ToppingListC1EvEUlvE2_NS_9allocatorIS3_EEFNS_10unique_ptrI12SweetToppingNS_14default_deleteIS7_EEEEvEEC2B8ne180100ERKS3_OS5_, symObjAddr: 0xF990, symBinAddr: 0x100011DF0, symSize: 0x5C }
  - { offset: 0x2F02C, size: 0x8, addend: 0x0, symName: __ZNSt3__117__compressed_pairIZN11ToppingListC1EvEUlvE2_NS_9allocatorIS2_EEEC1B8ne180100IJRKS2_EJOS4_EEENS_21piecewise_construct_tENS_5tupleIJDpT_EEENSB_IJDpT0_EEE, symObjAddr: 0xFA18, symBinAddr: 0x100011E78, symSize: 0x3C }
  - { offset: 0x2F096, size: 0x8, addend: 0x0, symName: __ZNSt3__15tupleIJRKZN11ToppingListC1EvEUlvE2_EEC1B8ne180100INS_4_AndELi0EEES4_, symObjAddr: 0xFA54, symBinAddr: 0x100011EB4, symSize: 0x34 }
  - { offset: 0x2F0DE, size: 0x8, addend: 0x0, symName: __ZNSt3__15tupleIJRKZN11ToppingListC1EvEUlvE2_EEC2B8ne180100INS_4_AndELi0EEES4_, symObjAddr: 0xFA88, symBinAddr: 0x100011EE8, symSize: 0x34 }
  - { offset: 0x2F126, size: 0x8, addend: 0x0, symName: __ZNSt3__112__tuple_implINS_15__tuple_indicesIJLm0EEEEJRKZN11ToppingListC1EvEUlvE2_EEC1B8ne180100IJLm0EEJS6_EJEJEJS6_EEENS1_IJXspT_EEEENS_13__tuple_typesIJDpT0_EEENS1_IJXspT1_EEEENSA_IJDpT2_EEEDpOT3_, symObjAddr: 0xFABC, symBinAddr: 0x100011F1C, symSize: 0x34 }
  - { offset: 0x2F1BB, size: 0x8, addend: 0x0, symName: __ZNSt3__112__tuple_implINS_15__tuple_indicesIJLm0EEEEJRKZN11ToppingListC1EvEUlvE2_EEC2B8ne180100IJLm0EEJS6_EJEJEJS6_EEENS1_IJXspT_EEEENS_13__tuple_typesIJDpT0_EEENS1_IJXspT1_EEEENSA_IJDpT2_EEEDpOT3_, symObjAddr: 0xFAF0, symBinAddr: 0x100011F50, symSize: 0x34 }
  - { offset: 0x2F250, size: 0x8, addend: 0x0, symName: __ZNSt3__112__tuple_leafILm0ERKZN11ToppingListC1EvEUlvE2_Lb0EEC2B8ne180100IS4_vEEOT_, symObjAddr: 0xFB24, symBinAddr: 0x100011F84, symSize: 0x20 }
  - { offset: 0x2F293, size: 0x8, addend: 0x0, symName: __ZNSt3__117__compressed_pairIZN11ToppingListC1EvEUlvE2_NS_9allocatorIS2_EEEC2B8ne180100IJRKS2_EJOS4_EEENS_21piecewise_construct_tENS_5tupleIJDpT_EEENSB_IJDpT0_EEE, symObjAddr: 0xFB44, symBinAddr: 0x100011FA4, symSize: 0x54 }
  - { offset: 0x2F2FD, size: 0x8, addend: 0x0, symName: __ZNSt3__122__compressed_pair_elemIZN11ToppingListC1EvEUlvE2_Li0ELb1EEC2B8ne180100IJRKS2_EJLm0EEEENS_21piecewise_construct_tENS_5tupleIJDpT_EEENS_15__tuple_indicesIJXspT0_EEEE, symObjAddr: 0xFB98, symBinAddr: 0x100011FF8, symSize: 0x38 }
  - { offset: 0x2F360, size: 0x8, addend: 0x0, symName: __ZNSt3__112__tuple_leafILm0ERKZN11ToppingListC1EvEUlvE2_Lb0EE3getB8ne180100Ev, symObjAddr: 0xFBF4, symBinAddr: 0x100012054, symSize: 0x18 }
  - { offset: 0x2F386, size: 0x8, addend: 0x0, symName: __ZNSt3__117__compressed_pairIPNS_10__function6__funcIZN11ToppingListC1EvEUlvE2_NS_9allocatorIS4_EEFNS_10unique_ptrI12SweetToppingNS_14default_deleteIS8_EEEEvEEENS_22__allocator_destructorINS5_ISD_EEEEE5firstB8ne180100Ev, symObjAddr: 0xFC0C, symBinAddr: 0x10001206C, symSize: 0x24 }
  - { offset: 0x2F3AC, size: 0x8, addend: 0x0, symName: __ZNSt3__122__compressed_pair_elemIPNS_10__function6__funcIZN11ToppingListC1EvEUlvE2_NS_9allocatorIS4_EEFNS_10unique_ptrI12SweetToppingNS_14default_deleteIS8_EEEEvEEELi0ELb0EE5__getB8ne180100Ev, symObjAddr: 0xFC30, symBinAddr: 0x100012090, symSize: 0x14 }
  - { offset: 0x2F3D2, size: 0x8, addend: 0x0, symName: __ZNSt3__110unique_ptrINS_10__function6__funcIZN11ToppingListC1EvEUlvE2_NS_9allocatorIS4_EEFNS0_I12SweetToppingNS_14default_deleteIS7_EEEEvEEENS_22__allocator_destructorINS5_ISC_EEEEED2B8ne180100Ev, symObjAddr: 0xFC44, symBinAddr: 0x1000120A4, symSize: 0x30 }
  - { offset: 0x2F3FC, size: 0x8, addend: 0x0, symName: __ZNSt3__110unique_ptrINS_10__function6__funcIZN11ToppingListC1EvEUlvE2_NS_9allocatorIS4_EEFNS0_I12SweetToppingNS_14default_deleteIS7_EEEEvEEENS_22__allocator_destructorINS5_ISC_EEEEE5resetB8ne180100EPSC_, symObjAddr: 0xFC74, symBinAddr: 0x1000120D4, symSize: 0x78 }
  - { offset: 0x2F440, size: 0x8, addend: 0x0, symName: __ZNSt3__117__compressed_pairIPNS_10__function6__funcIZN11ToppingListC1EvEUlvE2_NS_9allocatorIS4_EEFNS_10unique_ptrI12SweetToppingNS_14default_deleteIS8_EEEEvEEENS_22__allocator_destructorINS5_ISD_EEEEE6secondB8ne180100Ev, symObjAddr: 0xFCEC, symBinAddr: 0x10001214C, symSize: 0x28 }
  - { offset: 0x2F466, size: 0x8, addend: 0x0, symName: __ZNSt3__122__allocator_destructorINS_9allocatorINS_10__function6__funcIZN11ToppingListC1EvEUlvE2_NS1_IS5_EEFNS_10unique_ptrI12SweetToppingNS_14default_deleteIS8_EEEEvEEEEEEclB8ne180100EPSD_, symObjAddr: 0xFD14, symBinAddr: 0x100012174, symSize: 0x34 }
  - { offset: 0x2F49A, size: 0x8, addend: 0x0, symName: __ZNSt3__122__compressed_pair_elemINS_22__allocator_destructorINS_9allocatorINS_10__function6__funcIZN11ToppingListC1EvEUlvE2_NS2_IS6_EEFNS_10unique_ptrI12SweetToppingNS_14default_deleteIS9_EEEEvEEEEEEELi1ELb0EE5__getB8ne180100Ev, symObjAddr: 0xFD48, symBinAddr: 0x1000121A8, symSize: 0x14 }
  - { offset: 0x2F4C0, size: 0x8, addend: 0x0, symName: __ZNSt3__116allocator_traitsINS_9allocatorINS_10__function6__funcIZN11ToppingListC1EvEUlvE2_NS1_IS5_EEFNS_10unique_ptrI12SweetToppingNS_14default_deleteIS8_EEEEvEEEEEE10deallocateB8ne180100ERSE_PSD_m, symObjAddr: 0xFD5C, symBinAddr: 0x1000121BC, symSize: 0x34 }
  - { offset: 0x2F502, size: 0x8, addend: 0x0, symName: __ZNSt3__19allocatorINS_10__function6__funcIZN11ToppingListC1EvEUlvE2_NS0_IS4_EEFNS_10unique_ptrI12SweetToppingNS_14default_deleteIS7_EEEEvEEEE10deallocateB8ne180100EPSC_m, symObjAddr: 0xFD90, symBinAddr: 0x1000121F0, symSize: 0x40 }
  - { offset: 0x2F544, size: 0x8, addend: 0x0, symName: __ZNSt3__110__function6__funcIZN11ToppingListC1EvEUlvE2_NS_9allocatorIS3_EEFNS_10unique_ptrI12SweetToppingNS_14default_deleteIS7_EEEEvEEC1B8ne180100ERKS3_RKS5_, symObjAddr: 0xFDD0, symBinAddr: 0x100012230, symSize: 0x3C }
  - { offset: 0x2F58C, size: 0x8, addend: 0x0, symName: __ZNSt3__110__function6__funcIZN11ToppingListC1EvEUlvE2_NS_9allocatorIS3_EEFNS_10unique_ptrI12SweetToppingNS_14default_deleteIS7_EEEEvEEC2B8ne180100ERKS3_RKS5_, symObjAddr: 0xFE0C, symBinAddr: 0x10001226C, symSize: 0x80 }
  - { offset: 0x2F5D4, size: 0x8, addend: 0x0, symName: __ZNSt3__110__function12__alloc_funcIZN11ToppingListC1EvEUlvE2_NS_9allocatorIS3_EEFNS_10unique_ptrI12SweetToppingNS_14default_deleteIS7_EEEEvEEC1B8ne180100ERKS3_RKS5_, symObjAddr: 0xFE8C, symBinAddr: 0x1000122EC, symSize: 0x3C }
  - { offset: 0x2F61A, size: 0x8, addend: 0x0, symName: __ZNSt3__110__function12__alloc_funcIZN11ToppingListC1EvEUlvE2_NS_9allocatorIS3_EEFNS_10unique_ptrI12SweetToppingNS_14default_deleteIS7_EEEEvEEC2B8ne180100ERKS3_RKS5_, symObjAddr: 0xFEC8, symBinAddr: 0x100012328, symSize: 0x5C }
  - { offset: 0x2F660, size: 0x8, addend: 0x0, symName: __ZNSt3__117__compressed_pairIZN11ToppingListC1EvEUlvE2_NS_9allocatorIS2_EEEC1B8ne180100IJRKS2_EJRKS4_EEENS_21piecewise_construct_tENS_5tupleIJDpT_EEENSC_IJDpT0_EEE, symObjAddr: 0xFF50, symBinAddr: 0x1000123B0, symSize: 0x3C }
  - { offset: 0x2F6CA, size: 0x8, addend: 0x0, symName: __ZNSt3__15tupleIJRKNS_9allocatorIZN11ToppingListC1EvEUlvE2_EEEEC1B8ne180100INS_4_AndELi0EEES6_, symObjAddr: 0xFF8C, symBinAddr: 0x1000123EC, symSize: 0x34 }
  - { offset: 0x2F712, size: 0x8, addend: 0x0, symName: __ZNSt3__15tupleIJRKNS_9allocatorIZN11ToppingListC1EvEUlvE2_EEEEC2B8ne180100INS_4_AndELi0EEES6_, symObjAddr: 0xFFC0, symBinAddr: 0x100012420, symSize: 0x34 }
  - { offset: 0x2F75A, size: 0x8, addend: 0x0, symName: __ZNSt3__112__tuple_implINS_15__tuple_indicesIJLm0EEEEJRKNS_9allocatorIZN11ToppingListC1EvEUlvE2_EEEEC1B8ne180100IJLm0EEJS8_EJEJEJS8_EEENS1_IJXspT_EEEENS_13__tuple_typesIJDpT0_EEENS1_IJXspT1_EEEENSC_IJDpT2_EEEDpOT3_, symObjAddr: 0xFFF4, symBinAddr: 0x100012454, symSize: 0x34 }
  - { offset: 0x2F7EF, size: 0x8, addend: 0x0, symName: __ZNSt3__112__tuple_implINS_15__tuple_indicesIJLm0EEEEJRKNS_9allocatorIZN11ToppingListC1EvEUlvE2_EEEEC2B8ne180100IJLm0EEJS8_EJEJEJS8_EEENS1_IJXspT_EEEENS_13__tuple_typesIJDpT0_EEENS1_IJXspT1_EEEENSC_IJDpT2_EEEDpOT3_, symObjAddr: 0x10028, symBinAddr: 0x100012488, symSize: 0x34 }
  - { offset: 0x2F884, size: 0x8, addend: 0x0, symName: __ZNSt3__112__tuple_leafILm0ERKNS_9allocatorIZN11ToppingListC1EvEUlvE2_EELb0EEC2B8ne180100IS6_vEEOT_, symObjAddr: 0x1005C, symBinAddr: 0x1000124BC, symSize: 0x20 }
  - { offset: 0x2F8C7, size: 0x8, addend: 0x0, symName: __ZNSt3__117__compressed_pairIZN11ToppingListC1EvEUlvE2_NS_9allocatorIS2_EEEC2B8ne180100IJRKS2_EJRKS4_EEENS_21piecewise_construct_tENS_5tupleIJDpT_EEENSC_IJDpT0_EEE, symObjAddr: 0x1007C, symBinAddr: 0x1000124DC, symSize: 0x54 }
  - { offset: 0x2F931, size: 0x8, addend: 0x0, symName: __ZNSt3__122__compressed_pair_elemINS_9allocatorIZN11ToppingListC1EvEUlvE2_EELi1ELb1EEC2B8ne180100IJRKS4_EJLm0EEEENS_21piecewise_construct_tENS_5tupleIJDpT_EEENS_15__tuple_indicesIJXspT0_EEEE, symObjAddr: 0x100D0, symBinAddr: 0x100012530, symSize: 0x38 }
  - { offset: 0x2F994, size: 0x8, addend: 0x0, symName: __ZNSt3__112__tuple_leafILm0ERKNS_9allocatorIZN11ToppingListC1EvEUlvE2_EELb0EE3getB8ne180100Ev, symObjAddr: 0x1012C, symBinAddr: 0x10001258C, symSize: 0x18 }
  - { offset: 0x2F9BA, size: 0x8, addend: 0x0, symName: __ZNSt3__110__function12__alloc_funcIZN11ToppingListC1EvEUlvE2_NS_9allocatorIS3_EEFNS_10unique_ptrI12SweetToppingNS_14default_deleteIS7_EEEEvEE7destroyB8ne180100Ev, symObjAddr: 0x10144, symBinAddr: 0x1000125A4, symSize: 0x10 }
  - { offset: 0x2F9E0, size: 0x8, addend: 0x0, symName: __ZNSt3__110__function12__alloc_funcIZN11ToppingListC1EvEUlvE2_NS_9allocatorIS3_EEFNS_10unique_ptrI12SweetToppingNS_14default_deleteIS7_EEEEvEEclB8ne180100Ev, symObjAddr: 0x10154, symBinAddr: 0x1000125B4, symSize: 0x34 }
  - { offset: 0x2FA06, size: 0x8, addend: 0x0, symName: __ZNSt3__128__invoke_void_return_wrapperINS_10unique_ptrI12SweetToppingNS_14default_deleteIS2_EEEELb0EE6__callB8ne180100IJRZN11ToppingListC1EvEUlvE2_EEES5_DpOT_, symObjAddr: 0x10188, symBinAddr: 0x1000125E8, symSize: 0x2C }
  - { offset: 0x2FA35, size: 0x8, addend: 0x0, symName: __ZNSt3__117__compressed_pairIZN11ToppingListC1EvEUlvE2_NS_9allocatorIS2_EEE5firstB8ne180100Ev, symObjAddr: 0x101B4, symBinAddr: 0x100012614, symSize: 0x24 }
  - { offset: 0x2FA60, size: 0x8, addend: 0x0, symName: __ZZN11ToppingListC1EvENKUlvE2_clEv, symObjAddr: 0x10204, symBinAddr: 0x100012664, symSize: 0x30 }
  - { offset: 0x2FA8A, size: 0x8, addend: 0x0, symName: __ZNSt3__122__compressed_pair_elemIZN11ToppingListC1EvEUlvE2_Li0ELb1EE5__getB8ne180100Ev, symObjAddr: 0x10304, symBinAddr: 0x100012764, symSize: 0x14 }
  - { offset: 0x2FAB0, size: 0x8, addend: 0x0, symName: __ZNSt3__16vectorINS_8functionIFNS_10unique_ptrI12SweetToppingNS_14default_deleteIS3_EEEEvEEENS_9allocatorIS8_EEED2B8ne180100Ev, symObjAddr: 0x10318, symBinAddr: 0x100012778, symSize: 0x44 }
  - { offset: 0x2FADA, size: 0x8, addend: 0x0, symName: __ZNSt3__16vectorINS_8functionIFNS_10unique_ptrI12SweetToppingNS_14default_deleteIS3_EEEEvEEENS_9allocatorIS8_EEE16__destroy_vectorC1B8ne180100ERSB_, symObjAddr: 0x1035C, symBinAddr: 0x1000127BC, symSize: 0x34 }
  - { offset: 0x2FB13, size: 0x8, addend: 0x0, symName: __ZNSt3__16vectorINS_8functionIFNS_10unique_ptrI12SweetToppingNS_14default_deleteIS3_EEEEvEEENS_9allocatorIS8_EEE16__destroy_vectorclB8ne180100Ev, symObjAddr: 0x10390, symBinAddr: 0x1000127F0, symSize: 0x90 }
  - { offset: 0x2FB39, size: 0x8, addend: 0x0, symName: __ZNSt3__16vectorINS_8functionIFNS_10unique_ptrI12SweetToppingNS_14default_deleteIS3_EEEEvEEENS_9allocatorIS8_EEE16__destroy_vectorC2B8ne180100ERSB_, symObjAddr: 0x10420, symBinAddr: 0x100012880, symSize: 0x20 }
  - { offset: 0x2FB72, size: 0x8, addend: 0x0, symName: __ZNSt3__16vectorINS_8functionIFNS_10unique_ptrI12SweetToppingNS_14default_deleteIS3_EEEEvEEENS_9allocatorIS8_EEE7__clearB8ne180100Ev, symObjAddr: 0x10440, symBinAddr: 0x1000128A0, symSize: 0x28 }
  - { offset: 0x2FB98, size: 0x8, addend: 0x0, symName: __ZNSt3__16vectorINS_8functionIFNS_10unique_ptrI12SweetToppingNS_14default_deleteIS3_EEEEvEEENS_9allocatorIS8_EEE22__base_destruct_at_endB8ne180100EPS8_, symObjAddr: 0x10468, symBinAddr: 0x1000128C8, symSize: 0x8C }
  - { offset: 0x2FBDC, size: 0x8, addend: 0x0, symName: __ZNSt3__16vectorINS_8functionIFNS_10unique_ptrI12FruitToppingNS_14default_deleteIS3_EEEEvEEENS_9allocatorIS8_EEED2B8ne180100Ev, symObjAddr: 0x104F4, symBinAddr: 0x100012954, symSize: 0x44 }
  - { offset: 0x2FC06, size: 0x8, addend: 0x0, symName: __ZNSt3__16vectorINS_8functionIFNS_10unique_ptrI12FruitToppingNS_14default_deleteIS3_EEEEvEEENS_9allocatorIS8_EEE16__destroy_vectorC1B8ne180100ERSB_, symObjAddr: 0x10538, symBinAddr: 0x100012998, symSize: 0x34 }
  - { offset: 0x2FC3F, size: 0x8, addend: 0x0, symName: __ZNSt3__16vectorINS_8functionIFNS_10unique_ptrI12FruitToppingNS_14default_deleteIS3_EEEEvEEENS_9allocatorIS8_EEE16__destroy_vectorclB8ne180100Ev, symObjAddr: 0x1056C, symBinAddr: 0x1000129CC, symSize: 0x90 }
  - { offset: 0x2FC65, size: 0x8, addend: 0x0, symName: __ZNSt3__16vectorINS_8functionIFNS_10unique_ptrI12FruitToppingNS_14default_deleteIS3_EEEEvEEENS_9allocatorIS8_EEE16__destroy_vectorC2B8ne180100ERSB_, symObjAddr: 0x105FC, symBinAddr: 0x100012A5C, symSize: 0x20 }
  - { offset: 0x2FC9E, size: 0x8, addend: 0x0, symName: __ZNSt3__16vectorINS_8functionIFNS_10unique_ptrI12FruitToppingNS_14default_deleteIS3_EEEEvEEENS_9allocatorIS8_EEE7__clearB8ne180100Ev, symObjAddr: 0x1061C, symBinAddr: 0x100012A7C, symSize: 0x28 }
  - { offset: 0x2FCC4, size: 0x8, addend: 0x0, symName: __ZNSt3__16vectorINS_8functionIFNS_10unique_ptrI12FruitToppingNS_14default_deleteIS3_EEEEvEEENS_9allocatorIS8_EEE22__base_destruct_at_endB8ne180100EPS8_, symObjAddr: 0x10644, symBinAddr: 0x100012AA4, symSize: 0x8C }
  - { offset: 0x2FD08, size: 0x8, addend: 0x0, symName: __ZNSt3__110unique_ptrI5OrderNS_14default_deleteIS1_EEED2B8ne180100Ev, symObjAddr: 0x106D0, symBinAddr: 0x100012B30, symSize: 0x30 }
  - { offset: 0x2FD32, size: 0x8, addend: 0x0, symName: __ZNSt3__110unique_ptrI5OrderNS_14default_deleteIS1_EEE5resetB8ne180100EPS1_, symObjAddr: 0x10700, symBinAddr: 0x100012B60, symSize: 0x78 }
  - { offset: 0x2FD76, size: 0x8, addend: 0x0, symName: __ZNKSt3__114default_deleteI5OrderEclB8ne180100EPS1_, symObjAddr: 0x10778, symBinAddr: 0x100012BD8, symSize: 0x4C }
  - { offset: 0x2FDAA, size: 0x8, addend: 0x0, symName: __ZN5OrderD1Ev, symObjAddr: 0x107C4, symBinAddr: 0x100012C24, symSize: 0x2C }
  - { offset: 0x2FDD6, size: 0x8, addend: 0x0, symName: __ZN5OrderD2Ev, symObjAddr: 0x107F0, symBinAddr: 0x100012C50, symSize: 0x5C }
  - { offset: 0x2FE02, size: 0x8, addend: 0x0, symName: __ZNSt3__110unique_ptrI7ToppingNS_14default_deleteIS1_EEED1B8ne180100Ev, symObjAddr: 0x1084C, symBinAddr: 0x100012CAC, symSize: 0x2C }
  - { offset: 0x2FE2C, size: 0x8, addend: 0x0, symName: __ZNSt3__110unique_ptrI7ToppingNS_14default_deleteIS1_EEED2B8ne180100Ev, symObjAddr: 0x10878, symBinAddr: 0x100012CD8, symSize: 0x30 }
  - { offset: 0x2FE56, size: 0x8, addend: 0x0, symName: __ZNSt3__110unique_ptrI7ToppingNS_14default_deleteIS1_EEE5resetB8ne180100EPS1_, symObjAddr: 0x108A8, symBinAddr: 0x100012D08, symSize: 0x78 }
  - { offset: 0x2FE9A, size: 0x8, addend: 0x0, symName: __ZNSt3__117__compressed_pairIP7ToppingNS_14default_deleteIS1_EEE5firstB8ne180100Ev, symObjAddr: 0x10920, symBinAddr: 0x100012D80, symSize: 0x24 }
  - { offset: 0x2FEC0, size: 0x8, addend: 0x0, symName: __ZNSt3__117__compressed_pairIP7ToppingNS_14default_deleteIS1_EEE6secondB8ne180100Ev, symObjAddr: 0x10944, symBinAddr: 0x100012DA4, symSize: 0x24 }
  - { offset: 0x2FEE6, size: 0x8, addend: 0x0, symName: __ZNKSt3__114default_deleteI7ToppingEclB8ne180100EPS1_, symObjAddr: 0x10968, symBinAddr: 0x100012DC8, symSize: 0x4C }
  - { offset: 0x2FF1A, size: 0x8, addend: 0x0, symName: __ZNSt3__122__compressed_pair_elemIP7ToppingLi0ELb0EE5__getB8ne180100Ev, symObjAddr: 0x109B4, symBinAddr: 0x100012E14, symSize: 0x14 }
  - { offset: 0x2FF40, size: 0x8, addend: 0x0, symName: __ZNSt3__122__compressed_pair_elemINS_14default_deleteI7ToppingEELi1ELb1EE5__getB8ne180100Ev, symObjAddr: 0x109C8, symBinAddr: 0x100012E28, symSize: 0x14 }
  - { offset: 0x2FF66, size: 0x8, addend: 0x0, symName: __ZNSt3__16vectorINS_12basic_stringIcNS_11char_traitsIcEENS_9allocatorIcEEEENS4_IS6_EEEaSB8ne180100ERKS8_, symObjAddr: 0x109DC, symBinAddr: 0x100012E3C, symSize: 0x68 }
  - { offset: 0x2FF9D, size: 0x8, addend: 0x0, symName: __ZNSt3__16vectorINS_12basic_stringIcNS_11char_traitsIcEENS_9allocatorIcEEEENS4_IS6_EEE19__copy_assign_allocB8ne180100ERKS8_, symObjAddr: 0x10A44, symBinAddr: 0x100012EA4, symSize: 0x2C }
  - { offset: 0x2FFD2, size: 0x8, addend: 0x0, symName: __ZNSt3__16vectorINS_12basic_stringIcNS_11char_traitsIcEENS_9allocatorIcEEEENS4_IS6_EEE6assignIPS6_Li0EEEvT_SB_, symObjAddr: 0x10A70, symBinAddr: 0x100012ED0, symSize: 0x5C }
  - { offset: 0x30027, size: 0x8, addend: 0x0, symName: __ZNSt3__16vectorINS_12basic_stringIcNS_11char_traitsIcEENS_9allocatorIcEEEENS4_IS6_EEE19__copy_assign_allocB8ne180100ERKS8_NS_17integral_constantIbLb0EEE, symObjAddr: 0x10ACC, symBinAddr: 0x100012F2C, symSize: 0x14 }
  - { offset: 0x30065, size: 0x8, addend: 0x0, symName: __ZNSt3__16vectorINS_12basic_stringIcNS_11char_traitsIcEENS_9allocatorIcEEEENS4_IS6_EEE18__assign_with_sizeB8ne180100IPS6_SA_EEvT_T0_l, symObjAddr: 0x10AE0, symBinAddr: 0x100012F40, symSize: 0x164 }
  - { offset: 0x30117, size: 0x8, addend: 0x0, symName: __ZNKSt3__16vectorINS_12basic_stringIcNS_11char_traitsIcEENS_9allocatorIcEEEENS4_IS6_EEE4sizeB8ne180100Ev, symObjAddr: 0x10C70, symBinAddr: 0x1000130D0, symSize: 0x28 }
  - { offset: 0x3013D, size: 0x8, addend: 0x0, symName: __ZNSt3__16vectorINS_12basic_stringIcNS_11char_traitsIcEENS_9allocatorIcEEEENS4_IS6_EEE18__construct_at_endIPS6_SA_EEvT_T0_m, symObjAddr: 0x10D0C, symBinAddr: 0x10001316C, symSize: 0x8C }
  - { offset: 0x301B3, size: 0x8, addend: 0x0, symName: __ZNSt3__16vectorINS_12basic_stringIcNS_11char_traitsIcEENS_9allocatorIcEEEENS4_IS6_EEE17__destruct_at_endB8ne180100EPS6_, symObjAddr: 0x10DDC, symBinAddr: 0x10001323C, symSize: 0x4C }
  - { offset: 0x301F7, size: 0x8, addend: 0x0, symName: __ZNSt3__16vectorINS_12basic_stringIcNS_11char_traitsIcEENS_9allocatorIcEEEENS4_IS6_EEE13__vdeallocateEv, symObjAddr: 0x10E28, symBinAddr: 0x100013288, symSize: 0x94 }
  - { offset: 0x3021F, size: 0x8, addend: 0x0, symName: __ZNKSt3__16vectorINS_12basic_stringIcNS_11char_traitsIcEENS_9allocatorIcEEEENS4_IS6_EEE11__recommendB8ne180100Em, symObjAddr: 0x10EBC, symBinAddr: 0x10001331C, symSize: 0xB4 }
  - { offset: 0x30294, size: 0x8, addend: 0x0, symName: __ZNSt3__14pairIPNS_12basic_stringIcNS_11char_traitsIcEENS_9allocatorIcEEEES7_EC1B8ne180100IS7_S7_Li0EEEOT_OT0_, symObjAddr: 0x111F8, symBinAddr: 0x100013658, symSize: 0x3C }
  - { offset: 0x302F2, size: 0x8, addend: 0x0, symName: __ZNSt3__14pairIPNS_12basic_stringIcNS_11char_traitsIcEENS_9allocatorIcEEEES7_EC2B8ne180100IS7_S7_Li0EEEOT_OT0_, symObjAddr: 0x11234, symBinAddr: 0x100013694, symSize: 0x34 }
  - { offset: 0x30350, size: 0x8, addend: 0x0, symName: __ZNSt3__116allocator_traitsINS_9allocatorINS_12basic_stringIcNS_11char_traitsIcEENS1_IcEEEEEEE9constructB8ne180100IS6_JRS6_EvEEvRS7_PT_DpOT0_, symObjAddr: 0x11268, symBinAddr: 0x1000136C8, symSize: 0x34 }
  - { offset: 0x303A7, size: 0x8, addend: 0x0, symName: __ZNSt3__19allocatorINS_12basic_stringIcNS_11char_traitsIcEENS0_IcEEEEE9constructB8ne180100IS5_JRS5_EEEvPT_DpOT0_, symObjAddr: 0x1129C, symBinAddr: 0x1000136FC, symSize: 0x30 }
  - { offset: 0x30407, size: 0x8, addend: 0x0, symName: __ZNKSt3__111__copy_loopINS_17_ClassicAlgPolicyEEclB8ne180100IPNS_12basic_stringIcNS_11char_traitsIcEENS_9allocatorIcEEEESA_SA_EENS_4pairIT_T1_EESC_T0_SD_, symObjAddr: 0x113C4, symBinAddr: 0x100013824, symSize: 0x88 }
  - { offset: 0x30472, size: 0x8, addend: 0x0, symName: __ZNKSt3__16vectorINS_12basic_stringIcNS_11char_traitsIcEENS_9allocatorIcEEEENS4_IS6_EEE17__annotate_shrinkB8ne180100Em, symObjAddr: 0x11478, symBinAddr: 0x1000138D8, symSize: 0x14 }
  - { offset: 0x304A7, size: 0x8, addend: 0x0, symName: __ZNSt3__16vectorINS_12basic_stringIcNS_11char_traitsIcEENS_9allocatorIcEEEENS4_IS6_EEE5clearB8ne180100Ev, symObjAddr: 0x1148C, symBinAddr: 0x1000138EC, symSize: 0x44 }
  - { offset: 0x304DC, size: 0x8, addend: 0x0, symName: __ZN8Customer9getRandomERKNSt3__16vectorINS0_12basic_stringIcNS0_11char_traitsIcEENS0_9allocatorIcEEEENS5_IS7_EEEE, symObjAddr: 0x114F8, symBinAddr: 0x100013958, symSize: 0x70 }
  - { offset: 0x30510, size: 0x8, addend: 0x0, symName: __ZNSt3__110unique_ptrI5OrderNS_14default_deleteIS1_EEEaSB8ne180100EOS4_, symObjAddr: 0x11920, symBinAddr: 0x100013D80, symSize: 0x50 }
  - { offset: 0x30544, size: 0x8, addend: 0x0, symName: __ZNKSt3__16vectorINS_12basic_stringIcNS_11char_traitsIcEENS_9allocatorIcEEEENS4_IS6_EEEixB8ne180100Em, symObjAddr: 0x11970, symBinAddr: 0x100013DD0, symSize: 0x2C }
  - { offset: 0x3057B, size: 0x8, addend: 0x0, symName: __ZNSt3__16vectorINS_8functionIFNS_10unique_ptrI7ToppingNS_14default_deleteIS3_EEEEvEEENS_9allocatorIS8_EEEC1B8ne180100Ev, symObjAddr: 0x1199C, symBinAddr: 0x100013DFC, symSize: 0x2C }
  - { offset: 0x305A5, size: 0x8, addend: 0x0, symName: __ZNKSt3__16vectorINS_8functionIFNS_10unique_ptrI12FruitToppingNS_14default_deleteIS3_EEEEvEEENS_9allocatorIS8_EEE5beginB8ne180100Ev, symObjAddr: 0x119C8, symBinAddr: 0x100013E28, symSize: 0x30 }
  - { offset: 0x305CD, size: 0x8, addend: 0x0, symName: __ZNKSt3__16vectorINS_8functionIFNS_10unique_ptrI12FruitToppingNS_14default_deleteIS3_EEEEvEEENS_9allocatorIS8_EEE3endB8ne180100Ev, symObjAddr: 0x119F8, symBinAddr: 0x100013E58, symSize: 0x30 }
  - { offset: 0x305F5, size: 0x8, addend: 0x0, symName: __ZNKSt3__111__wrap_iterIPKNS_8functionIFNS_10unique_ptrI12FruitToppingNS_14default_deleteIS3_EEEEvEEEEdeB8ne180100Ev, symObjAddr: 0x11A5C, symBinAddr: 0x100013EBC, symSize: 0x18 }
  - { offset: 0x3061B, size: 0x8, addend: 0x0, symName: __ZNSt3__16vectorINS_8functionIFNS_10unique_ptrI7ToppingNS_14default_deleteIS3_EEEEvEEENS_9allocatorIS8_EEE9push_backB8ne180100EOS8_, symObjAddr: 0x11A74, symBinAddr: 0x100013ED4, symSize: 0x90 }
  - { offset: 0x30661, size: 0x8, addend: 0x0, symName: __ZNSt3__18functionIFNS_10unique_ptrI12FruitToppingNS_14default_deleteIS2_EEEEvEEC1ERKS7_, symObjAddr: 0x11B04, symBinAddr: 0x100013F64, symSize: 0x34 }
  - { offset: 0x3069C, size: 0x8, addend: 0x0, symName: __ZNSt3__18functionIFNS_10unique_ptrI7ToppingNS_14default_deleteIS2_EEEEvEEC1IZNK11ToppingList16getRandomToppingEvEUlvE_vEET_, symObjAddr: 0x11B38, symBinAddr: 0x100013F98, symSize: 0x34 }
  - { offset: 0x306E2, size: 0x8, addend: 0x0, symName: __ZNSt3__18functionIFNS_10unique_ptrI7ToppingNS_14default_deleteIS2_EEEEvEED1Ev, symObjAddr: 0x11B6C, symBinAddr: 0x100013FCC, symSize: 0x2C }
  - { offset: 0x30713, size: 0x8, addend: 0x0, symName: __ZZNK11ToppingList16getRandomToppingEvENUlvE_D1Ev, symObjAddr: 0x11B98, symBinAddr: 0x100013FF8, symSize: 0x2C }
  - { offset: 0x3073F, size: 0x8, addend: 0x0, symName: __ZNSt3__111__wrap_iterIPKNS_8functionIFNS_10unique_ptrI12FruitToppingNS_14default_deleteIS3_EEEEvEEEEppB8ne180100Ev, symObjAddr: 0x11BC4, symBinAddr: 0x100014024, symSize: 0x20 }
  - { offset: 0x30765, size: 0x8, addend: 0x0, symName: __ZNKSt3__16vectorINS_8functionIFNS_10unique_ptrI12SweetToppingNS_14default_deleteIS3_EEEEvEEENS_9allocatorIS8_EEE5beginB8ne180100Ev, symObjAddr: 0x11BE4, symBinAddr: 0x100014044, symSize: 0x30 }
  - { offset: 0x3078D, size: 0x8, addend: 0x0, symName: __ZNKSt3__16vectorINS_8functionIFNS_10unique_ptrI12SweetToppingNS_14default_deleteIS3_EEEEvEEENS_9allocatorIS8_EEE3endB8ne180100Ev, symObjAddr: 0x11C14, symBinAddr: 0x100014074, symSize: 0x30 }
  - { offset: 0x307B5, size: 0x8, addend: 0x0, symName: __ZNKSt3__111__wrap_iterIPKNS_8functionIFNS_10unique_ptrI12SweetToppingNS_14default_deleteIS3_EEEEvEEEEdeB8ne180100Ev, symObjAddr: 0x11C78, symBinAddr: 0x1000140D8, symSize: 0x18 }
  - { offset: 0x307DB, size: 0x8, addend: 0x0, symName: __ZNSt3__18functionIFNS_10unique_ptrI12SweetToppingNS_14default_deleteIS2_EEEEvEEC1ERKS7_, symObjAddr: 0x11C90, symBinAddr: 0x1000140F0, symSize: 0x34 }
  - { offset: 0x30816, size: 0x8, addend: 0x0, symName: __ZNSt3__18functionIFNS_10unique_ptrI7ToppingNS_14default_deleteIS2_EEEEvEEC1IZNK11ToppingList16getRandomToppingEvEUlvE0_vEET_, symObjAddr: 0x11CC4, symBinAddr: 0x100014124, symSize: 0x34 }
  - { offset: 0x30861, size: 0x8, addend: 0x0, symName: __ZZNK11ToppingList16getRandomToppingEvENUlvE0_D1Ev, symObjAddr: 0x11CF8, symBinAddr: 0x100014158, symSize: 0x2C }
  - { offset: 0x3088D, size: 0x8, addend: 0x0, symName: __ZNSt3__111__wrap_iterIPKNS_8functionIFNS_10unique_ptrI12SweetToppingNS_14default_deleteIS3_EEEEvEEEEppB8ne180100Ev, symObjAddr: 0x11D24, symBinAddr: 0x100014184, symSize: 0x20 }
  - { offset: 0x308B3, size: 0x8, addend: 0x0, symName: __ZNKSt3__16vectorINS_8functionIFNS_10unique_ptrI7ToppingNS_14default_deleteIS3_EEEEvEEENS_9allocatorIS8_EEE4sizeB8ne180100Ev, symObjAddr: 0x11D44, symBinAddr: 0x1000141A4, symSize: 0x28 }
  - { offset: 0x308D9, size: 0x8, addend: 0x0, symName: __ZNSt3__16vectorINS_8functionIFNS_10unique_ptrI7ToppingNS_14default_deleteIS3_EEEEvEEENS_9allocatorIS8_EEEixB8ne180100Em, symObjAddr: 0x11D6C, symBinAddr: 0x1000141CC, symSize: 0x24 }
  - { offset: 0x30910, size: 0x8, addend: 0x0, symName: __ZNKSt3__18functionIFNS_10unique_ptrI7ToppingNS_14default_deleteIS2_EEEEvEEclEv, symObjAddr: 0x11D90, symBinAddr: 0x1000141F0, symSize: 0x2C }
  - { offset: 0x30938, size: 0x8, addend: 0x0, symName: __ZNSt3__16vectorINS_8functionIFNS_10unique_ptrI7ToppingNS_14default_deleteIS3_EEEEvEEENS_9allocatorIS8_EEED1B8ne180100Ev, symObjAddr: 0x11DBC, symBinAddr: 0x10001421C, symSize: 0x2C }
  - { offset: 0x30962, size: 0x8, addend: 0x0, symName: __ZNSt3__16vectorINS_8functionIFNS_10unique_ptrI7ToppingNS_14default_deleteIS3_EEEEvEEENS_9allocatorIS8_EEEC2B8ne180100Ev, symObjAddr: 0x11DE8, symBinAddr: 0x100014248, symSize: 0x4C }
  - { offset: 0x3098C, size: 0x8, addend: 0x0, symName: __ZNSt3__117__compressed_pairIPNS_8functionIFNS_10unique_ptrI7ToppingNS_14default_deleteIS3_EEEEvEEENS_9allocatorIS8_EEEC1B8ne180100IDnNS_18__default_init_tagEEEOT_OT0_, symObjAddr: 0x11E34, symBinAddr: 0x100014294, symSize: 0x3C }
  - { offset: 0x309E4, size: 0x8, addend: 0x0, symName: __ZNSt3__117__compressed_pairIPNS_8functionIFNS_10unique_ptrI7ToppingNS_14default_deleteIS3_EEEEvEEENS_9allocatorIS8_EEEC2B8ne180100IDnNS_18__default_init_tagEEEOT_OT0_, symObjAddr: 0x11E70, symBinAddr: 0x1000142D0, symSize: 0x40 }
  - { offset: 0x30A3C, size: 0x8, addend: 0x0, symName: __ZNSt3__122__compressed_pair_elemIPNS_8functionIFNS_10unique_ptrI7ToppingNS_14default_deleteIS3_EEEEvEEELi0ELb0EEC2B8ne180100IDnvEEOT_, symObjAddr: 0x11EB0, symBinAddr: 0x100014310, symSize: 0x1C }
  - { offset: 0x30A7E, size: 0x8, addend: 0x0, symName: __ZNSt3__122__compressed_pair_elemINS_9allocatorINS_8functionIFNS_10unique_ptrI7ToppingNS_14default_deleteIS4_EEEEvEEEEELi1ELb1EEC2B8ne180100ENS_18__default_init_tagE, symObjAddr: 0x11ECC, symBinAddr: 0x10001432C, symSize: 0x2C }
  - { offset: 0x30AB2, size: 0x8, addend: 0x0, symName: __ZNSt3__19allocatorINS_8functionIFNS_10unique_ptrI7ToppingNS_14default_deleteIS3_EEEEvEEEEC2B8ne180100Ev, symObjAddr: 0x11EF8, symBinAddr: 0x100014358, symSize: 0x2C }
  - { offset: 0x30ADC, size: 0x8, addend: 0x0, symName: __ZNSt3__116__non_trivial_ifILb1ENS_9allocatorINS_8functionIFNS_10unique_ptrI7ToppingNS_14default_deleteIS4_EEEEvEEEEEEC2B8ne180100Ev, symObjAddr: 0x11F24, symBinAddr: 0x100014384, symSize: 0x14 }
  - { offset: 0x30B06, size: 0x8, addend: 0x0, symName: __ZNKSt3__16vectorINS_8functionIFNS_10unique_ptrI12FruitToppingNS_14default_deleteIS3_EEEEvEEENS_9allocatorIS8_EEE11__make_iterB8ne180100EPKS8_, symObjAddr: 0x11F38, symBinAddr: 0x100014398, symSize: 0x30 }
  - { offset: 0x30B3B, size: 0x8, addend: 0x0, symName: __ZNSt3__111__wrap_iterIPKNS_8functionIFNS_10unique_ptrI12FruitToppingNS_14default_deleteIS3_EEEEvEEEEC1B8ne180100ESA_, symObjAddr: 0x11F68, symBinAddr: 0x1000143C8, symSize: 0x34 }
  - { offset: 0x30B73, size: 0x8, addend: 0x0, symName: __ZNSt3__111__wrap_iterIPKNS_8functionIFNS_10unique_ptrI12FruitToppingNS_14default_deleteIS3_EEEEvEEEEC2B8ne180100ESA_, symObjAddr: 0x11F9C, symBinAddr: 0x1000143FC, symSize: 0x20 }
  - { offset: 0x30BAB, size: 0x8, addend: 0x0, symName: __ZNKSt3__111__wrap_iterIPKNS_8functionIFNS_10unique_ptrI12FruitToppingNS_14default_deleteIS3_EEEEvEEEE4baseB8ne180100Ev, symObjAddr: 0x12004, symBinAddr: 0x100014464, symSize: 0x18 }
  - { offset: 0x30BD1, size: 0x8, addend: 0x0, symName: __ZNSt3__16vectorINS_8functionIFNS_10unique_ptrI7ToppingNS_14default_deleteIS3_EEEEvEEENS_9allocatorIS8_EEE9__end_capB8ne180100Ev, symObjAddr: 0x1201C, symBinAddr: 0x10001447C, symSize: 0x28 }
  - { offset: 0x30BF7, size: 0x8, addend: 0x0, symName: __ZNSt3__16vectorINS_8functionIFNS_10unique_ptrI7ToppingNS_14default_deleteIS3_EEEEvEEENS_9allocatorIS8_EEE22__construct_one_at_endB8ne180100IJS8_EEEvDpOT_, symObjAddr: 0x12044, symBinAddr: 0x1000144A4, symSize: 0x90 }
  - { offset: 0x30C46, size: 0x8, addend: 0x0, symName: __ZNSt3__16vectorINS_8functionIFNS_10unique_ptrI7ToppingNS_14default_deleteIS3_EEEEvEEENS_9allocatorIS8_EEE21__push_back_slow_pathIS8_EEPS8_OT_, symObjAddr: 0x120D4, symBinAddr: 0x100014534, symSize: 0xE8 }
  - { offset: 0x30CA4, size: 0x8, addend: 0x0, symName: __ZNSt3__117__compressed_pairIPNS_8functionIFNS_10unique_ptrI7ToppingNS_14default_deleteIS3_EEEEvEEENS_9allocatorIS8_EEE5firstB8ne180100Ev, symObjAddr: 0x121BC, symBinAddr: 0x10001461C, symSize: 0x24 }
  - { offset: 0x30CCA, size: 0x8, addend: 0x0, symName: __ZNSt3__122__compressed_pair_elemIPNS_8functionIFNS_10unique_ptrI7ToppingNS_14default_deleteIS3_EEEEvEEELi0ELb0EE5__getB8ne180100Ev, symObjAddr: 0x121E0, symBinAddr: 0x100014640, symSize: 0x14 }
  - { offset: 0x30D09, size: 0x8, addend: 0x0, symName: __ZNSt3__16vectorINS_8functionIFNS_10unique_ptrI7ToppingNS_14default_deleteIS3_EEEEvEEENS_9allocatorIS8_EEE21_ConstructTransactionC1B8ne180100ERSB_m, symObjAddr: 0x121F4, symBinAddr: 0x100014654, symSize: 0x3C }
  - { offset: 0x30D51, size: 0x8, addend: 0x0, symName: __ZNSt3__116allocator_traitsINS_9allocatorINS_8functionIFNS_10unique_ptrI7ToppingNS_14default_deleteIS4_EEEEvEEEEEE9constructB8ne180100IS9_JS9_EvEEvRSA_PT_DpOT0_, symObjAddr: 0x12230, symBinAddr: 0x100014690, symSize: 0x34 }
  - { offset: 0x30DA8, size: 0x8, addend: 0x0, symName: __ZNSt3__16vectorINS_8functionIFNS_10unique_ptrI7ToppingNS_14default_deleteIS3_EEEEvEEENS_9allocatorIS8_EEE7__allocB8ne180100Ev, symObjAddr: 0x12264, symBinAddr: 0x1000146C4, symSize: 0x28 }
  - { offset: 0x30DCE, size: 0x8, addend: 0x0, symName: __ZNSt3__16vectorINS_8functionIFNS_10unique_ptrI7ToppingNS_14default_deleteIS3_EEEEvEEENS_9allocatorIS8_EEE21_ConstructTransactionD1B8ne180100Ev, symObjAddr: 0x122A0, symBinAddr: 0x100014700, symSize: 0x2C }
  - { offset: 0x30DF8, size: 0x8, addend: 0x0, symName: __ZNSt3__16vectorINS_8functionIFNS_10unique_ptrI7ToppingNS_14default_deleteIS3_EEEEvEEENS_9allocatorIS8_EEE21_ConstructTransactionC2B8ne180100ERSB_m, symObjAddr: 0x122CC, symBinAddr: 0x10001472C, symSize: 0x44 }
  - { offset: 0x30E40, size: 0x8, addend: 0x0, symName: __ZNSt3__19allocatorINS_8functionIFNS_10unique_ptrI7ToppingNS_14default_deleteIS3_EEEEvEEEE9constructB8ne180100IS8_JS8_EEEvPT_DpOT0_, symObjAddr: 0x12310, symBinAddr: 0x100014770, symSize: 0x30 }
  - { offset: 0x30E96, size: 0x8, addend: 0x0, symName: __ZNSt3__18functionIFNS_10unique_ptrI7ToppingNS_14default_deleteIS2_EEEEvEEC1EOS7_, symObjAddr: 0x12340, symBinAddr: 0x1000147A0, symSize: 0x34 }
  - { offset: 0x30ED1, size: 0x8, addend: 0x0, symName: __ZNSt3__18functionIFNS_10unique_ptrI7ToppingNS_14default_deleteIS2_EEEEvEEC2EOS7_, symObjAddr: 0x12374, symBinAddr: 0x1000147D4, symSize: 0x34 }
  - { offset: 0x30F0C, size: 0x8, addend: 0x0, symName: __ZNSt3__110__function12__value_funcIFNS_10unique_ptrI7ToppingNS_14default_deleteIS3_EEEEvEEC1B8ne180100EOS8_, symObjAddr: 0x123A8, symBinAddr: 0x100014808, symSize: 0x34 }
  - { offset: 0x30F45, size: 0x8, addend: 0x0, symName: __ZNSt3__110__function12__value_funcIFNS_10unique_ptrI7ToppingNS_14default_deleteIS3_EEEEvEEC2B8ne180100EOS8_, symObjAddr: 0x123DC, symBinAddr: 0x10001483C, symSize: 0xD0 }
  - { offset: 0x30F7E, size: 0x8, addend: 0x0, symName: __ZNSt3__110__function12__value_funcIFNS_10unique_ptrI7ToppingNS_14default_deleteIS3_EEEEvEE9__as_baseB8ne180100EPv, symObjAddr: 0x124AC, symBinAddr: 0x10001490C, symSize: 0x14 }
  - { offset: 0x30FA2, size: 0x8, addend: 0x0, symName: __ZNSt3__117__compressed_pairIPNS_8functionIFNS_10unique_ptrI7ToppingNS_14default_deleteIS3_EEEEvEEENS_9allocatorIS8_EEE6secondB8ne180100Ev, symObjAddr: 0x124C0, symBinAddr: 0x100014920, symSize: 0x24 }
  - { offset: 0x30FC8, size: 0x8, addend: 0x0, symName: __ZNSt3__122__compressed_pair_elemINS_9allocatorINS_8functionIFNS_10unique_ptrI7ToppingNS_14default_deleteIS4_EEEEvEEEEELi1ELb1EE5__getB8ne180100Ev, symObjAddr: 0x124E4, symBinAddr: 0x100014944, symSize: 0x14 }
  - { offset: 0x30FEE, size: 0x8, addend: 0x0, symName: __ZNSt3__16vectorINS_8functionIFNS_10unique_ptrI7ToppingNS_14default_deleteIS3_EEEEvEEENS_9allocatorIS8_EEE21_ConstructTransactionD2B8ne180100Ev, symObjAddr: 0x124F8, symBinAddr: 0x100014958, symSize: 0x20 }
  - { offset: 0x31018, size: 0x8, addend: 0x0, symName: __ZNKSt3__16vectorINS_8functionIFNS_10unique_ptrI7ToppingNS_14default_deleteIS3_EEEEvEEENS_9allocatorIS8_EEE11__recommendB8ne180100Em, symObjAddr: 0x12518, symBinAddr: 0x100014978, symSize: 0xB4 }
  - { offset: 0x3106D, size: 0x8, addend: 0x0, symName: __ZNSt3__114__split_bufferINS_8functionIFNS_10unique_ptrI7ToppingNS_14default_deleteIS3_EEEEvEEERNS_9allocatorIS8_EEEC1EmmSB_, symObjAddr: 0x125CC, symBinAddr: 0x100014A2C, symSize: 0x44 }
  - { offset: 0x310C3, size: 0x8, addend: 0x0, symName: __ZNSt3__114__split_bufferINS_8functionIFNS_10unique_ptrI7ToppingNS_14default_deleteIS3_EEEEvEEERNS_9allocatorIS8_EEED1Ev, symObjAddr: 0x12720, symBinAddr: 0x100014B80, symSize: 0x2C }
  - { offset: 0x310EF, size: 0x8, addend: 0x0, symName: __ZNKSt3__16vectorINS_8functionIFNS_10unique_ptrI7ToppingNS_14default_deleteIS3_EEEEvEEENS_9allocatorIS8_EEE8max_sizeEv, symObjAddr: 0x1274C, symBinAddr: 0x100014BAC, symSize: 0x60 }
  - { offset: 0x31117, size: 0x8, addend: 0x0, symName: __ZNKSt3__16vectorINS_8functionIFNS_10unique_ptrI7ToppingNS_14default_deleteIS3_EEEEvEEENS_9allocatorIS8_EEE20__throw_length_errorB8ne180100Ev, symObjAddr: 0x127AC, symBinAddr: 0x100014C0C, symSize: 0x1C }
  - { offset: 0x3113D, size: 0x8, addend: 0x0, symName: __ZNKSt3__16vectorINS_8functionIFNS_10unique_ptrI7ToppingNS_14default_deleteIS3_EEEEvEEENS_9allocatorIS8_EEE8capacityB8ne180100Ev, symObjAddr: 0x127C8, symBinAddr: 0x100014C28, symSize: 0x40 }
  - { offset: 0x3116D, size: 0x8, addend: 0x0, symName: __ZNSt3__116allocator_traitsINS_9allocatorINS_8functionIFNS_10unique_ptrI7ToppingNS_14default_deleteIS4_EEEEvEEEEEE8max_sizeB8ne180100ISA_vEEmRKSA_, symObjAddr: 0x12808, symBinAddr: 0x100014C68, symSize: 0x24 }
  - { offset: 0x3119B, size: 0x8, addend: 0x0, symName: __ZNKSt3__16vectorINS_8functionIFNS_10unique_ptrI7ToppingNS_14default_deleteIS3_EEEEvEEENS_9allocatorIS8_EEE7__allocB8ne180100Ev, symObjAddr: 0x1282C, symBinAddr: 0x100014C8C, symSize: 0x28 }
  - { offset: 0x311C1, size: 0x8, addend: 0x0, symName: __ZNKSt3__19allocatorINS_8functionIFNS_10unique_ptrI7ToppingNS_14default_deleteIS3_EEEEvEEEE8max_sizeB8ne180100Ev, symObjAddr: 0x12854, symBinAddr: 0x100014CB4, symSize: 0x14 }
  - { offset: 0x311E7, size: 0x8, addend: 0x0, symName: __ZNKSt3__117__compressed_pairIPNS_8functionIFNS_10unique_ptrI7ToppingNS_14default_deleteIS3_EEEEvEEENS_9allocatorIS8_EEE6secondB8ne180100Ev, symObjAddr: 0x12868, symBinAddr: 0x100014CC8, symSize: 0x24 }
  - { offset: 0x3120D, size: 0x8, addend: 0x0, symName: __ZNKSt3__122__compressed_pair_elemINS_9allocatorINS_8functionIFNS_10unique_ptrI7ToppingNS_14default_deleteIS4_EEEEvEEEEELi1ELb1EE5__getB8ne180100Ev, symObjAddr: 0x1288C, symBinAddr: 0x100014CEC, symSize: 0x14 }
  - { offset: 0x31233, size: 0x8, addend: 0x0, symName: __ZNKSt3__16vectorINS_8functionIFNS_10unique_ptrI7ToppingNS_14default_deleteIS3_EEEEvEEENS_9allocatorIS8_EEE9__end_capB8ne180100Ev, symObjAddr: 0x128A0, symBinAddr: 0x100014D00, symSize: 0x28 }
  - { offset: 0x31259, size: 0x8, addend: 0x0, symName: __ZNKSt3__117__compressed_pairIPNS_8functionIFNS_10unique_ptrI7ToppingNS_14default_deleteIS3_EEEEvEEENS_9allocatorIS8_EEE5firstB8ne180100Ev, symObjAddr: 0x128C8, symBinAddr: 0x100014D28, symSize: 0x24 }
  - { offset: 0x3127F, size: 0x8, addend: 0x0, symName: __ZNKSt3__122__compressed_pair_elemIPNS_8functionIFNS_10unique_ptrI7ToppingNS_14default_deleteIS3_EEEEvEEELi0ELb0EE5__getB8ne180100Ev, symObjAddr: 0x128EC, symBinAddr: 0x100014D4C, symSize: 0x14 }
  - { offset: 0x312A5, size: 0x8, addend: 0x0, symName: __ZNSt3__114__split_bufferINS_8functionIFNS_10unique_ptrI7ToppingNS_14default_deleteIS3_EEEEvEEERNS_9allocatorIS8_EEEC2EmmSB_, symObjAddr: 0x12900, symBinAddr: 0x100014D60, symSize: 0xD4 }
  - { offset: 0x31319, size: 0x8, addend: 0x0, symName: __ZNSt3__117__compressed_pairIPNS_8functionIFNS_10unique_ptrI7ToppingNS_14default_deleteIS3_EEEEvEEERNS_9allocatorIS8_EEEC1B8ne180100IDnSC_EEOT_OT0_, symObjAddr: 0x129D4, symBinAddr: 0x100014E34, symSize: 0x3C }
  - { offset: 0x31371, size: 0x8, addend: 0x0, symName: __ZNSt3__114__split_bufferINS_8functionIFNS_10unique_ptrI7ToppingNS_14default_deleteIS3_EEEEvEEERNS_9allocatorIS8_EEE7__allocB8ne180100Ev, symObjAddr: 0x12A50, symBinAddr: 0x100014EB0, symSize: 0x28 }
  - { offset: 0x31397, size: 0x8, addend: 0x0, symName: __ZNSt3__114__split_bufferINS_8functionIFNS_10unique_ptrI7ToppingNS_14default_deleteIS3_EEEEvEEERNS_9allocatorIS8_EEE9__end_capB8ne180100Ev, symObjAddr: 0x12A78, symBinAddr: 0x100014ED8, symSize: 0x28 }
  - { offset: 0x313BD, size: 0x8, addend: 0x0, symName: __ZNSt3__117__compressed_pairIPNS_8functionIFNS_10unique_ptrI7ToppingNS_14default_deleteIS3_EEEEvEEERNS_9allocatorIS8_EEEC2B8ne180100IDnSC_EEOT_OT0_, symObjAddr: 0x12AA0, symBinAddr: 0x100014F00, symSize: 0x48 }
  - { offset: 0x31415, size: 0x8, addend: 0x0, symName: __ZNSt3__122__compressed_pair_elemIRNS_9allocatorINS_8functionIFNS_10unique_ptrI7ToppingNS_14default_deleteIS4_EEEEvEEEEELi1ELb0EEC2B8ne180100ISB_vEEOT_, symObjAddr: 0x12AE8, symBinAddr: 0x100014F48, symSize: 0x20 }
  - { offset: 0x31457, size: 0x8, addend: 0x0, symName: __ZNSt3__19allocatorINS_8functionIFNS_10unique_ptrI7ToppingNS_14default_deleteIS3_EEEEvEEEE8allocateB8ne180100Em, symObjAddr: 0x12B08, symBinAddr: 0x100014F68, symSize: 0x58 }
  - { offset: 0x3148B, size: 0x8, addend: 0x0, symName: __ZNSt3__117__compressed_pairIPNS_8functionIFNS_10unique_ptrI7ToppingNS_14default_deleteIS3_EEEEvEEERNS_9allocatorIS8_EEE6secondB8ne180100Ev, symObjAddr: 0x12B60, symBinAddr: 0x100014FC0, symSize: 0x28 }
  - { offset: 0x314B1, size: 0x8, addend: 0x0, symName: __ZNSt3__122__compressed_pair_elemIRNS_9allocatorINS_8functionIFNS_10unique_ptrI7ToppingNS_14default_deleteIS4_EEEEvEEEEELi1ELb0EE5__getB8ne180100Ev, symObjAddr: 0x12B88, symBinAddr: 0x100014FE8, symSize: 0x18 }
  - { offset: 0x314D7, size: 0x8, addend: 0x0, symName: __ZNSt3__117__compressed_pairIPNS_8functionIFNS_10unique_ptrI7ToppingNS_14default_deleteIS3_EEEEvEEERNS_9allocatorIS8_EEE5firstB8ne180100Ev, symObjAddr: 0x12BA0, symBinAddr: 0x100015000, symSize: 0x24 }
  - { offset: 0x314FD, size: 0x8, addend: 0x0, symName: __ZNKSt3__16vectorINS_8functionIFNS_10unique_ptrI7ToppingNS_14default_deleteIS3_EEEEvEEENS_9allocatorIS8_EEE17__annotate_deleteB8ne180100Ev, symObjAddr: 0x12BC4, symBinAddr: 0x100015024, symSize: 0x10 }
  - { offset: 0x31523, size: 0x8, addend: 0x0, symName: __ZNSt3__116reverse_iteratorIPNS_8functionIFNS_10unique_ptrI7ToppingNS_14default_deleteIS3_EEEEvEEEEC1B8ne180100ES9_, symObjAddr: 0x12D00, symBinAddr: 0x100015160, symSize: 0x34 }
  - { offset: 0x3155B, size: 0x8, addend: 0x0, symName: __ZNKSt3__116reverse_iteratorIPNS_8functionIFNS_10unique_ptrI7ToppingNS_14default_deleteIS3_EEEEvEEEE4baseB8ne180100Ev, symObjAddr: 0x12D34, symBinAddr: 0x100015194, symSize: 0x18 }
  - { offset: 0x31581, size: 0x8, addend: 0x0, symName: __ZNKSt3__16vectorINS_8functionIFNS_10unique_ptrI7ToppingNS_14default_deleteIS3_EEEEvEEENS_9allocatorIS8_EEE14__annotate_newB8ne180100Em, symObjAddr: 0x12D88, symBinAddr: 0x1000151E8, symSize: 0x14 }
  - { offset: 0x315B6, size: 0x8, addend: 0x0, symName: __ZNSt3__129_AllocatorDestroyRangeReverseINS_9allocatorINS_8functionIFNS_10unique_ptrI7ToppingNS_14default_deleteIS4_EEEEvEEEEENS_16reverse_iteratorIPS9_EEEC1B8ne180100ERSA_RSD_SG_, symObjAddr: 0x12DE8, symBinAddr: 0x100015248, symSize: 0x44 }
  - { offset: 0x3160D, size: 0x8, addend: 0x0, symName: __ZNKSt3__116reverse_iteratorIPNS_8functionIFNS_10unique_ptrI7ToppingNS_14default_deleteIS3_EEEEvEEEEdeB8ne180100Ev, symObjAddr: 0x12E98, symBinAddr: 0x1000152F8, symSize: 0x28 }
  - { offset: 0x31641, size: 0x8, addend: 0x0, symName: __ZNSt3__116reverse_iteratorIPNS_8functionIFNS_10unique_ptrI7ToppingNS_14default_deleteIS3_EEEEvEEEEppB8ne180100Ev, symObjAddr: 0x12EC0, symBinAddr: 0x100015320, symSize: 0x20 }
  - { offset: 0x31667, size: 0x8, addend: 0x0, symName: __ZNSt3__128__exception_guard_exceptionsINS_29_AllocatorDestroyRangeReverseINS_9allocatorINS_8functionIFNS_10unique_ptrI7ToppingNS_14default_deleteIS5_EEEEvEEEEENS_16reverse_iteratorIPSA_EEEEE10__completeB8ne180100Ev, symObjAddr: 0x12EE0, symBinAddr: 0x100015340, symSize: 0x1C }
  - { offset: 0x3168D, size: 0x8, addend: 0x0, symName: __ZNSt3__128__exception_guard_exceptionsINS_29_AllocatorDestroyRangeReverseINS_9allocatorINS_8functionIFNS_10unique_ptrI7ToppingNS_14default_deleteIS5_EEEEvEEEEENS_16reverse_iteratorIPSA_EEEEED1B8ne180100Ev, symObjAddr: 0x12EFC, symBinAddr: 0x10001535C, symSize: 0x2C }
  - { offset: 0x316B7, size: 0x8, addend: 0x0, symName: __ZNSt3__128__exception_guard_exceptionsINS_29_AllocatorDestroyRangeReverseINS_9allocatorINS_8functionIFNS_10unique_ptrI7ToppingNS_14default_deleteIS5_EEEEvEEEEENS_16reverse_iteratorIPSA_EEEEEC1B8ne180100ESF_, symObjAddr: 0x12F28, symBinAddr: 0x100015388, symSize: 0x34 }
  - { offset: 0x316F0, size: 0x8, addend: 0x0, symName: __ZNSt3__128__exception_guard_exceptionsINS_29_AllocatorDestroyRangeReverseINS_9allocatorINS_8functionIFNS_10unique_ptrI7ToppingNS_14default_deleteIS5_EEEEvEEEEENS_16reverse_iteratorIPSA_EEEEEC2B8ne180100ESF_, symObjAddr: 0x12F5C, symBinAddr: 0x1000153BC, symSize: 0x30 }
  - { offset: 0x31729, size: 0x8, addend: 0x0, symName: __ZNSt3__129_AllocatorDestroyRangeReverseINS_9allocatorINS_8functionIFNS_10unique_ptrI7ToppingNS_14default_deleteIS4_EEEEvEEEEENS_16reverse_iteratorIPS9_EEEC2B8ne180100ERSA_RSD_SG_, symObjAddr: 0x12F8C, symBinAddr: 0x1000153EC, symSize: 0x38 }
  - { offset: 0x31785, size: 0x8, addend: 0x0, symName: __ZNSt3__119__to_address_helperINS_16reverse_iteratorIPNS_8functionIFNS_10unique_ptrI7ToppingNS_14default_deleteIS4_EEEEvEEEEEvE6__callB8ne180100ERKSB_, symObjAddr: 0x12FC4, symBinAddr: 0x100015424, symSize: 0x38 }
  - { offset: 0x317A8, size: 0x8, addend: 0x0, symName: __ZNKSt3__116reverse_iteratorIPNS_8functionIFNS_10unique_ptrI7ToppingNS_14default_deleteIS3_EEEEvEEEEptB8ne180100Ev, symObjAddr: 0x12FFC, symBinAddr: 0x10001545C, symSize: 0x24 }
  - { offset: 0x317CE, size: 0x8, addend: 0x0, symName: __ZNSt3__128__exception_guard_exceptionsINS_29_AllocatorDestroyRangeReverseINS_9allocatorINS_8functionIFNS_10unique_ptrI7ToppingNS_14default_deleteIS5_EEEEvEEEEENS_16reverse_iteratorIPSA_EEEEED2B8ne180100Ev, symObjAddr: 0x13020, symBinAddr: 0x100015480, symSize: 0x50 }
  - { offset: 0x317F8, size: 0x8, addend: 0x0, symName: __ZNKSt3__129_AllocatorDestroyRangeReverseINS_9allocatorINS_8functionIFNS_10unique_ptrI7ToppingNS_14default_deleteIS4_EEEEvEEEEENS_16reverse_iteratorIPS9_EEEclB8ne180100Ev, symObjAddr: 0x13070, symBinAddr: 0x1000154D0, symSize: 0xB4 }
  - { offset: 0x3181F, size: 0x8, addend: 0x0, symName: __ZNSt3__116reverse_iteratorINS0_IPNS_8functionIFNS_10unique_ptrI7ToppingNS_14default_deleteIS3_EEEEvEEEEEEC1B8ne180100ESA_, symObjAddr: 0x13194, symBinAddr: 0x1000155F4, symSize: 0x3C }
  - { offset: 0x31857, size: 0x8, addend: 0x0, symName: __ZNSt3__116allocator_traitsINS_9allocatorINS_8functionIFNS_10unique_ptrI7ToppingNS_14default_deleteIS4_EEEEvEEEEEE7destroyB8ne180100IS9_vEEvRSA_PT_, symObjAddr: 0x13230, symBinAddr: 0x100015690, symSize: 0x2C }
  - { offset: 0x31894, size: 0x8, addend: 0x0, symName: __ZNSt3__116reverse_iteratorINS0_IPNS_8functionIFNS_10unique_ptrI7ToppingNS_14default_deleteIS3_EEEEvEEEEEEppB8ne180100Ev, symObjAddr: 0x13280, symBinAddr: 0x1000156E0, symSize: 0x30 }
  - { offset: 0x318BA, size: 0x8, addend: 0x0, symName: __ZNKSt3__116reverse_iteratorINS0_IPNS_8functionIFNS_10unique_ptrI7ToppingNS_14default_deleteIS3_EEEEvEEEEEE4baseB8ne180100Ev, symObjAddr: 0x132B0, symBinAddr: 0x100015710, symSize: 0x24 }
  - { offset: 0x318E0, size: 0x8, addend: 0x0, symName: __ZNSt3__19allocatorINS_8functionIFNS_10unique_ptrI7ToppingNS_14default_deleteIS3_EEEEvEEEE7destroyB8ne180100EPS8_, symObjAddr: 0x132D4, symBinAddr: 0x100015734, symSize: 0x28 }
  - { offset: 0x31919, size: 0x8, addend: 0x0, symName: __ZNSt3__119__to_address_helperINS_16reverse_iteratorINS1_IPNS_8functionIFNS_10unique_ptrI7ToppingNS_14default_deleteIS4_EEEEvEEEEEEEvE6__callB8ne180100ERKSC_, symObjAddr: 0x132FC, symBinAddr: 0x10001575C, symSize: 0x38 }
  - { offset: 0x3193C, size: 0x8, addend: 0x0, symName: __ZNKSt3__116reverse_iteratorINS0_IPNS_8functionIFNS_10unique_ptrI7ToppingNS_14default_deleteIS3_EEEEvEEEEEEptB8ne180100Ev, symObjAddr: 0x13334, symBinAddr: 0x100015794, symSize: 0x24 }
  - { offset: 0x31962, size: 0x8, addend: 0x0, symName: __ZNKSt3__116reverse_iteratorINS0_IPNS_8functionIFNS_10unique_ptrI7ToppingNS_14default_deleteIS3_EEEEvEEEEEEdeB8ne180100Ev, symObjAddr: 0x13358, symBinAddr: 0x1000157B8, symSize: 0x34 }
  - { offset: 0x31996, size: 0x8, addend: 0x0, symName: __ZNSt3__116reverse_iteratorIPNS_8functionIFNS_10unique_ptrI7ToppingNS_14default_deleteIS3_EEEEvEEEEmmB8ne180100Ev, symObjAddr: 0x1338C, symBinAddr: 0x1000157EC, symSize: 0x20 }
  - { offset: 0x319BC, size: 0x8, addend: 0x0, symName: __ZNSt3__116reverse_iteratorINS0_IPNS_8functionIFNS_10unique_ptrI7ToppingNS_14default_deleteIS3_EEEEvEEEEEEC2B8ne180100ESA_, symObjAddr: 0x133AC, symBinAddr: 0x10001580C, symSize: 0x2C }
  - { offset: 0x319F4, size: 0x8, addend: 0x0, symName: __ZNSt3__116reverse_iteratorIPNS_8functionIFNS_10unique_ptrI7ToppingNS_14default_deleteIS3_EEEEvEEEEC2B8ne180100ES9_, symObjAddr: 0x133D8, symBinAddr: 0x100015838, symSize: 0x28 }
  - { offset: 0x31A2C, size: 0x8, addend: 0x0, symName: __ZNSt3__114__split_bufferINS_8functionIFNS_10unique_ptrI7ToppingNS_14default_deleteIS3_EEEEvEEERNS_9allocatorIS8_EEED2Ev, symObjAddr: 0x13400, symBinAddr: 0x100015860, symSize: 0x8C }
  - { offset: 0x31A58, size: 0x8, addend: 0x0, symName: __ZNSt3__114__split_bufferINS_8functionIFNS_10unique_ptrI7ToppingNS_14default_deleteIS3_EEEEvEEERNS_9allocatorIS8_EEE5clearB8ne180100Ev, symObjAddr: 0x1348C, symBinAddr: 0x1000158EC, symSize: 0x28 }
  - { offset: 0x31A7E, size: 0x8, addend: 0x0, symName: __ZNSt3__116allocator_traitsINS_9allocatorINS_8functionIFNS_10unique_ptrI7ToppingNS_14default_deleteIS4_EEEEvEEEEEE10deallocateB8ne180100ERSA_PS9_m, symObjAddr: 0x134B4, symBinAddr: 0x100015914, symSize: 0x34 }
  - { offset: 0x31AC0, size: 0x8, addend: 0x0, symName: __ZNKSt3__114__split_bufferINS_8functionIFNS_10unique_ptrI7ToppingNS_14default_deleteIS3_EEEEvEEERNS_9allocatorIS8_EEE8capacityB8ne180100Ev, symObjAddr: 0x134E8, symBinAddr: 0x100015948, symSize: 0x40 }
  - { offset: 0x31AE6, size: 0x8, addend: 0x0, symName: __ZNSt3__114__split_bufferINS_8functionIFNS_10unique_ptrI7ToppingNS_14default_deleteIS3_EEEEvEEERNS_9allocatorIS8_EEE17__destruct_at_endB8ne180100EPS8_, symObjAddr: 0x13528, symBinAddr: 0x100015988, symSize: 0x2C }
  - { offset: 0x31B1A, size: 0x8, addend: 0x0, symName: __ZNSt3__114__split_bufferINS_8functionIFNS_10unique_ptrI7ToppingNS_14default_deleteIS3_EEEEvEEERNS_9allocatorIS8_EEE17__destruct_at_endB8ne180100EPS8_NS_17integral_constantIbLb0EEE, symObjAddr: 0x13554, symBinAddr: 0x1000159B4, symSize: 0x80 }
  - { offset: 0x31B5A, size: 0x8, addend: 0x0, symName: __ZNSt3__19allocatorINS_8functionIFNS_10unique_ptrI7ToppingNS_14default_deleteIS3_EEEEvEEEE10deallocateB8ne180100EPS8_m, symObjAddr: 0x135D4, symBinAddr: 0x100015A34, symSize: 0x40 }
  - { offset: 0x31B9C, size: 0x8, addend: 0x0, symName: __ZNKSt3__114__split_bufferINS_8functionIFNS_10unique_ptrI7ToppingNS_14default_deleteIS3_EEEEvEEERNS_9allocatorIS8_EEE9__end_capB8ne180100Ev, symObjAddr: 0x13614, symBinAddr: 0x100015A74, symSize: 0x28 }
  - { offset: 0x31BC2, size: 0x8, addend: 0x0, symName: __ZNKSt3__117__compressed_pairIPNS_8functionIFNS_10unique_ptrI7ToppingNS_14default_deleteIS3_EEEEvEEERNS_9allocatorIS8_EEE5firstB8ne180100Ev, symObjAddr: 0x1363C, symBinAddr: 0x100015A9C, symSize: 0x24 }
  - { offset: 0x31BE8, size: 0x8, addend: 0x0, symName: __ZNSt3__18functionIFNS_10unique_ptrI12FruitToppingNS_14default_deleteIS2_EEEEvEEC2ERKS7_, symObjAddr: 0x13660, symBinAddr: 0x100015AC0, symSize: 0x34 }
  - { offset: 0x31C23, size: 0x8, addend: 0x0, symName: __ZNSt3__110__function12__value_funcIFNS_10unique_ptrI12FruitToppingNS_14default_deleteIS3_EEEEvEEC1B8ne180100ERKS8_, symObjAddr: 0x13694, symBinAddr: 0x100015AF4, symSize: 0x34 }
  - { offset: 0x31C5C, size: 0x8, addend: 0x0, symName: __ZNSt3__110__function12__value_funcIFNS_10unique_ptrI12FruitToppingNS_14default_deleteIS3_EEEEvEEC2B8ne180100ERKS8_, symObjAddr: 0x136C8, symBinAddr: 0x100015B28, symSize: 0xC0 }
  - { offset: 0x31C95, size: 0x8, addend: 0x0, symName: __ZNSt3__18functionIFNS_10unique_ptrI7ToppingNS_14default_deleteIS2_EEEEvEEC2IZNK11ToppingList16getRandomToppingEvEUlvE_vEET_, symObjAddr: 0x13788, symBinAddr: 0x100015BE8, symSize: 0x34 }
  - { offset: 0x31CDB, size: 0x8, addend: 0x0, symName: __ZNSt3__110__function12__value_funcIFNS_10unique_ptrI7ToppingNS_14default_deleteIS3_EEEEvEEC1B8ne180100IZNK11ToppingList16getRandomToppingEvEUlvE_Li0EEEOT_, symObjAddr: 0x137BC, symBinAddr: 0x100015C1C, symSize: 0x50 }
  - { offset: 0x31D23, size: 0x8, addend: 0x0, symName: __ZNSt3__19allocatorIZNK11ToppingList16getRandomToppingEvEUlvE_EC1B8ne180100Ev, symObjAddr: 0x1380C, symBinAddr: 0x100015C6C, symSize: 0x2C }
  - { offset: 0x31D4D, size: 0x8, addend: 0x0, symName: __ZNSt3__110__function12__value_funcIFNS_10unique_ptrI7ToppingNS_14default_deleteIS3_EEEEvEEC1B8ne180100IZNK11ToppingList16getRandomToppingEvEUlvE_NS_9allocatorISB_EEEEOT_RKT0_, symObjAddr: 0x13838, symBinAddr: 0x100015C98, symSize: 0x3C }
  - { offset: 0x31DA7, size: 0x8, addend: 0x0, symName: __ZNSt3__19allocatorIZNK11ToppingList16getRandomToppingEvEUlvE_EC2B8ne180100Ev, symObjAddr: 0x13874, symBinAddr: 0x100015CD4, symSize: 0x2C }
  - { offset: 0x31DD1, size: 0x8, addend: 0x0, symName: __ZNSt3__116__non_trivial_ifILb1ENS_9allocatorIZNK11ToppingList16getRandomToppingEvEUlvE_EEEC2B8ne180100Ev, symObjAddr: 0x138A0, symBinAddr: 0x100015D00, symSize: 0x14 }
  - { offset: 0x31DFB, size: 0x8, addend: 0x0, symName: __ZNSt3__110__function12__value_funcIFNS_10unique_ptrI7ToppingNS_14default_deleteIS3_EEEEvEEC2B8ne180100IZNK11ToppingList16getRandomToppingEvEUlvE_NS_9allocatorISB_EEEEOT_RKT0_, symObjAddr: 0x138B4, symBinAddr: 0x100015D14, symSize: 0xF4 }
  - { offset: 0x31EAE, size: 0x8, addend: 0x0, symName: __ZNSt3__19allocatorINS_10__function6__funcIZNK11ToppingList16getRandomToppingEvEUlvE_NS0_IS4_EEFNS_10unique_ptrI7ToppingNS_14default_deleteIS7_EEEEvEEEEC1B8ne180100IS4_EERKNS0_IT_EE, symObjAddr: 0x139C0, symBinAddr: 0x100015E20, symSize: 0x34 }
  - { offset: 0x31EEB, size: 0x8, addend: 0x0, symName: __ZNSt3__19allocatorINS_10__function6__funcIZNK11ToppingList16getRandomToppingEvEUlvE_NS0_IS4_EEFNS_10unique_ptrI7ToppingNS_14default_deleteIS7_EEEEvEEEE8allocateB8ne180100Em, symObjAddr: 0x139F4, symBinAddr: 0x100015E54, symSize: 0x5C }
  - { offset: 0x31F2E, size: 0x8, addend: 0x0, symName: __ZNSt3__122__allocator_destructorINS_9allocatorINS_10__function6__funcIZNK11ToppingList16getRandomToppingEvEUlvE_NS1_IS5_EEFNS_10unique_ptrI7ToppingNS_14default_deleteIS8_EEEEvEEEEEEC1B8ne180100ERSE_m, symObjAddr: 0x13A50, symBinAddr: 0x100015EB0, symSize: 0x3C }
  - { offset: 0x32002, size: 0x8, addend: 0x0, symName: __ZNSt3__110unique_ptrINS_10__function6__baseIFNS0_I7ToppingNS_14default_deleteIS3_EEEEvEEENS_22__allocator_destructorINS_9allocatorINS1_6__funcIZNK11ToppingList16getRandomToppingEvEUlvE_NSA_ISD_EES7_EEEEEEEC1B8ne180100ILb1EvEEPSF_NS_16__dependent_typeINS_27__unique_ptr_deleter_sfinaeISH_EEXT_EE20__good_rval_ref_typeE, symObjAddr: 0x13A8C, symBinAddr: 0x100015EEC, symSize: 0x3C }
  - { offset: 0x32053, size: 0x8, addend: 0x0, symName: __ZNKSt3__110unique_ptrINS_10__function6__baseIFNS0_I7ToppingNS_14default_deleteIS3_EEEEvEEENS_22__allocator_destructorINS_9allocatorINS1_6__funcIZNK11ToppingList16getRandomToppingEvEUlvE_NSA_ISD_EES7_EEEEEEE3getB8ne180100Ev, symObjAddr: 0x13AC8, symBinAddr: 0x100015F28, symSize: 0x28 }
  - { offset: 0x32079, size: 0x8, addend: 0x0, symName: __ZNSt3__110__function6__funcIZNK11ToppingList16getRandomToppingEvEUlvE_NS_9allocatorIS3_EEFNS_10unique_ptrI7ToppingNS_14default_deleteIS7_EEEEvEEC1B8ne180100EOS3_OS5_, symObjAddr: 0x13AF0, symBinAddr: 0x100015F50, symSize: 0x3C }
  - { offset: 0x320C1, size: 0x8, addend: 0x0, symName: __ZNSt3__110unique_ptrINS_10__function6__baseIFNS0_I7ToppingNS_14default_deleteIS3_EEEEvEEENS_22__allocator_destructorINS_9allocatorINS1_6__funcIZNK11ToppingList16getRandomToppingEvEUlvE_NSA_ISD_EES7_EEEEEEE7releaseB8ne180100Ev, symObjAddr: 0x13B2C, symBinAddr: 0x100015F8C, symSize: 0x44 }
  - { offset: 0x320F6, size: 0x8, addend: 0x0, symName: __ZNSt3__110unique_ptrINS_10__function6__baseIFNS0_I7ToppingNS_14default_deleteIS3_EEEEvEEENS_22__allocator_destructorINS_9allocatorINS1_6__funcIZNK11ToppingList16getRandomToppingEvEUlvE_NSA_ISD_EES7_EEEEEEED1B8ne180100Ev, symObjAddr: 0x13B70, symBinAddr: 0x100015FD0, symSize: 0x2C }
  - { offset: 0x32120, size: 0x8, addend: 0x0, symName: __ZNSt3__19allocatorINS_10__function6__funcIZNK11ToppingList16getRandomToppingEvEUlvE_NS0_IS4_EEFNS_10unique_ptrI7ToppingNS_14default_deleteIS7_EEEEvEEEEC2B8ne180100IS4_EERKNS0_IT_EE, symObjAddr: 0x13B9C, symBinAddr: 0x100015FFC, symSize: 0x30 }
  - { offset: 0x3215D, size: 0x8, addend: 0x0, symName: __ZNSt3__116__non_trivial_ifILb1ENS_9allocatorINS_10__function6__funcIZNK11ToppingList16getRandomToppingEvEUlvE_NS1_IS5_EEFNS_10unique_ptrI7ToppingNS_14default_deleteIS8_EEEEvEEEEEEC2B8ne180100Ev, symObjAddr: 0x13BCC, symBinAddr: 0x10001602C, symSize: 0x14 }
  - { offset: 0x32191, size: 0x8, addend: 0x0, symName: __ZNSt3__116allocator_traitsINS_9allocatorINS_10__function6__funcIZNK11ToppingList16getRandomToppingEvEUlvE_NS1_IS5_EEFNS_10unique_ptrI7ToppingNS_14default_deleteIS8_EEEEvEEEEEE8max_sizeB8ne180100ISE_vEEmRKSE_, symObjAddr: 0x13BE0, symBinAddr: 0x100016040, symSize: 0x24 }
  - { offset: 0x321BF, size: 0x8, addend: 0x0, symName: __ZNKSt3__19allocatorINS_10__function6__funcIZNK11ToppingList16getRandomToppingEvEUlvE_NS0_IS4_EEFNS_10unique_ptrI7ToppingNS_14default_deleteIS7_EEEEvEEEE8max_sizeB8ne180100Ev, symObjAddr: 0x13C04, symBinAddr: 0x100016064, symSize: 0x18 }
  - { offset: 0x321E5, size: 0x8, addend: 0x0, symName: __ZNSt3__122__allocator_destructorINS_9allocatorINS_10__function6__funcIZNK11ToppingList16getRandomToppingEvEUlvE_NS1_IS5_EEFNS_10unique_ptrI7ToppingNS_14default_deleteIS8_EEEEvEEEEEEC2B8ne180100ERSE_m, symObjAddr: 0x13C1C, symBinAddr: 0x10001607C, symSize: 0x2C }
  - { offset: 0x3222B, size: 0x8, addend: 0x0, symName: __ZNSt3__110unique_ptrINS_10__function6__baseIFNS0_I7ToppingNS_14default_deleteIS3_EEEEvEEENS_22__allocator_destructorINS_9allocatorINS1_6__funcIZNK11ToppingList16getRandomToppingEvEUlvE_NSA_ISD_EES7_EEEEEEEC2B8ne180100ILb1EvEEPSF_NS_16__dependent_typeINS_27__unique_ptr_deleter_sfinaeISH_EEXT_EE20__good_rval_ref_typeE, symObjAddr: 0x13C48, symBinAddr: 0x1000160A8, symSize: 0x48 }
  - { offset: 0x3227C, size: 0x8, addend: 0x0, symName: __ZNSt3__117__compressed_pairIPNS_10__function6__funcIZNK11ToppingList16getRandomToppingEvEUlvE_NS_9allocatorIS4_EEFNS_10unique_ptrI7ToppingNS_14default_deleteIS8_EEEEvEEENS_22__allocator_destructorINS5_ISD_EEEEEC1B8ne180100IRSE_SH_EEOT_OT0_, symObjAddr: 0x13C90, symBinAddr: 0x1000160F0, symSize: 0x3C }
  - { offset: 0x322D4, size: 0x8, addend: 0x0, symName: __ZNSt3__117__compressed_pairIPNS_10__function6__funcIZNK11ToppingList16getRandomToppingEvEUlvE_NS_9allocatorIS4_EEFNS_10unique_ptrI7ToppingNS_14default_deleteIS8_EEEEvEEENS_22__allocator_destructorINS5_ISD_EEEEEC2B8ne180100IRSE_SH_EEOT_OT0_, symObjAddr: 0x13CCC, symBinAddr: 0x10001612C, symSize: 0x48 }
  - { offset: 0x3232C, size: 0x8, addend: 0x0, symName: __ZNSt3__122__compressed_pair_elemIPNS_10__function6__funcIZNK11ToppingList16getRandomToppingEvEUlvE_NS_9allocatorIS4_EEFNS_10unique_ptrI7ToppingNS_14default_deleteIS8_EEEEvEEELi0ELb0EEC2B8ne180100IRSE_vEEOT_, symObjAddr: 0x13D14, symBinAddr: 0x100016174, symSize: 0x24 }
  - { offset: 0x3236E, size: 0x8, addend: 0x0, symName: __ZNSt3__122__compressed_pair_elemINS_22__allocator_destructorINS_9allocatorINS_10__function6__funcIZNK11ToppingList16getRandomToppingEvEUlvE_NS2_IS6_EEFNS_10unique_ptrI7ToppingNS_14default_deleteIS9_EEEEvEEEEEEELi1ELb0EEC2B8ne180100ISG_vEEOT_, symObjAddr: 0x13D38, symBinAddr: 0x100016198, symSize: 0x24 }
  - { offset: 0x323B0, size: 0x8, addend: 0x0, symName: __ZNKSt3__117__compressed_pairIPNS_10__function6__funcIZNK11ToppingList16getRandomToppingEvEUlvE_NS_9allocatorIS4_EEFNS_10unique_ptrI7ToppingNS_14default_deleteIS8_EEEEvEEENS_22__allocator_destructorINS5_ISD_EEEEE5firstB8ne180100Ev, symObjAddr: 0x13D5C, symBinAddr: 0x1000161BC, symSize: 0x24 }
  - { offset: 0x323D6, size: 0x8, addend: 0x0, symName: __ZNKSt3__122__compressed_pair_elemIPNS_10__function6__funcIZNK11ToppingList16getRandomToppingEvEUlvE_NS_9allocatorIS4_EEFNS_10unique_ptrI7ToppingNS_14default_deleteIS8_EEEEvEEELi0ELb0EE5__getB8ne180100Ev, symObjAddr: 0x13D80, symBinAddr: 0x1000161E0, symSize: 0x14 }
  - { offset: 0x323FC, size: 0x8, addend: 0x0, symName: __ZNSt3__110__function6__funcIZNK11ToppingList16getRandomToppingEvEUlvE_NS_9allocatorIS3_EEFNS_10unique_ptrI7ToppingNS_14default_deleteIS7_EEEEvEEC2B8ne180100EOS3_OS5_, symObjAddr: 0x13D94, symBinAddr: 0x1000161F4, symSize: 0x80 }
  - { offset: 0x32444, size: 0x8, addend: 0x0, symName: __ZNSt3__110__function6__baseIFNS_10unique_ptrI7ToppingNS_14default_deleteIS3_EEEEvEEC2B8ne180100Ev, symObjAddr: 0x13E14, symBinAddr: 0x100016274, symSize: 0x24 }
  - { offset: 0x3246E, size: 0x8, addend: 0x0, symName: __ZNSt3__110__function12__alloc_funcIZNK11ToppingList16getRandomToppingEvEUlvE_NS_9allocatorIS3_EEFNS_10unique_ptrI7ToppingNS_14default_deleteIS7_EEEEvEEC1B8ne180100EOS3_OS5_, symObjAddr: 0x13E38, symBinAddr: 0x100016298, symSize: 0x3C }
  - { offset: 0x324B4, size: 0x8, addend: 0x0, symName: __ZNSt3__110__function6__baseIFNS_10unique_ptrI7ToppingNS_14default_deleteIS3_EEEEvEED2Ev, symObjAddr: 0x13E74, symBinAddr: 0x1000162D4, symSize: 0x14 }
  - { offset: 0x324DE, size: 0x8, addend: 0x0, symName: __ZNSt3__110__function6__funcIZNK11ToppingList16getRandomToppingEvEUlvE_NS_9allocatorIS3_EEFNS_10unique_ptrI7ToppingNS_14default_deleteIS7_EEEEvEED1Ev, symObjAddr: 0x13E88, symBinAddr: 0x1000162E8, symSize: 0x2C }
  - { offset: 0x3250A, size: 0x8, addend: 0x0, symName: __ZNSt3__110__function6__funcIZNK11ToppingList16getRandomToppingEvEUlvE_NS_9allocatorIS3_EEFNS_10unique_ptrI7ToppingNS_14default_deleteIS7_EEEEvEED0Ev, symObjAddr: 0x13EB4, symBinAddr: 0x100016314, symSize: 0x30 }
  - { offset: 0x32536, size: 0x8, addend: 0x0, symName: __ZNKSt3__110__function6__funcIZNK11ToppingList16getRandomToppingEvEUlvE_NS_9allocatorIS3_EEFNS_10unique_ptrI7ToppingNS_14default_deleteIS7_EEEEvEE7__cloneEv, symObjAddr: 0x13EE4, symBinAddr: 0x100016344, symSize: 0xFC }
  - { offset: 0x32588, size: 0x8, addend: 0x0, symName: __ZNKSt3__110__function6__funcIZNK11ToppingList16getRandomToppingEvEUlvE_NS_9allocatorIS3_EEFNS_10unique_ptrI7ToppingNS_14default_deleteIS7_EEEEvEE7__cloneEPNS0_6__baseISB_EE, symObjAddr: 0x13FE0, symBinAddr: 0x100016440, symSize: 0x58 }
  - { offset: 0x325BF, size: 0x8, addend: 0x0, symName: __ZNSt3__110__function6__funcIZNK11ToppingList16getRandomToppingEvEUlvE_NS_9allocatorIS3_EEFNS_10unique_ptrI7ToppingNS_14default_deleteIS7_EEEEvEE7destroyEv, symObjAddr: 0x14038, symBinAddr: 0x100016498, symSize: 0x28 }
  - { offset: 0x325E7, size: 0x8, addend: 0x0, symName: __ZNSt3__110__function6__funcIZNK11ToppingList16getRandomToppingEvEUlvE_NS_9allocatorIS3_EEFNS_10unique_ptrI7ToppingNS_14default_deleteIS7_EEEEvEE18destroy_deallocateEv, symObjAddr: 0x14060, symBinAddr: 0x1000164C0, symSize: 0x58 }
  - { offset: 0x3262A, size: 0x8, addend: 0x0, symName: __ZNSt3__110__function6__funcIZNK11ToppingList16getRandomToppingEvEUlvE_NS_9allocatorIS3_EEFNS_10unique_ptrI7ToppingNS_14default_deleteIS7_EEEEvEEclEv, symObjAddr: 0x140B8, symBinAddr: 0x100016518, symSize: 0x30 }
  - { offset: 0x32652, size: 0x8, addend: 0x0, symName: __ZNKSt3__110__function6__funcIZNK11ToppingList16getRandomToppingEvEUlvE_NS_9allocatorIS3_EEFNS_10unique_ptrI7ToppingNS_14default_deleteIS7_EEEEvEE6targetERKSt9type_info, symObjAddr: 0x140E8, symBinAddr: 0x100016548, symSize: 0x60 }
  - { offset: 0x32689, size: 0x8, addend: 0x0, symName: __ZNKSt3__110__function6__funcIZNK11ToppingList16getRandomToppingEvEUlvE_NS_9allocatorIS3_EEFNS_10unique_ptrI7ToppingNS_14default_deleteIS7_EEEEvEE11target_typeEv, symObjAddr: 0x14148, symBinAddr: 0x1000165A8, symSize: 0x18 }
  - { offset: 0x326B1, size: 0x8, addend: 0x0, symName: __ZNSt3__110__function6__baseIFNS_10unique_ptrI7ToppingNS_14default_deleteIS3_EEEEvEED1Ev, symObjAddr: 0x14160, symBinAddr: 0x1000165C0, symSize: 0x14 }
  - { offset: 0x326DB, size: 0x8, addend: 0x0, symName: __ZNSt3__110__function6__baseIFNS_10unique_ptrI7ToppingNS_14default_deleteIS3_EEEEvEED0Ev, symObjAddr: 0x14174, symBinAddr: 0x1000165D4, symSize: 0xC }
  - { offset: 0x32705, size: 0x8, addend: 0x0, symName: __ZNSt3__110__function12__alloc_funcIZNK11ToppingList16getRandomToppingEvEUlvE_NS_9allocatorIS3_EEFNS_10unique_ptrI7ToppingNS_14default_deleteIS7_EEEEvEEC2B8ne180100EOS3_OS5_, symObjAddr: 0x14180, symBinAddr: 0x1000165E0, symSize: 0x5C }
  - { offset: 0x3274B, size: 0x8, addend: 0x0, symName: __ZNSt3__117__compressed_pairIZNK11ToppingList16getRandomToppingEvEUlvE_NS_9allocatorIS2_EEEC1B8ne180100IJOS2_EJOS4_EEENS_21piecewise_construct_tENS_5tupleIJDpT_EEENSA_IJDpT0_EEE, symObjAddr: 0x14234, symBinAddr: 0x100016694, symSize: 0x3C }
  - { offset: 0x327B5, size: 0x8, addend: 0x0, symName: __ZNSt3__15tupleIJOZNK11ToppingList16getRandomToppingEvEUlvE_EEC1B8ne180100IJS2_ELi0EEEDpOT_, symObjAddr: 0x14270, symBinAddr: 0x1000166D0, symSize: 0x34 }
  - { offset: 0x327FF, size: 0x8, addend: 0x0, symName: __ZNSt3__15tupleIJOZNK11ToppingList16getRandomToppingEvEUlvE_EEC2B8ne180100IJS2_ELi0EEEDpOT_, symObjAddr: 0x142A4, symBinAddr: 0x100016704, symSize: 0x34 }
  - { offset: 0x32849, size: 0x8, addend: 0x0, symName: __ZNSt3__112__tuple_implINS_15__tuple_indicesIJLm0EEEEJOZNK11ToppingList16getRandomToppingEvEUlvE_EEC1B8ne180100IJLm0EEJS5_EJEJEJS4_EEENS1_IJXspT_EEEENS_13__tuple_typesIJDpT0_EEENS1_IJXspT1_EEEENS9_IJDpT2_EEEDpOT3_, symObjAddr: 0x142D8, symBinAddr: 0x100016738, symSize: 0x34 }
  - { offset: 0x328DE, size: 0x8, addend: 0x0, symName: __ZNSt3__112__tuple_implINS_15__tuple_indicesIJLm0EEEEJOZNK11ToppingList16getRandomToppingEvEUlvE_EEC2B8ne180100IJLm0EEJS5_EJEJEJS4_EEENS1_IJXspT_EEEENS_13__tuple_typesIJDpT0_EEENS1_IJXspT1_EEEENS9_IJDpT2_EEEDpOT3_, symObjAddr: 0x1430C, symBinAddr: 0x10001676C, symSize: 0x34 }
  - { offset: 0x32973, size: 0x8, addend: 0x0, symName: __ZNSt3__112__tuple_leafILm0EOZNK11ToppingList16getRandomToppingEvEUlvE_Lb0EEC2B8ne180100IS2_vEEOT_, symObjAddr: 0x14340, symBinAddr: 0x1000167A0, symSize: 0x20 }
  - { offset: 0x329B6, size: 0x8, addend: 0x0, symName: __ZNSt3__15tupleIJONS_9allocatorIZNK11ToppingList16getRandomToppingEvEUlvE_EEEEC1B8ne180100IJS4_ELi0EEEDpOT_, symObjAddr: 0x14360, symBinAddr: 0x1000167C0, symSize: 0x34 }
  - { offset: 0x32A00, size: 0x8, addend: 0x0, symName: __ZNSt3__15tupleIJONS_9allocatorIZNK11ToppingList16getRandomToppingEvEUlvE_EEEEC2B8ne180100IJS4_ELi0EEEDpOT_, symObjAddr: 0x14394, symBinAddr: 0x1000167F4, symSize: 0x34 }
  - { offset: 0x32A4A, size: 0x8, addend: 0x0, symName: __ZNSt3__112__tuple_implINS_15__tuple_indicesIJLm0EEEEJONS_9allocatorIZNK11ToppingList16getRandomToppingEvEUlvE_EEEEC1B8ne180100IJLm0EEJS7_EJEJEJS6_EEENS1_IJXspT_EEEENS_13__tuple_typesIJDpT0_EEENS1_IJXspT1_EEEENSB_IJDpT2_EEEDpOT3_, symObjAddr: 0x143C8, symBinAddr: 0x100016828, symSize: 0x34 }
  - { offset: 0x32ADF, size: 0x8, addend: 0x0, symName: __ZNSt3__112__tuple_implINS_15__tuple_indicesIJLm0EEEEJONS_9allocatorIZNK11ToppingList16getRandomToppingEvEUlvE_EEEEC2B8ne180100IJLm0EEJS7_EJEJEJS6_EEENS1_IJXspT_EEEENS_13__tuple_typesIJDpT0_EEENS1_IJXspT1_EEEENSB_IJDpT2_EEEDpOT3_, symObjAddr: 0x143FC, symBinAddr: 0x10001685C, symSize: 0x34 }
  - { offset: 0x32B74, size: 0x8, addend: 0x0, symName: __ZNSt3__112__tuple_leafILm0EONS_9allocatorIZNK11ToppingList16getRandomToppingEvEUlvE_EELb0EEC2B8ne180100IS4_vEEOT_, symObjAddr: 0x14430, symBinAddr: 0x100016890, symSize: 0x20 }
  - { offset: 0x32BB7, size: 0x8, addend: 0x0, symName: __ZNSt3__117__compressed_pairIZNK11ToppingList16getRandomToppingEvEUlvE_NS_9allocatorIS2_EEEC2B8ne180100IJOS2_EJOS4_EEENS_21piecewise_construct_tENS_5tupleIJDpT_EEENSA_IJDpT0_EEE, symObjAddr: 0x14450, symBinAddr: 0x1000168B0, symSize: 0x7C }
  - { offset: 0x32C21, size: 0x8, addend: 0x0, symName: __ZNSt3__122__compressed_pair_elemIZNK11ToppingList16getRandomToppingEvEUlvE_Li0ELb0EEC2B8ne180100IJOS2_EJLm0EEEENS_21piecewise_construct_tENS_5tupleIJDpT_EEENS_15__tuple_indicesIJXspT0_EEEE, symObjAddr: 0x144CC, symBinAddr: 0x10001692C, symSize: 0x44 }
  - { offset: 0x32C84, size: 0x8, addend: 0x0, symName: __ZNSt3__122__compressed_pair_elemINS_9allocatorIZNK11ToppingList16getRandomToppingEvEUlvE_EELi1ELb1EEC2B8ne180100IJOS4_EJLm0EEEENS_21piecewise_construct_tENS_5tupleIJDpT_EEENS_15__tuple_indicesIJXspT0_EEEE, symObjAddr: 0x14510, symBinAddr: 0x100016970, symSize: 0x38 }
  - { offset: 0x32CE7, size: 0x8, addend: 0x0, symName: __ZNSt3__122__compressed_pair_elemIZNK11ToppingList16getRandomToppingEvEUlvE_Li0ELb0EED2Ev, symObjAddr: 0x14548, symBinAddr: 0x1000169A8, symSize: 0x2C }
  - { offset: 0x32D13, size: 0x8, addend: 0x0, symName: __ZZNK11ToppingList16getRandomToppingEvENUlvE_C1EOS0_, symObjAddr: 0x14598, symBinAddr: 0x1000169F8, symSize: 0x34 }
  - { offset: 0x32D48, size: 0x8, addend: 0x0, symName: __ZNSt3__112__tuple_leafILm0EOZNK11ToppingList16getRandomToppingEvEUlvE_Lb0EE3getB8ne180100Ev, symObjAddr: 0x145CC, symBinAddr: 0x100016A2C, symSize: 0x18 }
  - { offset: 0x32D6E, size: 0x8, addend: 0x0, symName: __ZZNK11ToppingList16getRandomToppingEvENUlvE_C2EOS0_, symObjAddr: 0x145E4, symBinAddr: 0x100016A44, symSize: 0x34 }
  - { offset: 0x32DA3, size: 0x8, addend: 0x0, symName: __ZNSt3__112__tuple_leafILm0EONS_9allocatorIZNK11ToppingList16getRandomToppingEvEUlvE_EELb0EE3getB8ne180100Ev, symObjAddr: 0x1463C, symBinAddr: 0x100016A9C, symSize: 0x18 }
  - { offset: 0x32DC9, size: 0x8, addend: 0x0, symName: __ZNSt3__110__function6__funcIZNK11ToppingList16getRandomToppingEvEUlvE_NS_9allocatorIS3_EEFNS_10unique_ptrI7ToppingNS_14default_deleteIS7_EEEEvEED2Ev, symObjAddr: 0x14654, symBinAddr: 0x100016AB4, symSize: 0x48 }
  - { offset: 0x32DF5, size: 0x8, addend: 0x0, symName: __ZNSt3__110__function12__alloc_funcIZNK11ToppingList16getRandomToppingEvEUlvE_NS_9allocatorIS3_EEFNS_10unique_ptrI7ToppingNS_14default_deleteIS7_EEEEvEED1Ev, symObjAddr: 0x1469C, symBinAddr: 0x100016AFC, symSize: 0x2C }
  - { offset: 0x32E21, size: 0x8, addend: 0x0, symName: __ZNSt3__110__function12__alloc_funcIZNK11ToppingList16getRandomToppingEvEUlvE_NS_9allocatorIS3_EEFNS_10unique_ptrI7ToppingNS_14default_deleteIS7_EEEEvEED2Ev, symObjAddr: 0x146C8, symBinAddr: 0x100016B28, symSize: 0x2C }
  - { offset: 0x32E4D, size: 0x8, addend: 0x0, symName: __ZNSt3__117__compressed_pairIZNK11ToppingList16getRandomToppingEvEUlvE_NS_9allocatorIS2_EEED1Ev, symObjAddr: 0x146F4, symBinAddr: 0x100016B54, symSize: 0x2C }
  - { offset: 0x32E79, size: 0x8, addend: 0x0, symName: __ZNSt3__117__compressed_pairIZNK11ToppingList16getRandomToppingEvEUlvE_NS_9allocatorIS2_EEED2Ev, symObjAddr: 0x14720, symBinAddr: 0x100016B80, symSize: 0x2C }
  - { offset: 0x32EA5, size: 0x8, addend: 0x0, symName: __ZNKSt3__110__function12__alloc_funcIZNK11ToppingList16getRandomToppingEvEUlvE_NS_9allocatorIS3_EEFNS_10unique_ptrI7ToppingNS_14default_deleteIS7_EEEEvEE15__get_allocatorB8ne180100Ev, symObjAddr: 0x1474C, symBinAddr: 0x100016BAC, symSize: 0x24 }
  - { offset: 0x32EF4, size: 0x8, addend: 0x0, symName: __ZNSt3__110unique_ptrINS_10__function6__funcIZNK11ToppingList16getRandomToppingEvEUlvE_NS_9allocatorIS4_EEFNS0_I7ToppingNS_14default_deleteIS7_EEEEvEEENS_22__allocator_destructorINS5_ISC_EEEEEC1B8ne180100ILb1EvEEPSC_NS_16__dependent_typeINS_27__unique_ptr_deleter_sfinaeISF_EEXT_EE20__good_rval_ref_typeE, symObjAddr: 0x14770, symBinAddr: 0x100016BD0, symSize: 0x3C }
  - { offset: 0x32F45, size: 0x8, addend: 0x0, symName: __ZNKSt3__110unique_ptrINS_10__function6__funcIZNK11ToppingList16getRandomToppingEvEUlvE_NS_9allocatorIS4_EEFNS0_I7ToppingNS_14default_deleteIS7_EEEEvEEENS_22__allocator_destructorINS5_ISC_EEEEE3getB8ne180100Ev, symObjAddr: 0x147AC, symBinAddr: 0x100016C0C, symSize: 0x28 }
  - { offset: 0x32F6B, size: 0x8, addend: 0x0, symName: __ZNKSt3__110__function12__alloc_funcIZNK11ToppingList16getRandomToppingEvEUlvE_NS_9allocatorIS3_EEFNS_10unique_ptrI7ToppingNS_14default_deleteIS7_EEEEvEE8__targetB8ne180100Ev, symObjAddr: 0x147D4, symBinAddr: 0x100016C34, symSize: 0x24 }
  - { offset: 0x32F96, size: 0x8, addend: 0x0, symName: __ZNSt3__19allocatorIZNK11ToppingList16getRandomToppingEvEUlvE_EC1B8ne180100INS_10__function6__funcIS2_S3_FNS_10unique_ptrI7ToppingNS_14default_deleteIS8_EEEEvEEEEERKNS0_IT_EE, symObjAddr: 0x147F8, symBinAddr: 0x100016C58, symSize: 0x34 }
  - { offset: 0x32FD3, size: 0x8, addend: 0x0, symName: __ZNSt3__110__function6__funcIZNK11ToppingList16getRandomToppingEvEUlvE_NS_9allocatorIS3_EEFNS_10unique_ptrI7ToppingNS_14default_deleteIS7_EEEEvEEC1B8ne180100ERKS3_OS5_, symObjAddr: 0x1482C, symBinAddr: 0x100016C8C, symSize: 0x3C }
  - { offset: 0x3301B, size: 0x8, addend: 0x0, symName: __ZNSt3__110unique_ptrINS_10__function6__funcIZNK11ToppingList16getRandomToppingEvEUlvE_NS_9allocatorIS4_EEFNS0_I7ToppingNS_14default_deleteIS7_EEEEvEEENS_22__allocator_destructorINS5_ISC_EEEEE7releaseB8ne180100Ev, symObjAddr: 0x14868, symBinAddr: 0x100016CC8, symSize: 0x44 }
  - { offset: 0x33050, size: 0x8, addend: 0x0, symName: __ZNSt3__110unique_ptrINS_10__function6__funcIZNK11ToppingList16getRandomToppingEvEUlvE_NS_9allocatorIS4_EEFNS0_I7ToppingNS_14default_deleteIS7_EEEEvEEENS_22__allocator_destructorINS5_ISC_EEEEED1B8ne180100Ev, symObjAddr: 0x148AC, symBinAddr: 0x100016D0C, symSize: 0x2C }
  - { offset: 0x3307A, size: 0x8, addend: 0x0, symName: __ZNKSt3__117__compressed_pairIZNK11ToppingList16getRandomToppingEvEUlvE_NS_9allocatorIS2_EEE6secondB8ne180100Ev, symObjAddr: 0x148D8, symBinAddr: 0x100016D38, symSize: 0x24 }
  - { offset: 0x330A0, size: 0x8, addend: 0x0, symName: __ZNKSt3__122__compressed_pair_elemINS_9allocatorIZNK11ToppingList16getRandomToppingEvEUlvE_EELi1ELb1EE5__getB8ne180100Ev, symObjAddr: 0x148FC, symBinAddr: 0x100016D5C, symSize: 0x14 }
  - { offset: 0x330C6, size: 0x8, addend: 0x0, symName: __ZNSt3__110unique_ptrINS_10__function6__funcIZNK11ToppingList16getRandomToppingEvEUlvE_NS_9allocatorIS4_EEFNS0_I7ToppingNS_14default_deleteIS7_EEEEvEEENS_22__allocator_destructorINS5_ISC_EEEEEC2B8ne180100ILb1EvEEPSC_NS_16__dependent_typeINS_27__unique_ptr_deleter_sfinaeISF_EEXT_EE20__good_rval_ref_typeE, symObjAddr: 0x14910, symBinAddr: 0x100016D70, symSize: 0x48 }
  - { offset: 0x33117, size: 0x8, addend: 0x0, symName: __ZNKSt3__117__compressed_pairIZNK11ToppingList16getRandomToppingEvEUlvE_NS_9allocatorIS2_EEE5firstB8ne180100Ev, symObjAddr: 0x14958, symBinAddr: 0x100016DB8, symSize: 0x24 }
  - { offset: 0x3313D, size: 0x8, addend: 0x0, symName: __ZNKSt3__122__compressed_pair_elemIZNK11ToppingList16getRandomToppingEvEUlvE_Li0ELb0EE5__getB8ne180100Ev, symObjAddr: 0x1497C, symBinAddr: 0x100016DDC, symSize: 0x14 }
  - { offset: 0x33163, size: 0x8, addend: 0x0, symName: __ZNSt3__19allocatorIZNK11ToppingList16getRandomToppingEvEUlvE_EC2B8ne180100INS_10__function6__funcIS2_S3_FNS_10unique_ptrI7ToppingNS_14default_deleteIS8_EEEEvEEEEERKNS0_IT_EE, symObjAddr: 0x14990, symBinAddr: 0x100016DF0, symSize: 0x30 }
  - { offset: 0x331A0, size: 0x8, addend: 0x0, symName: __ZNSt3__110__function6__funcIZNK11ToppingList16getRandomToppingEvEUlvE_NS_9allocatorIS3_EEFNS_10unique_ptrI7ToppingNS_14default_deleteIS7_EEEEvEEC2B8ne180100ERKS3_OS5_, symObjAddr: 0x149C0, symBinAddr: 0x100016E20, symSize: 0x80 }
  - { offset: 0x331E8, size: 0x8, addend: 0x0, symName: __ZNSt3__110__function12__alloc_funcIZNK11ToppingList16getRandomToppingEvEUlvE_NS_9allocatorIS3_EEFNS_10unique_ptrI7ToppingNS_14default_deleteIS7_EEEEvEEC1B8ne180100ERKS3_OS5_, symObjAddr: 0x14A40, symBinAddr: 0x100016EA0, symSize: 0x3C }
  - { offset: 0x3322E, size: 0x8, addend: 0x0, symName: __ZNSt3__110__function12__alloc_funcIZNK11ToppingList16getRandomToppingEvEUlvE_NS_9allocatorIS3_EEFNS_10unique_ptrI7ToppingNS_14default_deleteIS7_EEEEvEEC2B8ne180100ERKS3_OS5_, symObjAddr: 0x14A7C, symBinAddr: 0x100016EDC, symSize: 0x5C }
  - { offset: 0x33274, size: 0x8, addend: 0x0, symName: __ZNSt3__117__compressed_pairIZNK11ToppingList16getRandomToppingEvEUlvE_NS_9allocatorIS2_EEEC1B8ne180100IJRKS2_EJOS4_EEENS_21piecewise_construct_tENS_5tupleIJDpT_EEENSB_IJDpT0_EEE, symObjAddr: 0x14B04, symBinAddr: 0x100016F64, symSize: 0x3C }
  - { offset: 0x332DE, size: 0x8, addend: 0x0, symName: __ZNSt3__15tupleIJRKZNK11ToppingList16getRandomToppingEvEUlvE_EEC1B8ne180100INS_4_AndELi0EEES4_, symObjAddr: 0x14B40, symBinAddr: 0x100016FA0, symSize: 0x34 }
  - { offset: 0x33326, size: 0x8, addend: 0x0, symName: __ZNSt3__15tupleIJRKZNK11ToppingList16getRandomToppingEvEUlvE_EEC2B8ne180100INS_4_AndELi0EEES4_, symObjAddr: 0x14B74, symBinAddr: 0x100016FD4, symSize: 0x34 }
  - { offset: 0x3336E, size: 0x8, addend: 0x0, symName: __ZNSt3__112__tuple_implINS_15__tuple_indicesIJLm0EEEEJRKZNK11ToppingList16getRandomToppingEvEUlvE_EEC1B8ne180100IJLm0EEJS6_EJEJEJS6_EEENS1_IJXspT_EEEENS_13__tuple_typesIJDpT0_EEENS1_IJXspT1_EEEENSA_IJDpT2_EEEDpOT3_, symObjAddr: 0x14BA8, symBinAddr: 0x100017008, symSize: 0x34 }
  - { offset: 0x33403, size: 0x8, addend: 0x0, symName: __ZNSt3__112__tuple_implINS_15__tuple_indicesIJLm0EEEEJRKZNK11ToppingList16getRandomToppingEvEUlvE_EEC2B8ne180100IJLm0EEJS6_EJEJEJS6_EEENS1_IJXspT_EEEENS_13__tuple_typesIJDpT0_EEENS1_IJXspT1_EEEENSA_IJDpT2_EEEDpOT3_, symObjAddr: 0x14BDC, symBinAddr: 0x10001703C, symSize: 0x34 }
  - { offset: 0x33498, size: 0x8, addend: 0x0, symName: __ZNSt3__112__tuple_leafILm0ERKZNK11ToppingList16getRandomToppingEvEUlvE_Lb0EEC2B8ne180100IS4_vEEOT_, symObjAddr: 0x14C10, symBinAddr: 0x100017070, symSize: 0x20 }
  - { offset: 0x334DB, size: 0x8, addend: 0x0, symName: __ZNSt3__117__compressed_pairIZNK11ToppingList16getRandomToppingEvEUlvE_NS_9allocatorIS2_EEEC2B8ne180100IJRKS2_EJOS4_EEENS_21piecewise_construct_tENS_5tupleIJDpT_EEENSB_IJDpT0_EEE, symObjAddr: 0x14C30, symBinAddr: 0x100017090, symSize: 0x54 }
  - { offset: 0x33545, size: 0x8, addend: 0x0, symName: __ZNSt3__122__compressed_pair_elemIZNK11ToppingList16getRandomToppingEvEUlvE_Li0ELb0EEC2B8ne180100IJRKS2_EJLm0EEEENS_21piecewise_construct_tENS_5tupleIJDpT_EEENS_15__tuple_indicesIJXspT0_EEEE, symObjAddr: 0x14C84, symBinAddr: 0x1000170E4, symSize: 0x44 }
  - { offset: 0x335A8, size: 0x8, addend: 0x0, symName: __ZZNK11ToppingList16getRandomToppingEvENUlvE_C1ERKS0_, symObjAddr: 0x14CEC, symBinAddr: 0x10001714C, symSize: 0x34 }
  - { offset: 0x335DD, size: 0x8, addend: 0x0, symName: __ZNSt3__112__tuple_leafILm0ERKZNK11ToppingList16getRandomToppingEvEUlvE_Lb0EE3getB8ne180100Ev, symObjAddr: 0x14D20, symBinAddr: 0x100017180, symSize: 0x18 }
  - { offset: 0x33603, size: 0x8, addend: 0x0, symName: __ZZNK11ToppingList16getRandomToppingEvENUlvE_C2ERKS0_, symObjAddr: 0x14D38, symBinAddr: 0x100017198, symSize: 0x34 }
  - { offset: 0x33638, size: 0x8, addend: 0x0, symName: __ZNSt3__117__compressed_pairIPNS_10__function6__funcIZNK11ToppingList16getRandomToppingEvEUlvE_NS_9allocatorIS4_EEFNS_10unique_ptrI7ToppingNS_14default_deleteIS8_EEEEvEEENS_22__allocator_destructorINS5_ISD_EEEEE5firstB8ne180100Ev, symObjAddr: 0x14D6C, symBinAddr: 0x1000171CC, symSize: 0x24 }
  - { offset: 0x3365E, size: 0x8, addend: 0x0, symName: __ZNSt3__122__compressed_pair_elemIPNS_10__function6__funcIZNK11ToppingList16getRandomToppingEvEUlvE_NS_9allocatorIS4_EEFNS_10unique_ptrI7ToppingNS_14default_deleteIS8_EEEEvEEELi0ELb0EE5__getB8ne180100Ev, symObjAddr: 0x14D90, symBinAddr: 0x1000171F0, symSize: 0x14 }
  - { offset: 0x33684, size: 0x8, addend: 0x0, symName: __ZNSt3__110unique_ptrINS_10__function6__funcIZNK11ToppingList16getRandomToppingEvEUlvE_NS_9allocatorIS4_EEFNS0_I7ToppingNS_14default_deleteIS7_EEEEvEEENS_22__allocator_destructorINS5_ISC_EEEEED2B8ne180100Ev, symObjAddr: 0x14DA4, symBinAddr: 0x100017204, symSize: 0x30 }
  - { offset: 0x336AE, size: 0x8, addend: 0x0, symName: __ZNSt3__110unique_ptrINS_10__function6__funcIZNK11ToppingList16getRandomToppingEvEUlvE_NS_9allocatorIS4_EEFNS0_I7ToppingNS_14default_deleteIS7_EEEEvEEENS_22__allocator_destructorINS5_ISC_EEEEE5resetB8ne180100EPSC_, symObjAddr: 0x14DD4, symBinAddr: 0x100017234, symSize: 0x78 }
  - { offset: 0x336F2, size: 0x8, addend: 0x0, symName: __ZNSt3__117__compressed_pairIPNS_10__function6__funcIZNK11ToppingList16getRandomToppingEvEUlvE_NS_9allocatorIS4_EEFNS_10unique_ptrI7ToppingNS_14default_deleteIS8_EEEEvEEENS_22__allocator_destructorINS5_ISD_EEEEE6secondB8ne180100Ev, symObjAddr: 0x14E4C, symBinAddr: 0x1000172AC, symSize: 0x28 }
  - { offset: 0x33718, size: 0x8, addend: 0x0, symName: __ZNSt3__122__allocator_destructorINS_9allocatorINS_10__function6__funcIZNK11ToppingList16getRandomToppingEvEUlvE_NS1_IS5_EEFNS_10unique_ptrI7ToppingNS_14default_deleteIS8_EEEEvEEEEEEclB8ne180100EPSD_, symObjAddr: 0x14E74, symBinAddr: 0x1000172D4, symSize: 0x34 }
  - { offset: 0x3374C, size: 0x8, addend: 0x0, symName: __ZNSt3__122__compressed_pair_elemINS_22__allocator_destructorINS_9allocatorINS_10__function6__funcIZNK11ToppingList16getRandomToppingEvEUlvE_NS2_IS6_EEFNS_10unique_ptrI7ToppingNS_14default_deleteIS9_EEEEvEEEEEEELi1ELb0EE5__getB8ne180100Ev, symObjAddr: 0x14EA8, symBinAddr: 0x100017308, symSize: 0x14 }
  - { offset: 0x33772, size: 0x8, addend: 0x0, symName: __ZNSt3__116allocator_traitsINS_9allocatorINS_10__function6__funcIZNK11ToppingList16getRandomToppingEvEUlvE_NS1_IS5_EEFNS_10unique_ptrI7ToppingNS_14default_deleteIS8_EEEEvEEEEEE10deallocateB8ne180100ERSE_PSD_m, symObjAddr: 0x14EBC, symBinAddr: 0x10001731C, symSize: 0x34 }
  - { offset: 0x337B4, size: 0x8, addend: 0x0, symName: __ZNSt3__19allocatorINS_10__function6__funcIZNK11ToppingList16getRandomToppingEvEUlvE_NS0_IS4_EEFNS_10unique_ptrI7ToppingNS_14default_deleteIS7_EEEEvEEEE10deallocateB8ne180100EPSC_m, symObjAddr: 0x14EF0, symBinAddr: 0x100017350, symSize: 0x44 }
  - { offset: 0x337F6, size: 0x8, addend: 0x0, symName: __ZNSt3__110__function6__funcIZNK11ToppingList16getRandomToppingEvEUlvE_NS_9allocatorIS3_EEFNS_10unique_ptrI7ToppingNS_14default_deleteIS7_EEEEvEEC1B8ne180100ERKS3_RKS5_, symObjAddr: 0x14F34, symBinAddr: 0x100017394, symSize: 0x3C }
  - { offset: 0x3383E, size: 0x8, addend: 0x0, symName: __ZNSt3__110__function6__funcIZNK11ToppingList16getRandomToppingEvEUlvE_NS_9allocatorIS3_EEFNS_10unique_ptrI7ToppingNS_14default_deleteIS7_EEEEvEEC2B8ne180100ERKS3_RKS5_, symObjAddr: 0x14F70, symBinAddr: 0x1000173D0, symSize: 0x80 }
  - { offset: 0x33886, size: 0x8, addend: 0x0, symName: __ZNSt3__110__function12__alloc_funcIZNK11ToppingList16getRandomToppingEvEUlvE_NS_9allocatorIS3_EEFNS_10unique_ptrI7ToppingNS_14default_deleteIS7_EEEEvEEC1B8ne180100ERKS3_RKS5_, symObjAddr: 0x14FF0, symBinAddr: 0x100017450, symSize: 0x3C }
  - { offset: 0x338CC, size: 0x8, addend: 0x0, symName: __ZNSt3__110__function12__alloc_funcIZNK11ToppingList16getRandomToppingEvEUlvE_NS_9allocatorIS3_EEFNS_10unique_ptrI7ToppingNS_14default_deleteIS7_EEEEvEEC2B8ne180100ERKS3_RKS5_, symObjAddr: 0x1502C, symBinAddr: 0x10001748C, symSize: 0x5C }
  - { offset: 0x33912, size: 0x8, addend: 0x0, symName: __ZNSt3__117__compressed_pairIZNK11ToppingList16getRandomToppingEvEUlvE_NS_9allocatorIS2_EEEC1B8ne180100IJRKS2_EJRKS4_EEENS_21piecewise_construct_tENS_5tupleIJDpT_EEENSC_IJDpT0_EEE, symObjAddr: 0x150B4, symBinAddr: 0x100017514, symSize: 0x3C }
  - { offset: 0x3397C, size: 0x8, addend: 0x0, symName: __ZNSt3__15tupleIJRKNS_9allocatorIZNK11ToppingList16getRandomToppingEvEUlvE_EEEEC1B8ne180100INS_4_AndELi0EEES6_, symObjAddr: 0x150F0, symBinAddr: 0x100017550, symSize: 0x34 }
  - { offset: 0x339C4, size: 0x8, addend: 0x0, symName: __ZNSt3__15tupleIJRKNS_9allocatorIZNK11ToppingList16getRandomToppingEvEUlvE_EEEEC2B8ne180100INS_4_AndELi0EEES6_, symObjAddr: 0x15124, symBinAddr: 0x100017584, symSize: 0x34 }
  - { offset: 0x33A0C, size: 0x8, addend: 0x0, symName: __ZNSt3__112__tuple_implINS_15__tuple_indicesIJLm0EEEEJRKNS_9allocatorIZNK11ToppingList16getRandomToppingEvEUlvE_EEEEC1B8ne180100IJLm0EEJS8_EJEJEJS8_EEENS1_IJXspT_EEEENS_13__tuple_typesIJDpT0_EEENS1_IJXspT1_EEEENSC_IJDpT2_EEEDpOT3_, symObjAddr: 0x15158, symBinAddr: 0x1000175B8, symSize: 0x34 }
  - { offset: 0x33AA1, size: 0x8, addend: 0x0, symName: __ZNSt3__112__tuple_implINS_15__tuple_indicesIJLm0EEEEJRKNS_9allocatorIZNK11ToppingList16getRandomToppingEvEUlvE_EEEEC2B8ne180100IJLm0EEJS8_EJEJEJS8_EEENS1_IJXspT_EEEENS_13__tuple_typesIJDpT0_EEENS1_IJXspT1_EEEENSC_IJDpT2_EEEDpOT3_, symObjAddr: 0x1518C, symBinAddr: 0x1000175EC, symSize: 0x34 }
  - { offset: 0x33B36, size: 0x8, addend: 0x0, symName: __ZNSt3__112__tuple_leafILm0ERKNS_9allocatorIZNK11ToppingList16getRandomToppingEvEUlvE_EELb0EEC2B8ne180100IS6_vEEOT_, symObjAddr: 0x151C0, symBinAddr: 0x100017620, symSize: 0x20 }
  - { offset: 0x33B79, size: 0x8, addend: 0x0, symName: __ZNSt3__117__compressed_pairIZNK11ToppingList16getRandomToppingEvEUlvE_NS_9allocatorIS2_EEEC2B8ne180100IJRKS2_EJRKS4_EEENS_21piecewise_construct_tENS_5tupleIJDpT_EEENSC_IJDpT0_EEE, symObjAddr: 0x151E0, symBinAddr: 0x100017640, symSize: 0x7C }
  - { offset: 0x33BE3, size: 0x8, addend: 0x0, symName: __ZNSt3__122__compressed_pair_elemINS_9allocatorIZNK11ToppingList16getRandomToppingEvEUlvE_EELi1ELb1EEC2B8ne180100IJRKS4_EJLm0EEEENS_21piecewise_construct_tENS_5tupleIJDpT_EEENS_15__tuple_indicesIJXspT0_EEEE, symObjAddr: 0x1525C, symBinAddr: 0x1000176BC, symSize: 0x38 }
  - { offset: 0x33C46, size: 0x8, addend: 0x0, symName: __ZNSt3__112__tuple_leafILm0ERKNS_9allocatorIZNK11ToppingList16getRandomToppingEvEUlvE_EELb0EE3getB8ne180100Ev, symObjAddr: 0x152B8, symBinAddr: 0x100017718, symSize: 0x18 }
  - { offset: 0x33C6C, size: 0x8, addend: 0x0, symName: __ZNSt3__110__function12__alloc_funcIZNK11ToppingList16getRandomToppingEvEUlvE_NS_9allocatorIS3_EEFNS_10unique_ptrI7ToppingNS_14default_deleteIS7_EEEEvEE7destroyB8ne180100Ev, symObjAddr: 0x152D0, symBinAddr: 0x100017730, symSize: 0x24 }
  - { offset: 0x33C92, size: 0x8, addend: 0x0, symName: __ZNSt3__110__function12__alloc_funcIZNK11ToppingList16getRandomToppingEvEUlvE_NS_9allocatorIS3_EEFNS_10unique_ptrI7ToppingNS_14default_deleteIS7_EEEEvEEclB8ne180100Ev, symObjAddr: 0x152F4, symBinAddr: 0x100017754, symSize: 0x34 }
  - { offset: 0x33CB8, size: 0x8, addend: 0x0, symName: __ZNSt3__128__invoke_void_return_wrapperINS_10unique_ptrI7ToppingNS_14default_deleteIS2_EEEELb0EE6__callB8ne180100IJRZNK11ToppingList16getRandomToppingEvEUlvE_EEES5_DpOT_, symObjAddr: 0x15328, symBinAddr: 0x100017788, symSize: 0x48 }
  - { offset: 0x33CE7, size: 0x8, addend: 0x0, symName: __ZNSt3__117__compressed_pairIZNK11ToppingList16getRandomToppingEvEUlvE_NS_9allocatorIS2_EEE5firstB8ne180100Ev, symObjAddr: 0x15370, symBinAddr: 0x1000177D0, symSize: 0x24 }
  - { offset: 0x33D0D, size: 0x8, addend: 0x0, symName: __ZNSt3__110unique_ptrI7ToppingNS_14default_deleteIS1_EEEC1B8ne180100I12FruitToppingNS2_IS6_EEvvEEONS0_IT_T0_EE, symObjAddr: 0x153C0, symBinAddr: 0x100017820, symSize: 0x34 }
  - { offset: 0x33D59, size: 0x8, addend: 0x0, symName: __ZNSt3__110unique_ptrI12FruitToppingNS_14default_deleteIS1_EEED1B8ne180100Ev, symObjAddr: 0x153F4, symBinAddr: 0x100017854, symSize: 0x2C }
  - { offset: 0x33D88, size: 0x8, addend: 0x0, symName: __ZZNK11ToppingList16getRandomToppingEvENKUlvE_clEv, symObjAddr: 0x15420, symBinAddr: 0x100017880, symSize: 0x2C }
  - { offset: 0x33DB2, size: 0x8, addend: 0x0, symName: __ZNKSt3__18functionIFNS_10unique_ptrI12FruitToppingNS_14default_deleteIS2_EEEEvEEclEv, symObjAddr: 0x1544C, symBinAddr: 0x1000178AC, symSize: 0x2C }
  - { offset: 0x33DDA, size: 0x8, addend: 0x0, symName: __ZNKSt3__110__function12__value_funcIFNS_10unique_ptrI12FruitToppingNS_14default_deleteIS3_EEEEvEEclB8ne180100Ev, symObjAddr: 0x15478, symBinAddr: 0x1000178D8, symSize: 0x5C }
  - { offset: 0x33E14, size: 0x8, addend: 0x0, symName: __ZNSt3__117bad_function_callC1B8ne180100Ev, symObjAddr: 0x1550C, symBinAddr: 0x10001796C, symSize: 0x2C }
  - { offset: 0x33E3E, size: 0x8, addend: 0x0, symName: __ZNSt3__117bad_function_callD1Ev, symObjAddr: 0x15538, symBinAddr: 0x100017998, symSize: 0x2C }
  - { offset: 0x33E68, size: 0x8, addend: 0x0, symName: __ZNSt3__117bad_function_callC2B8ne180100Ev, symObjAddr: 0x15564, symBinAddr: 0x1000179C4, symSize: 0x3C }
  - { offset: 0x33E92, size: 0x8, addend: 0x0, symName: __ZNSt9exceptionC2B8ne180100Ev, symObjAddr: 0x155A0, symBinAddr: 0x100017A00, symSize: 0x24 }
  - { offset: 0x33EBC, size: 0x8, addend: 0x0, symName: __ZNSt3__117bad_function_callD0Ev, symObjAddr: 0x155C4, symBinAddr: 0x100017A24, symSize: 0x30 }
  - { offset: 0x33EE6, size: 0x8, addend: 0x0, symName: __ZNSt3__117bad_function_callD2Ev, symObjAddr: 0x155F4, symBinAddr: 0x100017A54, symSize: 0x2C }
  - { offset: 0x33F10, size: 0x8, addend: 0x0, symName: __ZNSt3__110unique_ptrI7ToppingNS_14default_deleteIS1_EEEC2B8ne180100I12FruitToppingNS2_IS6_EEvvEEONS0_IT_T0_EE, symObjAddr: 0x15620, symBinAddr: 0x100017A80, symSize: 0x60 }
  - { offset: 0x33F5C, size: 0x8, addend: 0x0, symName: __ZNSt3__110unique_ptrI12FruitToppingNS_14default_deleteIS1_EEE7releaseB8ne180100Ev, symObjAddr: 0x15680, symBinAddr: 0x100017AE0, symSize: 0x44 }
  - { offset: 0x33F91, size: 0x8, addend: 0x0, symName: __ZNSt3__110unique_ptrI12FruitToppingNS_14default_deleteIS1_EEE11get_deleterB8ne180100Ev, symObjAddr: 0x156C4, symBinAddr: 0x100017B24, symSize: 0x24 }
  - { offset: 0x33FC3, size: 0x8, addend: 0x0, symName: __ZNSt3__117__compressed_pairIP7ToppingNS_14default_deleteIS1_EEEC1B8ne180100IP12FruitToppingNS3_IS7_EEEEOT_OT0_, symObjAddr: 0x156E8, symBinAddr: 0x100017B48, symSize: 0x3C }
  - { offset: 0x3401B, size: 0x8, addend: 0x0, symName: __ZNSt3__117__compressed_pairIP12FruitToppingNS_14default_deleteIS1_EEE5firstB8ne180100Ev, symObjAddr: 0x15724, symBinAddr: 0x100017B84, symSize: 0x24 }
  - { offset: 0x34041, size: 0x8, addend: 0x0, symName: __ZNSt3__122__compressed_pair_elemIP12FruitToppingLi0ELb0EE5__getB8ne180100Ev, symObjAddr: 0x15748, symBinAddr: 0x100017BA8, symSize: 0x14 }
  - { offset: 0x34067, size: 0x8, addend: 0x0, symName: __ZNSt3__117__compressed_pairIP12FruitToppingNS_14default_deleteIS1_EEE6secondB8ne180100Ev, symObjAddr: 0x1575C, symBinAddr: 0x100017BBC, symSize: 0x24 }
  - { offset: 0x3408D, size: 0x8, addend: 0x0, symName: __ZNSt3__122__compressed_pair_elemINS_14default_deleteI12FruitToppingEELi1ELb1EE5__getB8ne180100Ev, symObjAddr: 0x15780, symBinAddr: 0x100017BE0, symSize: 0x14 }
  - { offset: 0x340B3, size: 0x8, addend: 0x0, symName: __ZNSt3__117__compressed_pairIP7ToppingNS_14default_deleteIS1_EEEC2B8ne180100IP12FruitToppingNS3_IS7_EEEEOT_OT0_, symObjAddr: 0x15794, symBinAddr: 0x100017BF4, symSize: 0x44 }
  - { offset: 0x3410B, size: 0x8, addend: 0x0, symName: __ZNSt3__122__compressed_pair_elemIP7ToppingLi0ELb0EEC2B8ne180100IP12FruitToppingvEEOT_, symObjAddr: 0x157D8, symBinAddr: 0x100017C38, symSize: 0x24 }
  - { offset: 0x3414D, size: 0x8, addend: 0x0, symName: __ZNSt3__122__compressed_pair_elemINS_14default_deleteI7ToppingEELi1ELb1EEC2B8ne180100INS1_I12FruitToppingEEvEEOT_, symObjAddr: 0x157FC, symBinAddr: 0x100017C5C, symSize: 0x34 }
  - { offset: 0x3418F, size: 0x8, addend: 0x0, symName: __ZNSt3__114default_deleteI7ToppingEC2B8ne180100I12FruitToppingLi0EEERKNS0_IT_EE, symObjAddr: 0x15830, symBinAddr: 0x100017C90, symSize: 0x18 }
  - { offset: 0x341D2, size: 0x8, addend: 0x0, symName: __ZNSt3__110unique_ptrI12FruitToppingNS_14default_deleteIS1_EEED2B8ne180100Ev, symObjAddr: 0x15848, symBinAddr: 0x100017CA8, symSize: 0x30 }
  - { offset: 0x341FC, size: 0x8, addend: 0x0, symName: __ZNSt3__110unique_ptrI12FruitToppingNS_14default_deleteIS1_EEE5resetB8ne180100EPS1_, symObjAddr: 0x15878, symBinAddr: 0x100017CD8, symSize: 0x78 }
  - { offset: 0x34240, size: 0x8, addend: 0x0, symName: __ZNKSt3__114default_deleteI12FruitToppingEclB8ne180100EPS1_, symObjAddr: 0x158F0, symBinAddr: 0x100017D50, symSize: 0x4C }
  - { offset: 0x34274, size: 0x8, addend: 0x0, symName: __ZNSt3__122__compressed_pair_elemIZNK11ToppingList16getRandomToppingEvEUlvE_Li0ELb0EE5__getB8ne180100Ev, symObjAddr: 0x1593C, symBinAddr: 0x100017D9C, symSize: 0x14 }
  - { offset: 0x3429A, size: 0x8, addend: 0x0, symName: __ZNSt3__110unique_ptrINS_10__function6__baseIFNS0_I7ToppingNS_14default_deleteIS3_EEEEvEEENS_22__allocator_destructorINS_9allocatorINS1_6__funcIZNK11ToppingList16getRandomToppingEvEUlvE_NSA_ISD_EES7_EEEEEEED2B8ne180100Ev, symObjAddr: 0x15950, symBinAddr: 0x100017DB0, symSize: 0x30 }
  - { offset: 0x342C4, size: 0x8, addend: 0x0, symName: __ZNSt3__110unique_ptrINS_10__function6__baseIFNS0_I7ToppingNS_14default_deleteIS3_EEEEvEEENS_22__allocator_destructorINS_9allocatorINS1_6__funcIZNK11ToppingList16getRandomToppingEvEUlvE_NSA_ISD_EES7_EEEEEEE5resetB8ne180100EPSF_, symObjAddr: 0x15980, symBinAddr: 0x100017DE0, symSize: 0x78 }
  - { offset: 0x34308, size: 0x8, addend: 0x0, symName: __ZNSt3__18functionIFNS_10unique_ptrI7ToppingNS_14default_deleteIS2_EEEEvEED2Ev, symObjAddr: 0x159F8, symBinAddr: 0x100017E58, symSize: 0x2C }
  - { offset: 0x34334, size: 0x8, addend: 0x0, symName: __ZNSt3__110__function12__value_funcIFNS_10unique_ptrI7ToppingNS_14default_deleteIS3_EEEEvEED1B8ne180100Ev, symObjAddr: 0x15A24, symBinAddr: 0x100017E84, symSize: 0x2C }
  - { offset: 0x3435E, size: 0x8, addend: 0x0, symName: __ZNSt3__110__function12__value_funcIFNS_10unique_ptrI7ToppingNS_14default_deleteIS3_EEEEvEED2B8ne180100Ev, symObjAddr: 0x15A50, symBinAddr: 0x100017EB0, symSize: 0x90 }
  - { offset: 0x34388, size: 0x8, addend: 0x0, symName: __ZZNK11ToppingList16getRandomToppingEvENUlvE_D2Ev, symObjAddr: 0x15AE0, symBinAddr: 0x100017F40, symSize: 0x2C }
  - { offset: 0x343B4, size: 0x8, addend: 0x0, symName: __ZNKSt3__16vectorINS_8functionIFNS_10unique_ptrI12SweetToppingNS_14default_deleteIS3_EEEEvEEENS_9allocatorIS8_EEE11__make_iterB8ne180100EPKS8_, symObjAddr: 0x15B0C, symBinAddr: 0x100017F6C, symSize: 0x30 }
  - { offset: 0x343E9, size: 0x8, addend: 0x0, symName: __ZNSt3__111__wrap_iterIPKNS_8functionIFNS_10unique_ptrI12SweetToppingNS_14default_deleteIS3_EEEEvEEEEC1B8ne180100ESA_, symObjAddr: 0x15B3C, symBinAddr: 0x100017F9C, symSize: 0x34 }
  - { offset: 0x34421, size: 0x8, addend: 0x0, symName: __ZNSt3__111__wrap_iterIPKNS_8functionIFNS_10unique_ptrI12SweetToppingNS_14default_deleteIS3_EEEEvEEEEC2B8ne180100ESA_, symObjAddr: 0x15B70, symBinAddr: 0x100017FD0, symSize: 0x20 }
  - { offset: 0x34459, size: 0x8, addend: 0x0, symName: __ZNKSt3__111__wrap_iterIPKNS_8functionIFNS_10unique_ptrI12SweetToppingNS_14default_deleteIS3_EEEEvEEEE4baseB8ne180100Ev, symObjAddr: 0x15BD8, symBinAddr: 0x100018038, symSize: 0x18 }
  - { offset: 0x3447F, size: 0x8, addend: 0x0, symName: __ZNSt3__18functionIFNS_10unique_ptrI12SweetToppingNS_14default_deleteIS2_EEEEvEEC2ERKS7_, symObjAddr: 0x15BF0, symBinAddr: 0x100018050, symSize: 0x34 }
  - { offset: 0x344BA, size: 0x8, addend: 0x0, symName: __ZNSt3__110__function12__value_funcIFNS_10unique_ptrI12SweetToppingNS_14default_deleteIS3_EEEEvEEC1B8ne180100ERKS8_, symObjAddr: 0x15C24, symBinAddr: 0x100018084, symSize: 0x34 }
  - { offset: 0x344F3, size: 0x8, addend: 0x0, symName: __ZNSt3__110__function12__value_funcIFNS_10unique_ptrI12SweetToppingNS_14default_deleteIS3_EEEEvEEC2B8ne180100ERKS8_, symObjAddr: 0x15C58, symBinAddr: 0x1000180B8, symSize: 0xC0 }
  - { offset: 0x3452C, size: 0x8, addend: 0x0, symName: __ZNSt3__18functionIFNS_10unique_ptrI7ToppingNS_14default_deleteIS2_EEEEvEEC2IZNK11ToppingList16getRandomToppingEvEUlvE0_vEET_, symObjAddr: 0x15D18, symBinAddr: 0x100018178, symSize: 0x34 }
  - { offset: 0x34572, size: 0x8, addend: 0x0, symName: __ZNSt3__110__function12__value_funcIFNS_10unique_ptrI7ToppingNS_14default_deleteIS3_EEEEvEEC1B8ne180100IZNK11ToppingList16getRandomToppingEvEUlvE0_Li0EEEOT_, symObjAddr: 0x15D4C, symBinAddr: 0x1000181AC, symSize: 0x50 }
  - { offset: 0x345BA, size: 0x8, addend: 0x0, symName: __ZNSt3__19allocatorIZNK11ToppingList16getRandomToppingEvEUlvE0_EC1B8ne180100Ev, symObjAddr: 0x15D9C, symBinAddr: 0x1000181FC, symSize: 0x2C }
  - { offset: 0x345E4, size: 0x8, addend: 0x0, symName: __ZNSt3__110__function12__value_funcIFNS_10unique_ptrI7ToppingNS_14default_deleteIS3_EEEEvEEC1B8ne180100IZNK11ToppingList16getRandomToppingEvEUlvE0_NS_9allocatorISB_EEEEOT_RKT0_, symObjAddr: 0x15DC8, symBinAddr: 0x100018228, symSize: 0x3C }
  - { offset: 0x3463E, size: 0x8, addend: 0x0, symName: __ZNSt3__19allocatorIZNK11ToppingList16getRandomToppingEvEUlvE0_EC2B8ne180100Ev, symObjAddr: 0x15E04, symBinAddr: 0x100018264, symSize: 0x2C }
  - { offset: 0x34668, size: 0x8, addend: 0x0, symName: __ZNSt3__116__non_trivial_ifILb1ENS_9allocatorIZNK11ToppingList16getRandomToppingEvEUlvE0_EEEC2B8ne180100Ev, symObjAddr: 0x15E30, symBinAddr: 0x100018290, symSize: 0x14 }
  - { offset: 0x34692, size: 0x8, addend: 0x0, symName: __ZNSt3__110__function12__value_funcIFNS_10unique_ptrI7ToppingNS_14default_deleteIS3_EEEEvEEC2B8ne180100IZNK11ToppingList16getRandomToppingEvEUlvE0_NS_9allocatorISB_EEEEOT_RKT0_, symObjAddr: 0x15E44, symBinAddr: 0x1000182A4, symSize: 0xF4 }
  - { offset: 0x34745, size: 0x8, addend: 0x0, symName: __ZNSt3__19allocatorINS_10__function6__funcIZNK11ToppingList16getRandomToppingEvEUlvE0_NS0_IS4_EEFNS_10unique_ptrI7ToppingNS_14default_deleteIS7_EEEEvEEEEC1B8ne180100IS4_EERKNS0_IT_EE, symObjAddr: 0x15F50, symBinAddr: 0x1000183B0, symSize: 0x34 }
  - { offset: 0x34782, size: 0x8, addend: 0x0, symName: __ZNSt3__19allocatorINS_10__function6__funcIZNK11ToppingList16getRandomToppingEvEUlvE0_NS0_IS4_EEFNS_10unique_ptrI7ToppingNS_14default_deleteIS7_EEEEvEEEE8allocateB8ne180100Em, symObjAddr: 0x15F84, symBinAddr: 0x1000183E4, symSize: 0x5C }
  - { offset: 0x347C5, size: 0x8, addend: 0x0, symName: __ZNSt3__122__allocator_destructorINS_9allocatorINS_10__function6__funcIZNK11ToppingList16getRandomToppingEvEUlvE0_NS1_IS5_EEFNS_10unique_ptrI7ToppingNS_14default_deleteIS8_EEEEvEEEEEEC1B8ne180100ERSE_m, symObjAddr: 0x15FE0, symBinAddr: 0x100018440, symSize: 0x3C }
  - { offset: 0x34899, size: 0x8, addend: 0x0, symName: __ZNSt3__110unique_ptrINS_10__function6__baseIFNS0_I7ToppingNS_14default_deleteIS3_EEEEvEEENS_22__allocator_destructorINS_9allocatorINS1_6__funcIZNK11ToppingList16getRandomToppingEvEUlvE0_NSA_ISD_EES7_EEEEEEEC1B8ne180100ILb1EvEEPSF_NS_16__dependent_typeINS_27__unique_ptr_deleter_sfinaeISH_EEXT_EE20__good_rval_ref_typeE, symObjAddr: 0x1601C, symBinAddr: 0x10001847C, symSize: 0x3C }
  - { offset: 0x348EA, size: 0x8, addend: 0x0, symName: __ZNKSt3__110unique_ptrINS_10__function6__baseIFNS0_I7ToppingNS_14default_deleteIS3_EEEEvEEENS_22__allocator_destructorINS_9allocatorINS1_6__funcIZNK11ToppingList16getRandomToppingEvEUlvE0_NSA_ISD_EES7_EEEEEEE3getB8ne180100Ev, symObjAddr: 0x16058, symBinAddr: 0x1000184B8, symSize: 0x28 }
  - { offset: 0x34910, size: 0x8, addend: 0x0, symName: __ZNSt3__110__function6__funcIZNK11ToppingList16getRandomToppingEvEUlvE0_NS_9allocatorIS3_EEFNS_10unique_ptrI7ToppingNS_14default_deleteIS7_EEEEvEEC1B8ne180100EOS3_OS5_, symObjAddr: 0x16080, symBinAddr: 0x1000184E0, symSize: 0x3C }
  - { offset: 0x34958, size: 0x8, addend: 0x0, symName: __ZNSt3__110unique_ptrINS_10__function6__baseIFNS0_I7ToppingNS_14default_deleteIS3_EEEEvEEENS_22__allocator_destructorINS_9allocatorINS1_6__funcIZNK11ToppingList16getRandomToppingEvEUlvE0_NSA_ISD_EES7_EEEEEEE7releaseB8ne180100Ev, symObjAddr: 0x160BC, symBinAddr: 0x10001851C, symSize: 0x44 }
  - { offset: 0x3498D, size: 0x8, addend: 0x0, symName: __ZNSt3__110unique_ptrINS_10__function6__baseIFNS0_I7ToppingNS_14default_deleteIS3_EEEEvEEENS_22__allocator_destructorINS_9allocatorINS1_6__funcIZNK11ToppingList16getRandomToppingEvEUlvE0_NSA_ISD_EES7_EEEEEEED1B8ne180100Ev, symObjAddr: 0x16100, symBinAddr: 0x100018560, symSize: 0x2C }
  - { offset: 0x349B7, size: 0x8, addend: 0x0, symName: __ZNSt3__19allocatorINS_10__function6__funcIZNK11ToppingList16getRandomToppingEvEUlvE0_NS0_IS4_EEFNS_10unique_ptrI7ToppingNS_14default_deleteIS7_EEEEvEEEEC2B8ne180100IS4_EERKNS0_IT_EE, symObjAddr: 0x1612C, symBinAddr: 0x10001858C, symSize: 0x30 }
  - { offset: 0x349F4, size: 0x8, addend: 0x0, symName: __ZNSt3__116__non_trivial_ifILb1ENS_9allocatorINS_10__function6__funcIZNK11ToppingList16getRandomToppingEvEUlvE0_NS1_IS5_EEFNS_10unique_ptrI7ToppingNS_14default_deleteIS8_EEEEvEEEEEEC2B8ne180100Ev, symObjAddr: 0x1615C, symBinAddr: 0x1000185BC, symSize: 0x14 }
  - { offset: 0x34A28, size: 0x8, addend: 0x0, symName: __ZNSt3__116allocator_traitsINS_9allocatorINS_10__function6__funcIZNK11ToppingList16getRandomToppingEvEUlvE0_NS1_IS5_EEFNS_10unique_ptrI7ToppingNS_14default_deleteIS8_EEEEvEEEEEE8max_sizeB8ne180100ISE_vEEmRKSE_, symObjAddr: 0x16170, symBinAddr: 0x1000185D0, symSize: 0x24 }
  - { offset: 0x34A56, size: 0x8, addend: 0x0, symName: __ZNKSt3__19allocatorINS_10__function6__funcIZNK11ToppingList16getRandomToppingEvEUlvE0_NS0_IS4_EEFNS_10unique_ptrI7ToppingNS_14default_deleteIS7_EEEEvEEEE8max_sizeB8ne180100Ev, symObjAddr: 0x16194, symBinAddr: 0x1000185F4, symSize: 0x18 }
  - { offset: 0x34A7C, size: 0x8, addend: 0x0, symName: __ZNSt3__122__allocator_destructorINS_9allocatorINS_10__function6__funcIZNK11ToppingList16getRandomToppingEvEUlvE0_NS1_IS5_EEFNS_10unique_ptrI7ToppingNS_14default_deleteIS8_EEEEvEEEEEEC2B8ne180100ERSE_m, symObjAddr: 0x161AC, symBinAddr: 0x10001860C, symSize: 0x2C }
  - { offset: 0x34AC2, size: 0x8, addend: 0x0, symName: __ZNSt3__110unique_ptrINS_10__function6__baseIFNS0_I7ToppingNS_14default_deleteIS3_EEEEvEEENS_22__allocator_destructorINS_9allocatorINS1_6__funcIZNK11ToppingList16getRandomToppingEvEUlvE0_NSA_ISD_EES7_EEEEEEEC2B8ne180100ILb1EvEEPSF_NS_16__dependent_typeINS_27__unique_ptr_deleter_sfinaeISH_EEXT_EE20__good_rval_ref_typeE, symObjAddr: 0x161D8, symBinAddr: 0x100018638, symSize: 0x48 }
  - { offset: 0x34B13, size: 0x8, addend: 0x0, symName: __ZNSt3__117__compressed_pairIPNS_10__function6__funcIZNK11ToppingList16getRandomToppingEvEUlvE0_NS_9allocatorIS4_EEFNS_10unique_ptrI7ToppingNS_14default_deleteIS8_EEEEvEEENS_22__allocator_destructorINS5_ISD_EEEEEC1B8ne180100IRSE_SH_EEOT_OT0_, symObjAddr: 0x16220, symBinAddr: 0x100018680, symSize: 0x3C }
  - { offset: 0x34B6B, size: 0x8, addend: 0x0, symName: __ZNSt3__117__compressed_pairIPNS_10__function6__funcIZNK11ToppingList16getRandomToppingEvEUlvE0_NS_9allocatorIS4_EEFNS_10unique_ptrI7ToppingNS_14default_deleteIS8_EEEEvEEENS_22__allocator_destructorINS5_ISD_EEEEEC2B8ne180100IRSE_SH_EEOT_OT0_, symObjAddr: 0x1625C, symBinAddr: 0x1000186BC, symSize: 0x48 }
  - { offset: 0x34BC3, size: 0x8, addend: 0x0, symName: __ZNSt3__122__compressed_pair_elemIPNS_10__function6__funcIZNK11ToppingList16getRandomToppingEvEUlvE0_NS_9allocatorIS4_EEFNS_10unique_ptrI7ToppingNS_14default_deleteIS8_EEEEvEEELi0ELb0EEC2B8ne180100IRSE_vEEOT_, symObjAddr: 0x162A4, symBinAddr: 0x100018704, symSize: 0x24 }
  - { offset: 0x34C05, size: 0x8, addend: 0x0, symName: __ZNSt3__122__compressed_pair_elemINS_22__allocator_destructorINS_9allocatorINS_10__function6__funcIZNK11ToppingList16getRandomToppingEvEUlvE0_NS2_IS6_EEFNS_10unique_ptrI7ToppingNS_14default_deleteIS9_EEEEvEEEEEEELi1ELb0EEC2B8ne180100ISG_vEEOT_, symObjAddr: 0x162C8, symBinAddr: 0x100018728, symSize: 0x24 }
  - { offset: 0x34C47, size: 0x8, addend: 0x0, symName: __ZNKSt3__117__compressed_pairIPNS_10__function6__funcIZNK11ToppingList16getRandomToppingEvEUlvE0_NS_9allocatorIS4_EEFNS_10unique_ptrI7ToppingNS_14default_deleteIS8_EEEEvEEENS_22__allocator_destructorINS5_ISD_EEEEE5firstB8ne180100Ev, symObjAddr: 0x162EC, symBinAddr: 0x10001874C, symSize: 0x24 }
  - { offset: 0x34C6D, size: 0x8, addend: 0x0, symName: __ZNKSt3__122__compressed_pair_elemIPNS_10__function6__funcIZNK11ToppingList16getRandomToppingEvEUlvE0_NS_9allocatorIS4_EEFNS_10unique_ptrI7ToppingNS_14default_deleteIS8_EEEEvEEELi0ELb0EE5__getB8ne180100Ev, symObjAddr: 0x16310, symBinAddr: 0x100018770, symSize: 0x14 }
  - { offset: 0x34C93, size: 0x8, addend: 0x0, symName: __ZNSt3__110__function6__funcIZNK11ToppingList16getRandomToppingEvEUlvE0_NS_9allocatorIS3_EEFNS_10unique_ptrI7ToppingNS_14default_deleteIS7_EEEEvEEC2B8ne180100EOS3_OS5_, symObjAddr: 0x16324, symBinAddr: 0x100018784, symSize: 0x80 }
  - { offset: 0x34CDB, size: 0x8, addend: 0x0, symName: __ZNSt3__110__function12__alloc_funcIZNK11ToppingList16getRandomToppingEvEUlvE0_NS_9allocatorIS3_EEFNS_10unique_ptrI7ToppingNS_14default_deleteIS7_EEEEvEEC1B8ne180100EOS3_OS5_, symObjAddr: 0x163A4, symBinAddr: 0x100018804, symSize: 0x3C }
  - { offset: 0x34D21, size: 0x8, addend: 0x0, symName: __ZNSt3__110__function6__funcIZNK11ToppingList16getRandomToppingEvEUlvE0_NS_9allocatorIS3_EEFNS_10unique_ptrI7ToppingNS_14default_deleteIS7_EEEEvEED1Ev, symObjAddr: 0x163E0, symBinAddr: 0x100018840, symSize: 0x2C }
  - { offset: 0x34D4D, size: 0x8, addend: 0x0, symName: __ZNSt3__110__function6__funcIZNK11ToppingList16getRandomToppingEvEUlvE0_NS_9allocatorIS3_EEFNS_10unique_ptrI7ToppingNS_14default_deleteIS7_EEEEvEED0Ev, symObjAddr: 0x1640C, symBinAddr: 0x10001886C, symSize: 0x30 }
  - { offset: 0x34D79, size: 0x8, addend: 0x0, symName: __ZNKSt3__110__function6__funcIZNK11ToppingList16getRandomToppingEvEUlvE0_NS_9allocatorIS3_EEFNS_10unique_ptrI7ToppingNS_14default_deleteIS7_EEEEvEE7__cloneEv, symObjAddr: 0x1643C, symBinAddr: 0x10001889C, symSize: 0xFC }
  - { offset: 0x34DCB, size: 0x8, addend: 0x0, symName: __ZNKSt3__110__function6__funcIZNK11ToppingList16getRandomToppingEvEUlvE0_NS_9allocatorIS3_EEFNS_10unique_ptrI7ToppingNS_14default_deleteIS7_EEEEvEE7__cloneEPNS0_6__baseISB_EE, symObjAddr: 0x16538, symBinAddr: 0x100018998, symSize: 0x58 }
  - { offset: 0x34E02, size: 0x8, addend: 0x0, symName: __ZNSt3__110__function6__funcIZNK11ToppingList16getRandomToppingEvEUlvE0_NS_9allocatorIS3_EEFNS_10unique_ptrI7ToppingNS_14default_deleteIS7_EEEEvEE7destroyEv, symObjAddr: 0x16590, symBinAddr: 0x1000189F0, symSize: 0x28 }
  - { offset: 0x34E2A, size: 0x8, addend: 0x0, symName: __ZNSt3__110__function6__funcIZNK11ToppingList16getRandomToppingEvEUlvE0_NS_9allocatorIS3_EEFNS_10unique_ptrI7ToppingNS_14default_deleteIS7_EEEEvEE18destroy_deallocateEv, symObjAddr: 0x165B8, symBinAddr: 0x100018A18, symSize: 0x58 }
  - { offset: 0x34E6D, size: 0x8, addend: 0x0, symName: __ZNSt3__110__function6__funcIZNK11ToppingList16getRandomToppingEvEUlvE0_NS_9allocatorIS3_EEFNS_10unique_ptrI7ToppingNS_14default_deleteIS7_EEEEvEEclEv, symObjAddr: 0x16610, symBinAddr: 0x100018A70, symSize: 0x30 }
  - { offset: 0x34E95, size: 0x8, addend: 0x0, symName: __ZNKSt3__110__function6__funcIZNK11ToppingList16getRandomToppingEvEUlvE0_NS_9allocatorIS3_EEFNS_10unique_ptrI7ToppingNS_14default_deleteIS7_EEEEvEE6targetERKSt9type_info, symObjAddr: 0x16640, symBinAddr: 0x100018AA0, symSize: 0x60 }
  - { offset: 0x34ECC, size: 0x8, addend: 0x0, symName: __ZNKSt3__110__function6__funcIZNK11ToppingList16getRandomToppingEvEUlvE0_NS_9allocatorIS3_EEFNS_10unique_ptrI7ToppingNS_14default_deleteIS7_EEEEvEE11target_typeEv, symObjAddr: 0x166A0, symBinAddr: 0x100018B00, symSize: 0x18 }
  - { offset: 0x34EF4, size: 0x8, addend: 0x0, symName: __ZNSt3__110__function12__alloc_funcIZNK11ToppingList16getRandomToppingEvEUlvE0_NS_9allocatorIS3_EEFNS_10unique_ptrI7ToppingNS_14default_deleteIS7_EEEEvEEC2B8ne180100EOS3_OS5_, symObjAddr: 0x166B8, symBinAddr: 0x100018B18, symSize: 0x5C }
  - { offset: 0x34F3A, size: 0x8, addend: 0x0, symName: __ZNSt3__117__compressed_pairIZNK11ToppingList16getRandomToppingEvEUlvE0_NS_9allocatorIS2_EEEC1B8ne180100IJOS2_EJOS4_EEENS_21piecewise_construct_tENS_5tupleIJDpT_EEENSA_IJDpT0_EEE, symObjAddr: 0x1676C, symBinAddr: 0x100018BCC, symSize: 0x3C }
  - { offset: 0x34FA4, size: 0x8, addend: 0x0, symName: __ZNSt3__15tupleIJOZNK11ToppingList16getRandomToppingEvEUlvE0_EEC1B8ne180100IJS2_ELi0EEEDpOT_, symObjAddr: 0x167A8, symBinAddr: 0x100018C08, symSize: 0x34 }
  - { offset: 0x34FEE, size: 0x8, addend: 0x0, symName: __ZNSt3__15tupleIJOZNK11ToppingList16getRandomToppingEvEUlvE0_EEC2B8ne180100IJS2_ELi0EEEDpOT_, symObjAddr: 0x167DC, symBinAddr: 0x100018C3C, symSize: 0x34 }
  - { offset: 0x35038, size: 0x8, addend: 0x0, symName: __ZNSt3__112__tuple_implINS_15__tuple_indicesIJLm0EEEEJOZNK11ToppingList16getRandomToppingEvEUlvE0_EEC1B8ne180100IJLm0EEJS5_EJEJEJS4_EEENS1_IJXspT_EEEENS_13__tuple_typesIJDpT0_EEENS1_IJXspT1_EEEENS9_IJDpT2_EEEDpOT3_, symObjAddr: 0x16810, symBinAddr: 0x100018C70, symSize: 0x34 }
  - { offset: 0x350CD, size: 0x8, addend: 0x0, symName: __ZNSt3__112__tuple_implINS_15__tuple_indicesIJLm0EEEEJOZNK11ToppingList16getRandomToppingEvEUlvE0_EEC2B8ne180100IJLm0EEJS5_EJEJEJS4_EEENS1_IJXspT_EEEENS_13__tuple_typesIJDpT0_EEENS1_IJXspT1_EEEENS9_IJDpT2_EEEDpOT3_, symObjAddr: 0x16844, symBinAddr: 0x100018CA4, symSize: 0x34 }
  - { offset: 0x35162, size: 0x8, addend: 0x0, symName: __ZNSt3__112__tuple_leafILm0EOZNK11ToppingList16getRandomToppingEvEUlvE0_Lb0EEC2B8ne180100IS2_vEEOT_, symObjAddr: 0x16878, symBinAddr: 0x100018CD8, symSize: 0x20 }
  - { offset: 0x351A5, size: 0x8, addend: 0x0, symName: __ZNSt3__15tupleIJONS_9allocatorIZNK11ToppingList16getRandomToppingEvEUlvE0_EEEEC1B8ne180100IJS4_ELi0EEEDpOT_, symObjAddr: 0x16898, symBinAddr: 0x100018CF8, symSize: 0x34 }
  - { offset: 0x351EF, size: 0x8, addend: 0x0, symName: __ZNSt3__15tupleIJONS_9allocatorIZNK11ToppingList16getRandomToppingEvEUlvE0_EEEEC2B8ne180100IJS4_ELi0EEEDpOT_, symObjAddr: 0x168CC, symBinAddr: 0x100018D2C, symSize: 0x34 }
  - { offset: 0x35239, size: 0x8, addend: 0x0, symName: __ZNSt3__112__tuple_implINS_15__tuple_indicesIJLm0EEEEJONS_9allocatorIZNK11ToppingList16getRandomToppingEvEUlvE0_EEEEC1B8ne180100IJLm0EEJS7_EJEJEJS6_EEENS1_IJXspT_EEEENS_13__tuple_typesIJDpT0_EEENS1_IJXspT1_EEEENSB_IJDpT2_EEEDpOT3_, symObjAddr: 0x16900, symBinAddr: 0x100018D60, symSize: 0x34 }
  - { offset: 0x352CE, size: 0x8, addend: 0x0, symName: __ZNSt3__112__tuple_implINS_15__tuple_indicesIJLm0EEEEJONS_9allocatorIZNK11ToppingList16getRandomToppingEvEUlvE0_EEEEC2B8ne180100IJLm0EEJS7_EJEJEJS6_EEENS1_IJXspT_EEEENS_13__tuple_typesIJDpT0_EEENS1_IJXspT1_EEEENSB_IJDpT2_EEEDpOT3_, symObjAddr: 0x16934, symBinAddr: 0x100018D94, symSize: 0x34 }
  - { offset: 0x35363, size: 0x8, addend: 0x0, symName: __ZNSt3__112__tuple_leafILm0EONS_9allocatorIZNK11ToppingList16getRandomToppingEvEUlvE0_EELb0EEC2B8ne180100IS4_vEEOT_, symObjAddr: 0x16968, symBinAddr: 0x100018DC8, symSize: 0x20 }
  - { offset: 0x353A6, size: 0x8, addend: 0x0, symName: __ZNSt3__117__compressed_pairIZNK11ToppingList16getRandomToppingEvEUlvE0_NS_9allocatorIS2_EEEC2B8ne180100IJOS2_EJOS4_EEENS_21piecewise_construct_tENS_5tupleIJDpT_EEENSA_IJDpT0_EEE, symObjAddr: 0x16988, symBinAddr: 0x100018DE8, symSize: 0x7C }
  - { offset: 0x35410, size: 0x8, addend: 0x0, symName: __ZNSt3__122__compressed_pair_elemIZNK11ToppingList16getRandomToppingEvEUlvE0_Li0ELb0EEC2B8ne180100IJOS2_EJLm0EEEENS_21piecewise_construct_tENS_5tupleIJDpT_EEENS_15__tuple_indicesIJXspT0_EEEE, symObjAddr: 0x16A04, symBinAddr: 0x100018E64, symSize: 0x44 }
  - { offset: 0x35473, size: 0x8, addend: 0x0, symName: __ZNSt3__122__compressed_pair_elemINS_9allocatorIZNK11ToppingList16getRandomToppingEvEUlvE0_EELi1ELb1EEC2B8ne180100IJOS4_EJLm0EEEENS_21piecewise_construct_tENS_5tupleIJDpT_EEENS_15__tuple_indicesIJXspT0_EEEE, symObjAddr: 0x16A48, symBinAddr: 0x100018EA8, symSize: 0x38 }
  - { offset: 0x354D6, size: 0x8, addend: 0x0, symName: __ZNSt3__122__compressed_pair_elemIZNK11ToppingList16getRandomToppingEvEUlvE0_Li0ELb0EED2Ev, symObjAddr: 0x16A80, symBinAddr: 0x100018EE0, symSize: 0x2C }
  - { offset: 0x35502, size: 0x8, addend: 0x0, symName: __ZZNK11ToppingList16getRandomToppingEvENUlvE0_C1EOS0_, symObjAddr: 0x16AD0, symBinAddr: 0x100018F30, symSize: 0x34 }
  - { offset: 0x35537, size: 0x8, addend: 0x0, symName: __ZNSt3__112__tuple_leafILm0EOZNK11ToppingList16getRandomToppingEvEUlvE0_Lb0EE3getB8ne180100Ev, symObjAddr: 0x16B04, symBinAddr: 0x100018F64, symSize: 0x18 }
  - { offset: 0x3555D, size: 0x8, addend: 0x0, symName: __ZZNK11ToppingList16getRandomToppingEvENUlvE0_C2EOS0_, symObjAddr: 0x16B1C, symBinAddr: 0x100018F7C, symSize: 0x34 }
  - { offset: 0x35592, size: 0x8, addend: 0x0, symName: __ZNSt3__112__tuple_leafILm0EONS_9allocatorIZNK11ToppingList16getRandomToppingEvEUlvE0_EELb0EE3getB8ne180100Ev, symObjAddr: 0x16B74, symBinAddr: 0x100018FD4, symSize: 0x18 }
  - { offset: 0x355B8, size: 0x8, addend: 0x0, symName: __ZNSt3__110__function6__funcIZNK11ToppingList16getRandomToppingEvEUlvE0_NS_9allocatorIS3_EEFNS_10unique_ptrI7ToppingNS_14default_deleteIS7_EEEEvEED2Ev, symObjAddr: 0x16B8C, symBinAddr: 0x100018FEC, symSize: 0x48 }
  - { offset: 0x355E4, size: 0x8, addend: 0x0, symName: __ZNSt3__110__function12__alloc_funcIZNK11ToppingList16getRandomToppingEvEUlvE0_NS_9allocatorIS3_EEFNS_10unique_ptrI7ToppingNS_14default_deleteIS7_EEEEvEED1Ev, symObjAddr: 0x16BD4, symBinAddr: 0x100019034, symSize: 0x2C }
  - { offset: 0x35610, size: 0x8, addend: 0x0, symName: __ZNSt3__110__function12__alloc_funcIZNK11ToppingList16getRandomToppingEvEUlvE0_NS_9allocatorIS3_EEFNS_10unique_ptrI7ToppingNS_14default_deleteIS7_EEEEvEED2Ev, symObjAddr: 0x16C00, symBinAddr: 0x100019060, symSize: 0x2C }
  - { offset: 0x3563C, size: 0x8, addend: 0x0, symName: __ZNSt3__117__compressed_pairIZNK11ToppingList16getRandomToppingEvEUlvE0_NS_9allocatorIS2_EEED1Ev, symObjAddr: 0x16C2C, symBinAddr: 0x10001908C, symSize: 0x2C }
  - { offset: 0x35668, size: 0x8, addend: 0x0, symName: __ZNSt3__117__compressed_pairIZNK11ToppingList16getRandomToppingEvEUlvE0_NS_9allocatorIS2_EEED2Ev, symObjAddr: 0x16C58, symBinAddr: 0x1000190B8, symSize: 0x2C }
  - { offset: 0x35694, size: 0x8, addend: 0x0, symName: __ZNKSt3__110__function12__alloc_funcIZNK11ToppingList16getRandomToppingEvEUlvE0_NS_9allocatorIS3_EEFNS_10unique_ptrI7ToppingNS_14default_deleteIS7_EEEEvEE15__get_allocatorB8ne180100Ev, symObjAddr: 0x16C84, symBinAddr: 0x1000190E4, symSize: 0x24 }
  - { offset: 0x356E3, size: 0x8, addend: 0x0, symName: __ZNSt3__110unique_ptrINS_10__function6__funcIZNK11ToppingList16getRandomToppingEvEUlvE0_NS_9allocatorIS4_EEFNS0_I7ToppingNS_14default_deleteIS7_EEEEvEEENS_22__allocator_destructorINS5_ISC_EEEEEC1B8ne180100ILb1EvEEPSC_NS_16__dependent_typeINS_27__unique_ptr_deleter_sfinaeISF_EEXT_EE20__good_rval_ref_typeE, symObjAddr: 0x16CA8, symBinAddr: 0x100019108, symSize: 0x3C }
  - { offset: 0x35734, size: 0x8, addend: 0x0, symName: __ZNKSt3__110unique_ptrINS_10__function6__funcIZNK11ToppingList16getRandomToppingEvEUlvE0_NS_9allocatorIS4_EEFNS0_I7ToppingNS_14default_deleteIS7_EEEEvEEENS_22__allocator_destructorINS5_ISC_EEEEE3getB8ne180100Ev, symObjAddr: 0x16CE4, symBinAddr: 0x100019144, symSize: 0x28 }
  - { offset: 0x3575A, size: 0x8, addend: 0x0, symName: __ZNKSt3__110__function12__alloc_funcIZNK11ToppingList16getRandomToppingEvEUlvE0_NS_9allocatorIS3_EEFNS_10unique_ptrI7ToppingNS_14default_deleteIS7_EEEEvEE8__targetB8ne180100Ev, symObjAddr: 0x16D0C, symBinAddr: 0x10001916C, symSize: 0x24 }
  - { offset: 0x35785, size: 0x8, addend: 0x0, symName: __ZNSt3__19allocatorIZNK11ToppingList16getRandomToppingEvEUlvE0_EC1B8ne180100INS_10__function6__funcIS2_S3_FNS_10unique_ptrI7ToppingNS_14default_deleteIS8_EEEEvEEEEERKNS0_IT_EE, symObjAddr: 0x16D30, symBinAddr: 0x100019190, symSize: 0x34 }
  - { offset: 0x357C2, size: 0x8, addend: 0x0, symName: __ZNSt3__110__function6__funcIZNK11ToppingList16getRandomToppingEvEUlvE0_NS_9allocatorIS3_EEFNS_10unique_ptrI7ToppingNS_14default_deleteIS7_EEEEvEEC1B8ne180100ERKS3_OS5_, symObjAddr: 0x16D64, symBinAddr: 0x1000191C4, symSize: 0x3C }
  - { offset: 0x3580A, size: 0x8, addend: 0x0, symName: __ZNSt3__110unique_ptrINS_10__function6__funcIZNK11ToppingList16getRandomToppingEvEUlvE0_NS_9allocatorIS4_EEFNS0_I7ToppingNS_14default_deleteIS7_EEEEvEEENS_22__allocator_destructorINS5_ISC_EEEEE7releaseB8ne180100Ev, symObjAddr: 0x16DA0, symBinAddr: 0x100019200, symSize: 0x44 }
  - { offset: 0x3583F, size: 0x8, addend: 0x0, symName: __ZNSt3__110unique_ptrINS_10__function6__funcIZNK11ToppingList16getRandomToppingEvEUlvE0_NS_9allocatorIS4_EEFNS0_I7ToppingNS_14default_deleteIS7_EEEEvEEENS_22__allocator_destructorINS5_ISC_EEEEED1B8ne180100Ev, symObjAddr: 0x16DE4, symBinAddr: 0x100019244, symSize: 0x2C }
  - { offset: 0x35869, size: 0x8, addend: 0x0, symName: __ZNKSt3__117__compressed_pairIZNK11ToppingList16getRandomToppingEvEUlvE0_NS_9allocatorIS2_EEE6secondB8ne180100Ev, symObjAddr: 0x16E10, symBinAddr: 0x100019270, symSize: 0x24 }
  - { offset: 0x3588F, size: 0x8, addend: 0x0, symName: __ZNKSt3__122__compressed_pair_elemINS_9allocatorIZNK11ToppingList16getRandomToppingEvEUlvE0_EELi1ELb1EE5__getB8ne180100Ev, symObjAddr: 0x16E34, symBinAddr: 0x100019294, symSize: 0x14 }
  - { offset: 0x358B5, size: 0x8, addend: 0x0, symName: __ZNSt3__110unique_ptrINS_10__function6__funcIZNK11ToppingList16getRandomToppingEvEUlvE0_NS_9allocatorIS4_EEFNS0_I7ToppingNS_14default_deleteIS7_EEEEvEEENS_22__allocator_destructorINS5_ISC_EEEEEC2B8ne180100ILb1EvEEPSC_NS_16__dependent_typeINS_27__unique_ptr_deleter_sfinaeISF_EEXT_EE20__good_rval_ref_typeE, symObjAddr: 0x16E48, symBinAddr: 0x1000192A8, symSize: 0x48 }
  - { offset: 0x35906, size: 0x8, addend: 0x0, symName: __ZNKSt3__117__compressed_pairIZNK11ToppingList16getRandomToppingEvEUlvE0_NS_9allocatorIS2_EEE5firstB8ne180100Ev, symObjAddr: 0x16E90, symBinAddr: 0x1000192F0, symSize: 0x24 }
  - { offset: 0x3592C, size: 0x8, addend: 0x0, symName: __ZNKSt3__122__compressed_pair_elemIZNK11ToppingList16getRandomToppingEvEUlvE0_Li0ELb0EE5__getB8ne180100Ev, symObjAddr: 0x16EB4, symBinAddr: 0x100019314, symSize: 0x14 }
  - { offset: 0x35952, size: 0x8, addend: 0x0, symName: __ZNSt3__19allocatorIZNK11ToppingList16getRandomToppingEvEUlvE0_EC2B8ne180100INS_10__function6__funcIS2_S3_FNS_10unique_ptrI7ToppingNS_14default_deleteIS8_EEEEvEEEEERKNS0_IT_EE, symObjAddr: 0x16EC8, symBinAddr: 0x100019328, symSize: 0x30 }
  - { offset: 0x3598F, size: 0x8, addend: 0x0, symName: __ZNSt3__110__function6__funcIZNK11ToppingList16getRandomToppingEvEUlvE0_NS_9allocatorIS3_EEFNS_10unique_ptrI7ToppingNS_14default_deleteIS7_EEEEvEEC2B8ne180100ERKS3_OS5_, symObjAddr: 0x16EF8, symBinAddr: 0x100019358, symSize: 0x80 }
  - { offset: 0x359D7, size: 0x8, addend: 0x0, symName: __ZNSt3__110__function12__alloc_funcIZNK11ToppingList16getRandomToppingEvEUlvE0_NS_9allocatorIS3_EEFNS_10unique_ptrI7ToppingNS_14default_deleteIS7_EEEEvEEC1B8ne180100ERKS3_OS5_, symObjAddr: 0x16F78, symBinAddr: 0x1000193D8, symSize: 0x3C }
  - { offset: 0x35A1D, size: 0x8, addend: 0x0, symName: __ZNSt3__110__function12__alloc_funcIZNK11ToppingList16getRandomToppingEvEUlvE0_NS_9allocatorIS3_EEFNS_10unique_ptrI7ToppingNS_14default_deleteIS7_EEEEvEEC2B8ne180100ERKS3_OS5_, symObjAddr: 0x16FB4, symBinAddr: 0x100019414, symSize: 0x5C }
  - { offset: 0x35A63, size: 0x8, addend: 0x0, symName: __ZNSt3__117__compressed_pairIZNK11ToppingList16getRandomToppingEvEUlvE0_NS_9allocatorIS2_EEEC1B8ne180100IJRKS2_EJOS4_EEENS_21piecewise_construct_tENS_5tupleIJDpT_EEENSB_IJDpT0_EEE, symObjAddr: 0x1703C, symBinAddr: 0x10001949C, symSize: 0x3C }
  - { offset: 0x35ACD, size: 0x8, addend: 0x0, symName: __ZNSt3__15tupleIJRKZNK11ToppingList16getRandomToppingEvEUlvE0_EEC1B8ne180100INS_4_AndELi0EEES4_, symObjAddr: 0x17078, symBinAddr: 0x1000194D8, symSize: 0x34 }
  - { offset: 0x35B15, size: 0x8, addend: 0x0, symName: __ZNSt3__15tupleIJRKZNK11ToppingList16getRandomToppingEvEUlvE0_EEC2B8ne180100INS_4_AndELi0EEES4_, symObjAddr: 0x170AC, symBinAddr: 0x10001950C, symSize: 0x34 }
  - { offset: 0x35B5D, size: 0x8, addend: 0x0, symName: __ZNSt3__112__tuple_implINS_15__tuple_indicesIJLm0EEEEJRKZNK11ToppingList16getRandomToppingEvEUlvE0_EEC1B8ne180100IJLm0EEJS6_EJEJEJS6_EEENS1_IJXspT_EEEENS_13__tuple_typesIJDpT0_EEENS1_IJXspT1_EEEENSA_IJDpT2_EEEDpOT3_, symObjAddr: 0x170E0, symBinAddr: 0x100019540, symSize: 0x34 }
  - { offset: 0x35BF2, size: 0x8, addend: 0x0, symName: __ZNSt3__112__tuple_implINS_15__tuple_indicesIJLm0EEEEJRKZNK11ToppingList16getRandomToppingEvEUlvE0_EEC2B8ne180100IJLm0EEJS6_EJEJEJS6_EEENS1_IJXspT_EEEENS_13__tuple_typesIJDpT0_EEENS1_IJXspT1_EEEENSA_IJDpT2_EEEDpOT3_, symObjAddr: 0x17114, symBinAddr: 0x100019574, symSize: 0x34 }
  - { offset: 0x35C87, size: 0x8, addend: 0x0, symName: __ZNSt3__112__tuple_leafILm0ERKZNK11ToppingList16getRandomToppingEvEUlvE0_Lb0EEC2B8ne180100IS4_vEEOT_, symObjAddr: 0x17148, symBinAddr: 0x1000195A8, symSize: 0x20 }
  - { offset: 0x35CCA, size: 0x8, addend: 0x0, symName: __ZNSt3__117__compressed_pairIZNK11ToppingList16getRandomToppingEvEUlvE0_NS_9allocatorIS2_EEEC2B8ne180100IJRKS2_EJOS4_EEENS_21piecewise_construct_tENS_5tupleIJDpT_EEENSB_IJDpT0_EEE, symObjAddr: 0x17168, symBinAddr: 0x1000195C8, symSize: 0x54 }
  - { offset: 0x35D34, size: 0x8, addend: 0x0, symName: __ZNSt3__122__compressed_pair_elemIZNK11ToppingList16getRandomToppingEvEUlvE0_Li0ELb0EEC2B8ne180100IJRKS2_EJLm0EEEENS_21piecewise_construct_tENS_5tupleIJDpT_EEENS_15__tuple_indicesIJXspT0_EEEE, symObjAddr: 0x171BC, symBinAddr: 0x10001961C, symSize: 0x44 }
  - { offset: 0x35D97, size: 0x8, addend: 0x0, symName: __ZZNK11ToppingList16getRandomToppingEvENUlvE0_C1ERKS0_, symObjAddr: 0x17224, symBinAddr: 0x100019684, symSize: 0x34 }
  - { offset: 0x35DCC, size: 0x8, addend: 0x0, symName: __ZNSt3__112__tuple_leafILm0ERKZNK11ToppingList16getRandomToppingEvEUlvE0_Lb0EE3getB8ne180100Ev, symObjAddr: 0x17258, symBinAddr: 0x1000196B8, symSize: 0x18 }
  - { offset: 0x35DF2, size: 0x8, addend: 0x0, symName: __ZZNK11ToppingList16getRandomToppingEvENUlvE0_C2ERKS0_, symObjAddr: 0x17270, symBinAddr: 0x1000196D0, symSize: 0x34 }
  - { offset: 0x35E27, size: 0x8, addend: 0x0, symName: __ZNSt3__117__compressed_pairIPNS_10__function6__funcIZNK11ToppingList16getRandomToppingEvEUlvE0_NS_9allocatorIS4_EEFNS_10unique_ptrI7ToppingNS_14default_deleteIS8_EEEEvEEENS_22__allocator_destructorINS5_ISD_EEEEE5firstB8ne180100Ev, symObjAddr: 0x172A4, symBinAddr: 0x100019704, symSize: 0x24 }
  - { offset: 0x35E4D, size: 0x8, addend: 0x0, symName: __ZNSt3__122__compressed_pair_elemIPNS_10__function6__funcIZNK11ToppingList16getRandomToppingEvEUlvE0_NS_9allocatorIS4_EEFNS_10unique_ptrI7ToppingNS_14default_deleteIS8_EEEEvEEELi0ELb0EE5__getB8ne180100Ev, symObjAddr: 0x172C8, symBinAddr: 0x100019728, symSize: 0x14 }
  - { offset: 0x35E73, size: 0x8, addend: 0x0, symName: __ZNSt3__110unique_ptrINS_10__function6__funcIZNK11ToppingList16getRandomToppingEvEUlvE0_NS_9allocatorIS4_EEFNS0_I7ToppingNS_14default_deleteIS7_EEEEvEEENS_22__allocator_destructorINS5_ISC_EEEEED2B8ne180100Ev, symObjAddr: 0x172DC, symBinAddr: 0x10001973C, symSize: 0x30 }
  - { offset: 0x35E9D, size: 0x8, addend: 0x0, symName: __ZNSt3__110unique_ptrINS_10__function6__funcIZNK11ToppingList16getRandomToppingEvEUlvE0_NS_9allocatorIS4_EEFNS0_I7ToppingNS_14default_deleteIS7_EEEEvEEENS_22__allocator_destructorINS5_ISC_EEEEE5resetB8ne180100EPSC_, symObjAddr: 0x1730C, symBinAddr: 0x10001976C, symSize: 0x78 }
  - { offset: 0x35EE1, size: 0x8, addend: 0x0, symName: __ZNSt3__117__compressed_pairIPNS_10__function6__funcIZNK11ToppingList16getRandomToppingEvEUlvE0_NS_9allocatorIS4_EEFNS_10unique_ptrI7ToppingNS_14default_deleteIS8_EEEEvEEENS_22__allocator_destructorINS5_ISD_EEEEE6secondB8ne180100Ev, symObjAddr: 0x17384, symBinAddr: 0x1000197E4, symSize: 0x28 }
  - { offset: 0x35F07, size: 0x8, addend: 0x0, symName: __ZNSt3__122__allocator_destructorINS_9allocatorINS_10__function6__funcIZNK11ToppingList16getRandomToppingEvEUlvE0_NS1_IS5_EEFNS_10unique_ptrI7ToppingNS_14default_deleteIS8_EEEEvEEEEEEclB8ne180100EPSD_, symObjAddr: 0x173AC, symBinAddr: 0x10001980C, symSize: 0x34 }
  - { offset: 0x35F3B, size: 0x8, addend: 0x0, symName: __ZNSt3__122__compressed_pair_elemINS_22__allocator_destructorINS_9allocatorINS_10__function6__funcIZNK11ToppingList16getRandomToppingEvEUlvE0_NS2_IS6_EEFNS_10unique_ptrI7ToppingNS_14default_deleteIS9_EEEEvEEEEEEELi1ELb0EE5__getB8ne180100Ev, symObjAddr: 0x173E0, symBinAddr: 0x100019840, symSize: 0x14 }
  - { offset: 0x35F61, size: 0x8, addend: 0x0, symName: __ZNSt3__116allocator_traitsINS_9allocatorINS_10__function6__funcIZNK11ToppingList16getRandomToppingEvEUlvE0_NS1_IS5_EEFNS_10unique_ptrI7ToppingNS_14default_deleteIS8_EEEEvEEEEEE10deallocateB8ne180100ERSE_PSD_m, symObjAddr: 0x173F4, symBinAddr: 0x100019854, symSize: 0x34 }
  - { offset: 0x35FA3, size: 0x8, addend: 0x0, symName: __ZNSt3__19allocatorINS_10__function6__funcIZNK11ToppingList16getRandomToppingEvEUlvE0_NS0_IS4_EEFNS_10unique_ptrI7ToppingNS_14default_deleteIS7_EEEEvEEEE10deallocateB8ne180100EPSC_m, symObjAddr: 0x17428, symBinAddr: 0x100019888, symSize: 0x44 }
  - { offset: 0x35FE5, size: 0x8, addend: 0x0, symName: __ZNSt3__110__function6__funcIZNK11ToppingList16getRandomToppingEvEUlvE0_NS_9allocatorIS3_EEFNS_10unique_ptrI7ToppingNS_14default_deleteIS7_EEEEvEEC1B8ne180100ERKS3_RKS5_, symObjAddr: 0x1746C, symBinAddr: 0x1000198CC, symSize: 0x3C }
  - { offset: 0x3602D, size: 0x8, addend: 0x0, symName: __ZNSt3__110__function6__funcIZNK11ToppingList16getRandomToppingEvEUlvE0_NS_9allocatorIS3_EEFNS_10unique_ptrI7ToppingNS_14default_deleteIS7_EEEEvEEC2B8ne180100ERKS3_RKS5_, symObjAddr: 0x174A8, symBinAddr: 0x100019908, symSize: 0x80 }
  - { offset: 0x36075, size: 0x8, addend: 0x0, symName: __ZNSt3__110__function12__alloc_funcIZNK11ToppingList16getRandomToppingEvEUlvE0_NS_9allocatorIS3_EEFNS_10unique_ptrI7ToppingNS_14default_deleteIS7_EEEEvEEC1B8ne180100ERKS3_RKS5_, symObjAddr: 0x17528, symBinAddr: 0x100019988, symSize: 0x3C }
  - { offset: 0x360BB, size: 0x8, addend: 0x0, symName: __ZNSt3__110__function12__alloc_funcIZNK11ToppingList16getRandomToppingEvEUlvE0_NS_9allocatorIS3_EEFNS_10unique_ptrI7ToppingNS_14default_deleteIS7_EEEEvEEC2B8ne180100ERKS3_RKS5_, symObjAddr: 0x17564, symBinAddr: 0x1000199C4, symSize: 0x5C }
  - { offset: 0x36101, size: 0x8, addend: 0x0, symName: __ZNSt3__117__compressed_pairIZNK11ToppingList16getRandomToppingEvEUlvE0_NS_9allocatorIS2_EEEC1B8ne180100IJRKS2_EJRKS4_EEENS_21piecewise_construct_tENS_5tupleIJDpT_EEENSC_IJDpT0_EEE, symObjAddr: 0x175EC, symBinAddr: 0x100019A4C, symSize: 0x3C }
  - { offset: 0x3616B, size: 0x8, addend: 0x0, symName: __ZNSt3__15tupleIJRKNS_9allocatorIZNK11ToppingList16getRandomToppingEvEUlvE0_EEEEC1B8ne180100INS_4_AndELi0EEES6_, symObjAddr: 0x17628, symBinAddr: 0x100019A88, symSize: 0x34 }
  - { offset: 0x361B3, size: 0x8, addend: 0x0, symName: __ZNSt3__15tupleIJRKNS_9allocatorIZNK11ToppingList16getRandomToppingEvEUlvE0_EEEEC2B8ne180100INS_4_AndELi0EEES6_, symObjAddr: 0x1765C, symBinAddr: 0x100019ABC, symSize: 0x34 }
  - { offset: 0x361FB, size: 0x8, addend: 0x0, symName: __ZNSt3__112__tuple_implINS_15__tuple_indicesIJLm0EEEEJRKNS_9allocatorIZNK11ToppingList16getRandomToppingEvEUlvE0_EEEEC1B8ne180100IJLm0EEJS8_EJEJEJS8_EEENS1_IJXspT_EEEENS_13__tuple_typesIJDpT0_EEENS1_IJXspT1_EEEENSC_IJDpT2_EEEDpOT3_, symObjAddr: 0x17690, symBinAddr: 0x100019AF0, symSize: 0x34 }
  - { offset: 0x36290, size: 0x8, addend: 0x0, symName: __ZNSt3__112__tuple_implINS_15__tuple_indicesIJLm0EEEEJRKNS_9allocatorIZNK11ToppingList16getRandomToppingEvEUlvE0_EEEEC2B8ne180100IJLm0EEJS8_EJEJEJS8_EEENS1_IJXspT_EEEENS_13__tuple_typesIJDpT0_EEENS1_IJXspT1_EEEENSC_IJDpT2_EEEDpOT3_, symObjAddr: 0x176C4, symBinAddr: 0x100019B24, symSize: 0x34 }
  - { offset: 0x36325, size: 0x8, addend: 0x0, symName: __ZNSt3__112__tuple_leafILm0ERKNS_9allocatorIZNK11ToppingList16getRandomToppingEvEUlvE0_EELb0EEC2B8ne180100IS6_vEEOT_, symObjAddr: 0x176F8, symBinAddr: 0x100019B58, symSize: 0x20 }
  - { offset: 0x36368, size: 0x8, addend: 0x0, symName: __ZNSt3__117__compressed_pairIZNK11ToppingList16getRandomToppingEvEUlvE0_NS_9allocatorIS2_EEEC2B8ne180100IJRKS2_EJRKS4_EEENS_21piecewise_construct_tENS_5tupleIJDpT_EEENSC_IJDpT0_EEE, symObjAddr: 0x17718, symBinAddr: 0x100019B78, symSize: 0x7C }
  - { offset: 0x363D2, size: 0x8, addend: 0x0, symName: __ZNSt3__122__compressed_pair_elemINS_9allocatorIZNK11ToppingList16getRandomToppingEvEUlvE0_EELi1ELb1EEC2B8ne180100IJRKS4_EJLm0EEEENS_21piecewise_construct_tENS_5tupleIJDpT_EEENS_15__tuple_indicesIJXspT0_EEEE, symObjAddr: 0x17794, symBinAddr: 0x100019BF4, symSize: 0x38 }
  - { offset: 0x36435, size: 0x8, addend: 0x0, symName: __ZNSt3__112__tuple_leafILm0ERKNS_9allocatorIZNK11ToppingList16getRandomToppingEvEUlvE0_EELb0EE3getB8ne180100Ev, symObjAddr: 0x177F0, symBinAddr: 0x100019C50, symSize: 0x18 }
  - { offset: 0x3645B, size: 0x8, addend: 0x0, symName: __ZNSt3__110__function12__alloc_funcIZNK11ToppingList16getRandomToppingEvEUlvE0_NS_9allocatorIS3_EEFNS_10unique_ptrI7ToppingNS_14default_deleteIS7_EEEEvEE7destroyB8ne180100Ev, symObjAddr: 0x17808, symBinAddr: 0x100019C68, symSize: 0x24 }
  - { offset: 0x36481, size: 0x8, addend: 0x0, symName: __ZNSt3__110__function12__alloc_funcIZNK11ToppingList16getRandomToppingEvEUlvE0_NS_9allocatorIS3_EEFNS_10unique_ptrI7ToppingNS_14default_deleteIS7_EEEEvEEclB8ne180100Ev, symObjAddr: 0x1782C, symBinAddr: 0x100019C8C, symSize: 0x34 }
  - { offset: 0x364A7, size: 0x8, addend: 0x0, symName: __ZNSt3__128__invoke_void_return_wrapperINS_10unique_ptrI7ToppingNS_14default_deleteIS2_EEEELb0EE6__callB8ne180100IJRZNK11ToppingList16getRandomToppingEvEUlvE0_EEES5_DpOT_, symObjAddr: 0x17860, symBinAddr: 0x100019CC0, symSize: 0x48 }
  - { offset: 0x364D6, size: 0x8, addend: 0x0, symName: __ZNSt3__117__compressed_pairIZNK11ToppingList16getRandomToppingEvEUlvE0_NS_9allocatorIS2_EEE5firstB8ne180100Ev, symObjAddr: 0x178A8, symBinAddr: 0x100019D08, symSize: 0x24 }
  - { offset: 0x364FC, size: 0x8, addend: 0x0, symName: __ZNSt3__110unique_ptrI7ToppingNS_14default_deleteIS1_EEEC1B8ne180100I12SweetToppingNS2_IS6_EEvvEEONS0_IT_T0_EE, symObjAddr: 0x178F8, symBinAddr: 0x100019D58, symSize: 0x34 }
  - { offset: 0x36548, size: 0x8, addend: 0x0, symName: __ZNSt3__110unique_ptrI12SweetToppingNS_14default_deleteIS1_EEED1B8ne180100Ev, symObjAddr: 0x1792C, symBinAddr: 0x100019D8C, symSize: 0x2C }
  - { offset: 0x36577, size: 0x8, addend: 0x0, symName: __ZZNK11ToppingList16getRandomToppingEvENKUlvE0_clEv, symObjAddr: 0x17958, symBinAddr: 0x100019DB8, symSize: 0x2C }
  - { offset: 0x365A1, size: 0x8, addend: 0x0, symName: __ZNKSt3__18functionIFNS_10unique_ptrI12SweetToppingNS_14default_deleteIS2_EEEEvEEclEv, symObjAddr: 0x17984, symBinAddr: 0x100019DE4, symSize: 0x2C }
  - { offset: 0x365C9, size: 0x8, addend: 0x0, symName: __ZNKSt3__110__function12__value_funcIFNS_10unique_ptrI12SweetToppingNS_14default_deleteIS3_EEEEvEEclB8ne180100Ev, symObjAddr: 0x179B0, symBinAddr: 0x100019E10, symSize: 0x5C }
  - { offset: 0x365EF, size: 0x8, addend: 0x0, symName: __ZNSt3__110unique_ptrI7ToppingNS_14default_deleteIS1_EEEC2B8ne180100I12SweetToppingNS2_IS6_EEvvEEONS0_IT_T0_EE, symObjAddr: 0x17A0C, symBinAddr: 0x100019E6C, symSize: 0x60 }
  - { offset: 0x3663B, size: 0x8, addend: 0x0, symName: __ZNSt3__110unique_ptrI12SweetToppingNS_14default_deleteIS1_EEE7releaseB8ne180100Ev, symObjAddr: 0x17A6C, symBinAddr: 0x100019ECC, symSize: 0x44 }
  - { offset: 0x36670, size: 0x8, addend: 0x0, symName: __ZNSt3__110unique_ptrI12SweetToppingNS_14default_deleteIS1_EEE11get_deleterB8ne180100Ev, symObjAddr: 0x17AB0, symBinAddr: 0x100019F10, symSize: 0x24 }
  - { offset: 0x366A2, size: 0x8, addend: 0x0, symName: __ZNSt3__117__compressed_pairIP7ToppingNS_14default_deleteIS1_EEEC1B8ne180100IP12SweetToppingNS3_IS7_EEEEOT_OT0_, symObjAddr: 0x17AD4, symBinAddr: 0x100019F34, symSize: 0x3C }
  - { offset: 0x366FA, size: 0x8, addend: 0x0, symName: __ZNSt3__117__compressed_pairIP12SweetToppingNS_14default_deleteIS1_EEE5firstB8ne180100Ev, symObjAddr: 0x17B10, symBinAddr: 0x100019F70, symSize: 0x24 }
  - { offset: 0x36720, size: 0x8, addend: 0x0, symName: __ZNSt3__122__compressed_pair_elemIP12SweetToppingLi0ELb0EE5__getB8ne180100Ev, symObjAddr: 0x17B34, symBinAddr: 0x100019F94, symSize: 0x14 }
  - { offset: 0x36746, size: 0x8, addend: 0x0, symName: __ZNSt3__117__compressed_pairIP12SweetToppingNS_14default_deleteIS1_EEE6secondB8ne180100Ev, symObjAddr: 0x17B48, symBinAddr: 0x100019FA8, symSize: 0x24 }
  - { offset: 0x3676C, size: 0x8, addend: 0x0, symName: __ZNSt3__122__compressed_pair_elemINS_14default_deleteI12SweetToppingEELi1ELb1EE5__getB8ne180100Ev, symObjAddr: 0x17B6C, symBinAddr: 0x100019FCC, symSize: 0x14 }
  - { offset: 0x36792, size: 0x8, addend: 0x0, symName: __ZNSt3__117__compressed_pairIP7ToppingNS_14default_deleteIS1_EEEC2B8ne180100IP12SweetToppingNS3_IS7_EEEEOT_OT0_, symObjAddr: 0x17B80, symBinAddr: 0x100019FE0, symSize: 0x44 }
  - { offset: 0x367EA, size: 0x8, addend: 0x0, symName: __ZNSt3__122__compressed_pair_elemIP7ToppingLi0ELb0EEC2B8ne180100IP12SweetToppingvEEOT_, symObjAddr: 0x17BC4, symBinAddr: 0x10001A024, symSize: 0x24 }
  - { offset: 0x3682C, size: 0x8, addend: 0x0, symName: __ZNSt3__122__compressed_pair_elemINS_14default_deleteI7ToppingEELi1ELb1EEC2B8ne180100INS1_I12SweetToppingEEvEEOT_, symObjAddr: 0x17BE8, symBinAddr: 0x10001A048, symSize: 0x34 }
  - { offset: 0x3686E, size: 0x8, addend: 0x0, symName: __ZNSt3__114default_deleteI7ToppingEC2B8ne180100I12SweetToppingLi0EEERKNS0_IT_EE, symObjAddr: 0x17C1C, symBinAddr: 0x10001A07C, symSize: 0x18 }
  - { offset: 0x368B1, size: 0x8, addend: 0x0, symName: __ZNSt3__110unique_ptrI12SweetToppingNS_14default_deleteIS1_EEED2B8ne180100Ev, symObjAddr: 0x17C34, symBinAddr: 0x10001A094, symSize: 0x30 }
  - { offset: 0x368DB, size: 0x8, addend: 0x0, symName: __ZNSt3__110unique_ptrI12SweetToppingNS_14default_deleteIS1_EEE5resetB8ne180100EPS1_, symObjAddr: 0x17C64, symBinAddr: 0x10001A0C4, symSize: 0x78 }
  - { offset: 0x3691F, size: 0x8, addend: 0x0, symName: __ZNKSt3__114default_deleteI12SweetToppingEclB8ne180100EPS1_, symObjAddr: 0x17CDC, symBinAddr: 0x10001A13C, symSize: 0x4C }
  - { offset: 0x36953, size: 0x8, addend: 0x0, symName: __ZNSt3__122__compressed_pair_elemIZNK11ToppingList16getRandomToppingEvEUlvE0_Li0ELb0EE5__getB8ne180100Ev, symObjAddr: 0x17D28, symBinAddr: 0x10001A188, symSize: 0x14 }
  - { offset: 0x36979, size: 0x8, addend: 0x0, symName: __ZNSt3__110unique_ptrINS_10__function6__baseIFNS0_I7ToppingNS_14default_deleteIS3_EEEEvEEENS_22__allocator_destructorINS_9allocatorINS1_6__funcIZNK11ToppingList16getRandomToppingEvEUlvE0_NSA_ISD_EES7_EEEEEEED2B8ne180100Ev, symObjAddr: 0x17D3C, symBinAddr: 0x10001A19C, symSize: 0x30 }
  - { offset: 0x369A3, size: 0x8, addend: 0x0, symName: __ZNSt3__110unique_ptrINS_10__function6__baseIFNS0_I7ToppingNS_14default_deleteIS3_EEEEvEEENS_22__allocator_destructorINS_9allocatorINS1_6__funcIZNK11ToppingList16getRandomToppingEvEUlvE0_NSA_ISD_EES7_EEEEEEE5resetB8ne180100EPSF_, symObjAddr: 0x17D6C, symBinAddr: 0x10001A1CC, symSize: 0x78 }
  - { offset: 0x369E7, size: 0x8, addend: 0x0, symName: __ZZNK11ToppingList16getRandomToppingEvENUlvE0_D2Ev, symObjAddr: 0x17DE4, symBinAddr: 0x10001A244, symSize: 0x2C }
  - { offset: 0x36A13, size: 0x8, addend: 0x0, symName: __ZNKSt3__110__function12__value_funcIFNS_10unique_ptrI7ToppingNS_14default_deleteIS3_EEEEvEEclB8ne180100Ev, symObjAddr: 0x17E10, symBinAddr: 0x10001A270, symSize: 0x5C }
  - { offset: 0x36A39, size: 0x8, addend: 0x0, symName: __ZNSt3__16vectorINS_8functionIFNS_10unique_ptrI7ToppingNS_14default_deleteIS3_EEEEvEEENS_9allocatorIS8_EEED2B8ne180100Ev, symObjAddr: 0x17E6C, symBinAddr: 0x10001A2CC, symSize: 0x44 }
  - { offset: 0x36A63, size: 0x8, addend: 0x0, symName: __ZNSt3__16vectorINS_8functionIFNS_10unique_ptrI7ToppingNS_14default_deleteIS3_EEEEvEEENS_9allocatorIS8_EEE16__destroy_vectorC1B8ne180100ERSB_, symObjAddr: 0x17EB0, symBinAddr: 0x10001A310, symSize: 0x34 }
  - { offset: 0x36A9C, size: 0x8, addend: 0x0, symName: __ZNSt3__16vectorINS_8functionIFNS_10unique_ptrI7ToppingNS_14default_deleteIS3_EEEEvEEENS_9allocatorIS8_EEE16__destroy_vectorclB8ne180100Ev, symObjAddr: 0x17EE4, symBinAddr: 0x10001A344, symSize: 0x90 }
  - { offset: 0x36AC2, size: 0x8, addend: 0x0, symName: __ZNSt3__16vectorINS_8functionIFNS_10unique_ptrI7ToppingNS_14default_deleteIS3_EEEEvEEENS_9allocatorIS8_EEE16__destroy_vectorC2B8ne180100ERSB_, symObjAddr: 0x17F74, symBinAddr: 0x10001A3D4, symSize: 0x20 }
  - { offset: 0x36AFB, size: 0x8, addend: 0x0, symName: __ZNSt3__16vectorINS_8functionIFNS_10unique_ptrI7ToppingNS_14default_deleteIS3_EEEEvEEENS_9allocatorIS8_EEE7__clearB8ne180100Ev, symObjAddr: 0x17F94, symBinAddr: 0x10001A3F4, symSize: 0x28 }
  - { offset: 0x36B21, size: 0x8, addend: 0x0, symName: __ZNSt3__16vectorINS_8functionIFNS_10unique_ptrI7ToppingNS_14default_deleteIS3_EEEEvEEENS_9allocatorIS8_EEE22__base_destruct_at_endB8ne180100EPS8_, symObjAddr: 0x17FBC, symBinAddr: 0x10001A41C, symSize: 0x8C }
  - { offset: 0x36B65, size: 0x8, addend: 0x0, symName: __ZNSt3__110unique_ptrI7ToppingNS_14default_deleteIS1_EEEC1B8ne180100EOS4_, symObjAddr: 0x18048, symBinAddr: 0x10001A4A8, symSize: 0x34 }
  - { offset: 0x36B9D, size: 0x8, addend: 0x0, symName: __ZN5OrderC1ENSt3__112basic_stringIcNS0_11char_traitsIcEENS0_9allocatorIcEEEENS0_10unique_ptrI7ToppingNS0_14default_deleteIS8_EEEES6_, symObjAddr: 0x1807C, symBinAddr: 0x10001A4DC, symSize: 0x44 }
  - { offset: 0x36BF4, size: 0x8, addend: 0x0, symName: __ZNSt3__110unique_ptrI5OrderNS_14default_deleteIS1_EEEC1B8ne180100ILb1EvEEPS1_, symObjAddr: 0x180C0, symBinAddr: 0x10001A520, symSize: 0x34 }
  - { offset: 0x36C37, size: 0x8, addend: 0x0, symName: __ZNSt3__110unique_ptrI7ToppingNS_14default_deleteIS1_EEEC2B8ne180100EOS4_, symObjAddr: 0x180F4, symBinAddr: 0x10001A554, symSize: 0x60 }
  - { offset: 0x36C6F, size: 0x8, addend: 0x0, symName: __ZNSt3__110unique_ptrI7ToppingNS_14default_deleteIS1_EEE7releaseB8ne180100Ev, symObjAddr: 0x18154, symBinAddr: 0x10001A5B4, symSize: 0x44 }
  - { offset: 0x36CA4, size: 0x8, addend: 0x0, symName: __ZNSt3__110unique_ptrI7ToppingNS_14default_deleteIS1_EEE11get_deleterB8ne180100Ev, symObjAddr: 0x18198, symBinAddr: 0x10001A5F8, symSize: 0x24 }
  - { offset: 0x36CD6, size: 0x8, addend: 0x0, symName: __ZNSt3__117__compressed_pairIP7ToppingNS_14default_deleteIS1_EEEC1B8ne180100IS2_S4_EEOT_OT0_, symObjAddr: 0x181BC, symBinAddr: 0x10001A61C, symSize: 0x3C }
  - { offset: 0x36D2E, size: 0x8, addend: 0x0, symName: __ZNSt3__117__compressed_pairIP7ToppingNS_14default_deleteIS1_EEEC2B8ne180100IS2_S4_EEOT_OT0_, symObjAddr: 0x181F8, symBinAddr: 0x10001A658, symSize: 0x44 }
  - { offset: 0x36D86, size: 0x8, addend: 0x0, symName: __ZNSt3__122__compressed_pair_elemIP7ToppingLi0ELb0EEC2B8ne180100IS2_vEEOT_, symObjAddr: 0x1823C, symBinAddr: 0x10001A69C, symSize: 0x24 }
  - { offset: 0x36DC8, size: 0x8, addend: 0x0, symName: __ZNSt3__122__compressed_pair_elemINS_14default_deleteI7ToppingEELi1ELb1EEC2B8ne180100IS3_vEEOT_, symObjAddr: 0x18260, symBinAddr: 0x10001A6C0, symSize: 0x18 }
  - { offset: 0x36E0A, size: 0x8, addend: 0x0, symName: __ZN5OrderC2ENSt3__112basic_stringIcNS0_11char_traitsIcEENS0_9allocatorIcEEEENS0_10unique_ptrI7ToppingNS0_14default_deleteIS8_EEEES6_, symObjAddr: 0x18278, symBinAddr: 0x10001A6D8, symSize: 0x3DC }
  - { offset: 0x36E65, size: 0x8, addend: 0x0, symName: __ZNSt3__110unique_ptrI5OrderNS_14default_deleteIS1_EEEC2B8ne180100ILb1EvEEPS1_, symObjAddr: 0x18654, symBinAddr: 0x10001AAB4, symSize: 0x44 }
  - { offset: 0x36EA8, size: 0x8, addend: 0x0, symName: __ZNSt3__117__compressed_pairIP5OrderNS_14default_deleteIS1_EEEC1B8ne180100IRS2_NS_16__value_init_tagEEEOT_OT0_, symObjAddr: 0x18698, symBinAddr: 0x10001AAF8, symSize: 0x3C }
  - { offset: 0x36F00, size: 0x8, addend: 0x0, symName: __ZNSt3__117__compressed_pairIP5OrderNS_14default_deleteIS1_EEEC2B8ne180100IRS2_NS_16__value_init_tagEEEOT_OT0_, symObjAddr: 0x186D4, symBinAddr: 0x10001AB34, symSize: 0x40 }
  - { offset: 0x36F58, size: 0x8, addend: 0x0, symName: __ZNSt3__122__compressed_pair_elemIP5OrderLi0ELb0EEC2B8ne180100IRS2_vEEOT_, symObjAddr: 0x18714, symBinAddr: 0x10001AB74, symSize: 0x24 }
  - { offset: 0x36F9A, size: 0x8, addend: 0x0, symName: __ZN8CustomerD2Ev, symObjAddr: 0x18738, symBinAddr: 0x10001AB98, symSize: 0x78 }
  - { offset: 0x36FC6, size: 0x8, addend: 0x0, symName: __ZN11ToppingListD1Ev, symObjAddr: 0x187B0, symBinAddr: 0x10001AC10, symSize: 0x2C }
  - { offset: 0x36FF2, size: 0x8, addend: 0x0, symName: __ZN11ToppingListD2Ev, symObjAddr: 0x187DC, symBinAddr: 0x10001AC3C, symSize: 0x38 }
  - { offset: 0x3701E, size: 0x8, addend: 0x0, symName: __ZNSt3__16vectorI8CustomerNS_9allocatorIS1_EEE11__make_iterB8ne180100EPS1_, symObjAddr: 0x18814, symBinAddr: 0x10001AC74, symSize: 0x30 }
  - { offset: 0x37053, size: 0x8, addend: 0x0, symName: __ZNSt3__111__wrap_iterIP8CustomerEC1B8ne180100ES2_, symObjAddr: 0x18844, symBinAddr: 0x10001ACA4, symSize: 0x34 }
  - { offset: 0x3708B, size: 0x8, addend: 0x0, symName: __ZNSt3__111__wrap_iterIP8CustomerEC2B8ne180100ES2_, symObjAddr: 0x18878, symBinAddr: 0x10001ACD8, symSize: 0x20 }
  - { offset: 0x370C3, size: 0x8, addend: 0x0, symName: __ZNKSt3__111__wrap_iterIP8CustomerE4baseB8ne180100Ev, symObjAddr: 0x188E0, symBinAddr: 0x10001AD40, symSize: 0x18 }
  - { offset: 0x370E9, size: 0x8, addend: 0x0, symName: __ZNKSt3__110unique_ptrI5OrderNS_14default_deleteIS1_EEEdeB8ne180100Ev, symObjAddr: 0x188F8, symBinAddr: 0x10001AD58, symSize: 0x28 }
  - { offset: 0x3710F, size: 0x8, addend: 0x0, symName: __ZNKSt3__117__compressed_pairIP5OrderNS_14default_deleteIS1_EEE5firstB8ne180100Ev, symObjAddr: 0x18920, symBinAddr: 0x10001AD80, symSize: 0x24 }
  - { offset: 0x37135, size: 0x8, addend: 0x0, symName: __ZNKSt3__122__compressed_pair_elemIP5OrderLi0ELb0EE5__getB8ne180100Ev, symObjAddr: 0x18944, symBinAddr: 0x10001ADA4, symSize: 0x14 }
  - { offset: 0x3715B, size: 0x8, addend: 0x0, symName: __ZNKSt3__110unique_ptrI7ToppingNS_14default_deleteIS1_EEEptB8ne180100Ev, symObjAddr: 0x18958, symBinAddr: 0x10001ADB8, symSize: 0x28 }
  - { offset: 0x37181, size: 0x8, addend: 0x0, symName: __ZNKSt3__117__compressed_pairIP7ToppingNS_14default_deleteIS1_EEE5firstB8ne180100Ev, symObjAddr: 0x18980, symBinAddr: 0x10001ADE0, symSize: 0x24 }
  - { offset: 0x371A7, size: 0x8, addend: 0x0, symName: __ZNKSt3__122__compressed_pair_elemIP7ToppingLi0ELb0EE5__getB8ne180100Ev, symObjAddr: 0x189A4, symBinAddr: 0x10001AE04, symSize: 0x14 }
  - { offset: 0x371CD, size: 0x8, addend: 0x0, symName: __ZN6SundaeC2Ev, symObjAddr: 0x189B8, symBinAddr: 0x10001AE18, symSize: 0x50 }
  - { offset: 0x371F9, size: 0x8, addend: 0x0, symName: __ZNSt3__112basic_stringIcNS_11char_traitsIcEENS_9allocatorIcEEEC1B8ne180100Ev, symObjAddr: 0x18A08, symBinAddr: 0x10001AE68, symSize: 0x2C }
  - { offset: 0x37223, size: 0x8, addend: 0x0, symName: __ZNSt3__110unique_ptrI7ToppingNS_14default_deleteIS1_EEEC1B8ne180100ILb1EvEEv, symObjAddr: 0x18A34, symBinAddr: 0x10001AE94, symSize: 0x2C }
  - { offset: 0x37258, size: 0x8, addend: 0x0, symName: __ZNSt3__112basic_stringIcNS_11char_traitsIcEENS_9allocatorIcEEEC2B8ne180100Ev, symObjAddr: 0x18A60, symBinAddr: 0x10001AEC0, symSize: 0x48 }
  - { offset: 0x37282, size: 0x8, addend: 0x0, symName: __ZNSt3__117__compressed_pairINS_12basic_stringIcNS_11char_traitsIcEENS_9allocatorIcEEE5__repES5_EC1B8ne180100INS_16__value_init_tagENS_18__default_init_tagEEEOT_OT0_, symObjAddr: 0x18AA8, symBinAddr: 0x10001AF08, symSize: 0x3C }
  - { offset: 0x372DA, size: 0x8, addend: 0x0, symName: __ZNSt3__117__compressed_pairINS_12basic_stringIcNS_11char_traitsIcEENS_9allocatorIcEEE5__repES5_EC2B8ne180100INS_16__value_init_tagENS_18__default_init_tagEEEOT_OT0_, symObjAddr: 0x18AE4, symBinAddr: 0x10001AF44, symSize: 0x3C }
  - { offset: 0x37332, size: 0x8, addend: 0x0, symName: __ZNSt3__122__compressed_pair_elemINS_12basic_stringIcNS_11char_traitsIcEENS_9allocatorIcEEE5__repELi0ELb0EEC2B8ne180100ENS_16__value_init_tagE, symObjAddr: 0x18B20, symBinAddr: 0x10001AF80, symSize: 0x20 }
  - { offset: 0x37366, size: 0x8, addend: 0x0, symName: __ZNSt3__110unique_ptrI7ToppingNS_14default_deleteIS1_EEEC2B8ne180100ILb1EvEEv, symObjAddr: 0x18B40, symBinAddr: 0x10001AFA0, symSize: 0x3C }
  - { offset: 0x3739B, size: 0x8, addend: 0x0, symName: __ZNSt3__117__compressed_pairIP7ToppingNS_14default_deleteIS1_EEEC1B8ne180100INS_16__value_init_tagES7_EEOT_OT0_, symObjAddr: 0x18B7C, symBinAddr: 0x10001AFDC, symSize: 0x3C }
  - { offset: 0x373F3, size: 0x8, addend: 0x0, symName: __ZNSt3__117__compressed_pairIP7ToppingNS_14default_deleteIS1_EEEC2B8ne180100INS_16__value_init_tagES7_EEOT_OT0_, symObjAddr: 0x18BB8, symBinAddr: 0x10001B018, symSize: 0x3C }
  - { offset: 0x3744B, size: 0x8, addend: 0x0, symName: __ZNSt3__122__compressed_pair_elemIP7ToppingLi0ELb0EEC2B8ne180100ENS_16__value_init_tagE, symObjAddr: 0x18BF4, symBinAddr: 0x10001B054, symSize: 0x18 }
  - { offset: 0x3747F, size: 0x8, addend: 0x0, symName: __ZNSt3__122__compressed_pair_elemINS_14default_deleteI7ToppingEELi1ELb1EEC2B8ne180100ENS_16__value_init_tagE, symObjAddr: 0x18C0C, symBinAddr: 0x10001B06C, symSize: 0x14 }
  - { offset: 0x37547, size: 0x8, addend: 0x0, symName: __ZNKSt3__113basic_istreamIcNS_11char_traitsIcEEE6sentrycvbB8ne180100Ev, symObjAddr: 0x18EB4, symBinAddr: 0x10001B314, symSize: 0x1C }
  - { offset: 0x3756D, size: 0x8, addend: 0x0, symName: __ZNSt3__112basic_stringIcNS_11char_traitsIcEENS_9allocatorIcEEE5clearB8ne180100Ev, symObjAddr: 0x18ED0, symBinAddr: 0x10001B330, symSize: 0x94 }
  - { offset: 0x375A4, size: 0x8, addend: 0x0, symName: __ZNSt3__115basic_streambufIcNS_11char_traitsIcEEE6sbumpcB8ne180100Ev, symObjAddr: 0x18F64, symBinAddr: 0x10001B3C4, symSize: 0x78 }
  - { offset: 0x375CA, size: 0x8, addend: 0x0, symName: __ZNSt3__111char_traitsIcE12to_char_typeB8ne180100Ei, symObjAddr: 0x18FDC, symBinAddr: 0x10001B43C, symSize: 0x18 }
  - { offset: 0x375EE, size: 0x8, addend: 0x0, symName: __ZNSt3__111char_traitsIcE2eqEcc, symObjAddr: 0x18FF4, symBinAddr: 0x10001B454, symSize: 0x28 }
  - { offset: 0x3761F, size: 0x8, addend: 0x0, symName: __ZNKSt3__112basic_stringIcNS_11char_traitsIcEENS_9allocatorIcEEE8max_sizeB8ne180100Ev, symObjAddr: 0x1901C, symBinAddr: 0x10001B47C, symSize: 0xAC }
  - { offset: 0x37672, size: 0x8, addend: 0x0, symName: __ZNSt3__18ios_base18__setstate_nothrowB8ne180100Ej, symObjAddr: 0x190C8, symBinAddr: 0x10001B528, symSize: 0x64 }
  - { offset: 0x376A7, size: 0x8, addend: 0x0, symName: __ZNKSt3__19basic_iosIcNS_11char_traitsIcEEE10exceptionsB8ne180100Ev, symObjAddr: 0x1912C, symBinAddr: 0x10001B58C, symSize: 0x24 }
  - { offset: 0x376CD, size: 0x8, addend: 0x0, symName: __ZNSt3__111char_traitsIcE6assignB8ne180100ERcRKc, symObjAddr: 0x19150, symBinAddr: 0x10001B5B0, symSize: 0x24 }
  - { offset: 0x376FE, size: 0x8, addend: 0x0, symName: __ZNSt3__112basic_stringIcNS_11char_traitsIcEENS_9allocatorIcEEE18__get_long_pointerB8ne180100Ev, symObjAddr: 0x19174, symBinAddr: 0x10001B5D4, symSize: 0x28 }
  - { offset: 0x37724, size: 0x8, addend: 0x0, symName: __ZNSt3__112basic_stringIcNS_11char_traitsIcEENS_9allocatorIcEEE15__set_long_sizeB8ne180100Em, symObjAddr: 0x1919C, symBinAddr: 0x10001B5FC, symSize: 0x38 }
  - { offset: 0x37759, size: 0x8, addend: 0x0, symName: __ZNSt3__112basic_stringIcNS_11char_traitsIcEENS_9allocatorIcEEE19__get_short_pointerB8ne180100Ev, symObjAddr: 0x191D4, symBinAddr: 0x10001B634, symSize: 0x28 }
  - { offset: 0x3777F, size: 0x8, addend: 0x0, symName: __ZNSt3__112basic_stringIcNS_11char_traitsIcEENS_9allocatorIcEEE16__set_short_sizeB8ne180100Em, symObjAddr: 0x191FC, symBinAddr: 0x10001B65C, symSize: 0x78 }
  - { offset: 0x377B4, size: 0x8, addend: 0x0, symName: __ZNKSt3__112basic_stringIcNS_11char_traitsIcEENS_9allocatorIcEEE17__annotate_shrinkB8ne180100Em, symObjAddr: 0x19274, symBinAddr: 0x10001B6D4, symSize: 0x14 }
  - { offset: 0x377E9, size: 0x8, addend: 0x0, symName: __ZNSt3__114pointer_traitsIPcE10pointer_toB8ne180100ERc, symObjAddr: 0x19288, symBinAddr: 0x10001B6E8, symSize: 0x14 }
  - { offset: 0x3780C, size: 0x8, addend: 0x0, symName: __ZNSt3__111char_traitsIcE11to_int_typeB8ne180100Ec, symObjAddr: 0x1929C, symBinAddr: 0x10001B6FC, symSize: 0x14 }
  - { offset: 0x3783A, size: 0x8, addend: 0x0, symName: __ZNSt3__116allocator_traitsINS_9allocatorIcEEE8max_sizeB8ne180100IS2_vEEmRKS2_, symObjAddr: 0x192B0, symBinAddr: 0x10001B710, symSize: 0x24 }
  - { offset: 0x37868, size: 0x8, addend: 0x0, symName: __ZNKSt3__112basic_stringIcNS_11char_traitsIcEENS_9allocatorIcEEE7__allocB8ne180100Ev, symObjAddr: 0x192D4, symBinAddr: 0x10001B734, symSize: 0x24 }
  - { offset: 0x3788E, size: 0x8, addend: 0x0, symName: __ZNSt3__114numeric_limitsImE3maxB8ne180100Ev, symObjAddr: 0x192F8, symBinAddr: 0x10001B758, symSize: 0x14 }
  - { offset: 0x378A2, size: 0x8, addend: 0x0, symName: __ZNKSt3__19allocatorIcE8max_sizeB8ne180100Ev, symObjAddr: 0x1930C, symBinAddr: 0x10001B76C, symSize: 0x14 }
  - { offset: 0x378C8, size: 0x8, addend: 0x0, symName: __ZNKSt3__117__compressed_pairINS_12basic_stringIcNS_11char_traitsIcEENS_9allocatorIcEEE5__repES5_E6secondB8ne180100Ev, symObjAddr: 0x19320, symBinAddr: 0x10001B780, symSize: 0x24 }
  - { offset: 0x378EE, size: 0x8, addend: 0x0, symName: __ZNKSt3__122__compressed_pair_elemINS_9allocatorIcEELi1ELb1EE5__getB8ne180100Ev, symObjAddr: 0x19344, symBinAddr: 0x10001B7A4, symSize: 0x14 }
  - { offset: 0x37914, size: 0x8, addend: 0x0, symName: __ZNSt3__123__libcpp_numeric_limitsImLb1EE3maxB8ne180100Ev, symObjAddr: 0x19358, symBinAddr: 0x10001B7B8, symSize: 0x8 }
  - { offset: 0x37928, size: 0x8, addend: 0x0, symName: __ZNKSt3__18ios_base10exceptionsB8ne180100Ev, symObjAddr: 0x19360, symBinAddr: 0x10001B7C0, symSize: 0x18 }
  - { offset: 0x37950, size: 0x8, addend: 0x0, symName: __ZN4Game15equalIgnoreCaseERKNSt3__112basic_stringIcNS0_11char_traitsIcEENS0_9allocatorIcEEEES8_, symObjAddr: 0x19378, symBinAddr: 0x10001B7D8, symSize: 0x118 }
  - { offset: 0x379AF, size: 0x8, addend: 0x0, symName: __ZNK5Order9getFlavorEv, symObjAddr: 0x19490, symBinAddr: 0x10001B8F0, symSize: 0x3C }
  - { offset: 0x379D5, size: 0x8, addend: 0x0, symName: __ZNK6Sundae9getFlavorEv, symObjAddr: 0x194CC, symBinAddr: 0x10001B92C, symSize: 0x3C }
  - { offset: 0x379FB, size: 0x8, addend: 0x0, symName: __ZNK5Order14getToppingNameEv, symObjAddr: 0x19508, symBinAddr: 0x10001B968, symSize: 0x40 }
  - { offset: 0x37A21, size: 0x8, addend: 0x0, symName: __ZNK6Sundae14getToppingNameEv, symObjAddr: 0x19548, symBinAddr: 0x10001B9A8, symSize: 0x70 }
  - { offset: 0x37A47, size: 0x8, addend: 0x0, symName: __ZNK5Order7getSizeEv, symObjAddr: 0x195B8, symBinAddr: 0x10001BA18, symSize: 0x3C }
  - { offset: 0x37A6D, size: 0x8, addend: 0x0, symName: __ZNK6Sundae7getSizeEv, symObjAddr: 0x195F4, symBinAddr: 0x10001BA54, symSize: 0x3C }
  - { offset: 0x37A92, size: 0x8, addend: 0x0, symName: __Z7toloweri, symObjAddr: 0x19630, symBinAddr: 0x10001BA90, symSize: 0x24 }
  - { offset: 0x37AC1, size: 0x8, addend: 0x0, symName: __ZNKSt3__112basic_stringIcNS_11char_traitsIcEENS_9allocatorIcEEEixB8ne180100Em, symObjAddr: 0x19654, symBinAddr: 0x10001BAB4, symSize: 0x48 }
  - { offset: 0x37AF6, size: 0x8, addend: 0x0, symName: __ZNSt3__112basic_stringIcNS_11char_traitsIcEENS_9allocatorIcEEE13__fits_in_ssoB8ne180100Em, symObjAddr: 0x1969C, symBinAddr: 0x10001BAFC, symSize: 0x20 }
  - { offset: 0x37B1A, size: 0x8, addend: 0x0, symName: __ZNKSt3__110unique_ptrI7ToppingNS_14default_deleteIS1_EEEcvbB8ne180100Ev, symObjAddr: 0x196BC, symBinAddr: 0x10001BB1C, symSize: 0x34 }
  - { offset: 0x37B40, size: 0x8, addend: 0x0, symName: __ZNK11PlayerLevel11getXPToNextEv, symObjAddr: 0x196F0, symBinAddr: 0x10001BB50, symSize: 0x20 }
  - { offset: 0x37B66, size: 0x8, addend: 0x0, symName: __ZN6SundaeD2Ev, symObjAddr: 0x19710, symBinAddr: 0x10001BB70, symSize: 0x50 }
  - { offset: 0x37B92, size: 0x8, addend: 0x0, symName: __ZN4Game15unlockNewFlavorEv, symObjAddr: 0x19760, symBinAddr: 0x10001BBC0, symSize: 0x118 }
  - { offset: 0x37C0B, size: 0x8, addend: 0x0, symName: __ZNSt3__16vectorINS_12basic_stringIcNS_11char_traitsIcEENS_9allocatorIcEEEENS4_IS6_EEE5beginB8ne180100Ev, symObjAddr: 0x19878, symBinAddr: 0x10001BCD8, symSize: 0x30 }
  - { offset: 0x37C33, size: 0x8, addend: 0x0, symName: __ZNSt3__16vectorINS_12basic_stringIcNS_11char_traitsIcEENS_9allocatorIcEEEENS4_IS6_EEE3endB8ne180100Ev, symObjAddr: 0x198A8, symBinAddr: 0x10001BD08, symSize: 0x30 }
  - { offset: 0x37C5B, size: 0x8, addend: 0x0, symName: __ZNKSt3__111__wrap_iterIPNS_12basic_stringIcNS_11char_traitsIcEENS_9allocatorIcEEEEEdeB8ne180100Ev, symObjAddr: 0x1990C, symBinAddr: 0x10001BD6C, symSize: 0x18 }
  - { offset: 0x37C81, size: 0x8, addend: 0x0, symName: __ZNSt3__16vectorINS_12basic_stringIcNS_11char_traitsIcEENS_9allocatorIcEEEENS4_IS6_EEE9push_backB8ne180100ERKS6_, symObjAddr: 0x199E4, symBinAddr: 0x10001BE44, symSize: 0x90 }
  - { offset: 0x37CC7, size: 0x8, addend: 0x0, symName: __ZNSt3__111__wrap_iterIPNS_12basic_stringIcNS_11char_traitsIcEENS_9allocatorIcEEEEEppB8ne180100Ev, symObjAddr: 0x19A74, symBinAddr: 0x10001BED4, symSize: 0x20 }
  - { offset: 0x37CED, size: 0x8, addend: 0x0, symName: __ZNSt3__16vectorINS_12basic_stringIcNS_11char_traitsIcEENS_9allocatorIcEEEENS4_IS6_EEE11__make_iterB8ne180100EPS6_, symObjAddr: 0x19A94, symBinAddr: 0x10001BEF4, symSize: 0x30 }
  - { offset: 0x37D22, size: 0x8, addend: 0x0, symName: __ZNSt3__111__wrap_iterIPNS_12basic_stringIcNS_11char_traitsIcEENS_9allocatorIcEEEEEC1B8ne180100ES7_, symObjAddr: 0x19AC4, symBinAddr: 0x10001BF24, symSize: 0x34 }
  - { offset: 0x37D5A, size: 0x8, addend: 0x0, symName: __ZNSt3__111__wrap_iterIPNS_12basic_stringIcNS_11char_traitsIcEENS_9allocatorIcEEEEEC2B8ne180100ES7_, symObjAddr: 0x19AF8, symBinAddr: 0x10001BF58, symSize: 0x20 }
  - { offset: 0x37D92, size: 0x8, addend: 0x0, symName: __ZNKSt3__111__wrap_iterIPNS_12basic_stringIcNS_11char_traitsIcEENS_9allocatorIcEEEEE4baseB8ne180100Ev, symObjAddr: 0x19B18, symBinAddr: 0x10001BF78, symSize: 0x18 }
  - { offset: 0x37DB8, size: 0x8, addend: 0x0, symName: __ZNSt3__118__unwrap_iter_implINS_11__wrap_iterIPNS_12basic_stringIcNS_11char_traitsIcEENS_9allocatorIcEEEEEELb1EE8__rewrapB8ne180100ES9_S8_, symObjAddr: 0x19C24, symBinAddr: 0x10001C084, symSize: 0x5C }
  - { offset: 0x37DE9, size: 0x8, addend: 0x0, symName: __ZNKSt3__111__wrap_iterIPNS_12basic_stringIcNS_11char_traitsIcEENS_9allocatorIcEEEEEplB8ne180100El, symObjAddr: 0x19C80, symBinAddr: 0x10001C0E0, symSize: 0x3C }
  - { offset: 0x37E2B, size: 0x8, addend: 0x0, symName: __ZNSt3__111__wrap_iterIPNS_12basic_stringIcNS_11char_traitsIcEENS_9allocatorIcEEEEEpLB8ne180100El, symObjAddr: 0x19CE0, symBinAddr: 0x10001C140, symSize: 0x30 }
  - { offset: 0x37E69, size: 0x8, addend: 0x0, symName: __ZNSt3__119__to_address_helperINS_11__wrap_iterIPNS_12basic_stringIcNS_11char_traitsIcEENS_9allocatorIcEEEEEEvE6__callB8ne180100ERKS9_, symObjAddr: 0x19D10, symBinAddr: 0x10001C170, symSize: 0x30 }
  - { offset: 0x37E8C, size: 0x8, addend: 0x0, symName: __ZNSt3__114pointer_traitsINS_11__wrap_iterIPNS_12basic_stringIcNS_11char_traitsIcEENS_9allocatorIcEEEEEEE10to_addressB8ne180100ES9_, symObjAddr: 0x19D40, symBinAddr: 0x10001C1A0, symSize: 0x2C }
  - { offset: 0x37EAF, size: 0x8, addend: 0x0, symName: __ZNSt3__111char_traitsIcE7compareB8ne180100EPKcS3_m, symObjAddr: 0x19EE0, symBinAddr: 0x10001C340, symSize: 0x34 }
  - { offset: 0x37EF8, size: 0x8, addend: 0x0, symName: __ZNKSt3__110__identityclB8ne180100IRNS_12basic_stringIcNS_11char_traitsIcEENS_9allocatorIcEEEEEEOT_SA_, symObjAddr: 0x19F14, symBinAddr: 0x10001C374, symSize: 0x18 }
  - { offset: 0x37F35, size: 0x8, addend: 0x0, symName: __ZNSt3__118__unwrap_iter_implINS_11__wrap_iterIPNS_12basic_stringIcNS_11char_traitsIcEENS_9allocatorIcEEEEEELb1EE8__unwrapB8ne180100ES9_, symObjAddr: 0x19F2C, symBinAddr: 0x10001C38C, symSize: 0x28 }
  - { offset: 0x37F58, size: 0x8, addend: 0x0, symName: __ZNSt3__16vectorINS_12basic_stringIcNS_11char_traitsIcEENS_9allocatorIcEEEENS4_IS6_EEE22__construct_one_at_endB8ne180100IJRKS6_EEEvDpOT_, symObjAddr: 0x19F54, symBinAddr: 0x10001C3B4, symSize: 0x90 }
  - { offset: 0x37FA7, size: 0x8, addend: 0x0, symName: __ZNSt3__16vectorINS_12basic_stringIcNS_11char_traitsIcEENS_9allocatorIcEEEENS4_IS6_EEE21__push_back_slow_pathIRKS6_EEPS6_OT_, symObjAddr: 0x19FE4, symBinAddr: 0x10001C444, symSize: 0xE8 }
  - { offset: 0x38005, size: 0x8, addend: 0x0, symName: __ZNSt3__114__split_bufferINS_12basic_stringIcNS_11char_traitsIcEENS_9allocatorIcEEEERNS4_IS6_EEEC1EmmS8_, symObjAddr: 0x1A0CC, symBinAddr: 0x10001C52C, symSize: 0x44 }
  - { offset: 0x3805B, size: 0x8, addend: 0x0, symName: __ZNSt3__114__split_bufferINS_12basic_stringIcNS_11char_traitsIcEENS_9allocatorIcEEEERNS4_IS6_EEED1Ev, symObjAddr: 0x1A220, symBinAddr: 0x10001C680, symSize: 0x2C }
  - { offset: 0x38087, size: 0x8, addend: 0x0, symName: __ZNSt3__114__split_bufferINS_12basic_stringIcNS_11char_traitsIcEENS_9allocatorIcEEEERNS4_IS6_EEEC2EmmS8_, symObjAddr: 0x1A24C, symBinAddr: 0x10001C6AC, symSize: 0xE0 }
  - { offset: 0x380FB, size: 0x8, addend: 0x0, symName: __ZNSt3__117__compressed_pairIPNS_12basic_stringIcNS_11char_traitsIcEENS_9allocatorIcEEEERNS4_IS6_EEEC1B8ne180100IDnS9_EEOT_OT0_, symObjAddr: 0x1A32C, symBinAddr: 0x10001C78C, symSize: 0x3C }
  - { offset: 0x38153, size: 0x8, addend: 0x0, symName: __ZNSt3__114__split_bufferINS_12basic_stringIcNS_11char_traitsIcEENS_9allocatorIcEEEERNS4_IS6_EEE7__allocB8ne180100Ev, symObjAddr: 0x1A368, symBinAddr: 0x10001C7C8, symSize: 0x28 }
  - { offset: 0x38179, size: 0x8, addend: 0x0, symName: __ZNSt3__114__split_bufferINS_12basic_stringIcNS_11char_traitsIcEENS_9allocatorIcEEEERNS4_IS6_EEE9__end_capB8ne180100Ev, symObjAddr: 0x1A390, symBinAddr: 0x10001C7F0, symSize: 0x28 }
  - { offset: 0x3819F, size: 0x8, addend: 0x0, symName: __ZNSt3__117__compressed_pairIPNS_12basic_stringIcNS_11char_traitsIcEENS_9allocatorIcEEEERNS4_IS6_EEEC2B8ne180100IDnS9_EEOT_OT0_, symObjAddr: 0x1A3B8, symBinAddr: 0x10001C818, symSize: 0x48 }
  - { offset: 0x381F7, size: 0x8, addend: 0x0, symName: __ZNSt3__122__compressed_pair_elemIRNS_9allocatorINS_12basic_stringIcNS_11char_traitsIcEENS1_IcEEEEEELi1ELb0EEC2B8ne180100IS8_vEEOT_, symObjAddr: 0x1A400, symBinAddr: 0x10001C860, symSize: 0x20 }
  - { offset: 0x38239, size: 0x8, addend: 0x0, symName: __ZNSt3__117__compressed_pairIPNS_12basic_stringIcNS_11char_traitsIcEENS_9allocatorIcEEEERNS4_IS6_EEE6secondB8ne180100Ev, symObjAddr: 0x1A420, symBinAddr: 0x10001C880, symSize: 0x28 }
  - { offset: 0x3825F, size: 0x8, addend: 0x0, symName: __ZNSt3__122__compressed_pair_elemIRNS_9allocatorINS_12basic_stringIcNS_11char_traitsIcEENS1_IcEEEEEELi1ELb0EE5__getB8ne180100Ev, symObjAddr: 0x1A448, symBinAddr: 0x10001C8A8, symSize: 0x18 }
  - { offset: 0x38285, size: 0x8, addend: 0x0, symName: __ZNSt3__117__compressed_pairIPNS_12basic_stringIcNS_11char_traitsIcEENS_9allocatorIcEEEERNS4_IS6_EEE5firstB8ne180100Ev, symObjAddr: 0x1A460, symBinAddr: 0x10001C8C0, symSize: 0x24 }
  - { offset: 0x382AB, size: 0x8, addend: 0x0, symName: __ZNSt3__129_AllocatorDestroyRangeReverseINS_9allocatorINS_12basic_stringIcNS_11char_traitsIcEENS1_IcEEEEEENS_16reverse_iteratorIPS6_EEEC1B8ne180100ERS7_RSA_SD_, symObjAddr: 0x1A628, symBinAddr: 0x10001CA88, symSize: 0x44 }
  - { offset: 0x38308, size: 0x8, addend: 0x0, symName: __ZNSt3__116allocator_traitsINS_9allocatorINS_12basic_stringIcNS_11char_traitsIcEENS1_IcEEEEEEE9constructB8ne180100IS6_JS6_EvEEvRS7_PT_DpOT0_, symObjAddr: 0x1A66C, symBinAddr: 0x10001CACC, symSize: 0x34 }
  - { offset: 0x3835F, size: 0x8, addend: 0x0, symName: __ZNSt3__128__exception_guard_exceptionsINS_29_AllocatorDestroyRangeReverseINS_9allocatorINS_12basic_stringIcNS_11char_traitsIcEENS2_IcEEEEEENS_16reverse_iteratorIPS7_EEEEE10__completeB8ne180100Ev, symObjAddr: 0x1A6A0, symBinAddr: 0x10001CB00, symSize: 0x1C }
  - { offset: 0x38385, size: 0x8, addend: 0x0, symName: __ZNSt3__128__exception_guard_exceptionsINS_29_AllocatorDestroyRangeReverseINS_9allocatorINS_12basic_stringIcNS_11char_traitsIcEENS2_IcEEEEEENS_16reverse_iteratorIPS7_EEEEED1B8ne180100Ev, symObjAddr: 0x1A6BC, symBinAddr: 0x10001CB1C, symSize: 0x2C }
  - { offset: 0x383AF, size: 0x8, addend: 0x0, symName: __ZNSt3__128__exception_guard_exceptionsINS_29_AllocatorDestroyRangeReverseINS_9allocatorINS_12basic_stringIcNS_11char_traitsIcEENS2_IcEEEEEENS_16reverse_iteratorIPS7_EEEEEC1B8ne180100ESC_, symObjAddr: 0x1A6E8, symBinAddr: 0x10001CB48, symSize: 0x34 }
  - { offset: 0x383E8, size: 0x8, addend: 0x0, symName: __ZNSt3__128__exception_guard_exceptionsINS_29_AllocatorDestroyRangeReverseINS_9allocatorINS_12basic_stringIcNS_11char_traitsIcEENS2_IcEEEEEENS_16reverse_iteratorIPS7_EEEEEC2B8ne180100ESC_, symObjAddr: 0x1A71C, symBinAddr: 0x10001CB7C, symSize: 0x30 }
  - { offset: 0x38421, size: 0x8, addend: 0x0, symName: __ZNSt3__129_AllocatorDestroyRangeReverseINS_9allocatorINS_12basic_stringIcNS_11char_traitsIcEENS1_IcEEEEEENS_16reverse_iteratorIPS6_EEEC2B8ne180100ERS7_RSA_SD_, symObjAddr: 0x1A74C, symBinAddr: 0x10001CBAC, symSize: 0x38 }
  - { offset: 0x38478, size: 0x8, addend: 0x0, symName: __ZNSt3__19allocatorINS_12basic_stringIcNS_11char_traitsIcEENS0_IcEEEEE9constructB8ne180100IS5_JS5_EEEvPT_DpOT0_, symObjAddr: 0x1A784, symBinAddr: 0x10001CBE4, symSize: 0x30 }
  - { offset: 0x384CE, size: 0x8, addend: 0x0, symName: __ZNSt3__128__exception_guard_exceptionsINS_29_AllocatorDestroyRangeReverseINS_9allocatorINS_12basic_stringIcNS_11char_traitsIcEENS2_IcEEEEEENS_16reverse_iteratorIPS7_EEEEED2B8ne180100Ev, symObjAddr: 0x1A7B4, symBinAddr: 0x10001CC14, symSize: 0x50 }
  - { offset: 0x384F8, size: 0x8, addend: 0x0, symName: __ZNKSt3__129_AllocatorDestroyRangeReverseINS_9allocatorINS_12basic_stringIcNS_11char_traitsIcEENS1_IcEEEEEENS_16reverse_iteratorIPS6_EEEclB8ne180100Ev, symObjAddr: 0x1A804, symBinAddr: 0x10001CC64, symSize: 0xB4 }
  - { offset: 0x3851F, size: 0x8, addend: 0x0, symName: __ZNSt3__116reverse_iteratorINS0_IPNS_12basic_stringIcNS_11char_traitsIcEENS_9allocatorIcEEEEEEEC1B8ne180100ES8_, symObjAddr: 0x1A928, symBinAddr: 0x10001CD88, symSize: 0x3C }
  - { offset: 0x38557, size: 0x8, addend: 0x0, symName: __ZNSt3__116reverse_iteratorINS0_IPNS_12basic_stringIcNS_11char_traitsIcEENS_9allocatorIcEEEEEEEppB8ne180100Ev, symObjAddr: 0x1A9E8, symBinAddr: 0x10001CE48, symSize: 0x30 }
  - { offset: 0x3857D, size: 0x8, addend: 0x0, symName: __ZNKSt3__116reverse_iteratorINS0_IPNS_12basic_stringIcNS_11char_traitsIcEENS_9allocatorIcEEEEEEE4baseB8ne180100Ev, symObjAddr: 0x1AA18, symBinAddr: 0x10001CE78, symSize: 0x24 }
  - { offset: 0x385A8, size: 0x8, addend: 0x0, symName: __ZNSt3__119__to_address_helperINS_16reverse_iteratorINS1_IPNS_12basic_stringIcNS_11char_traitsIcEENS_9allocatorIcEEEEEEEEvE6__callB8ne180100ERKSA_, symObjAddr: 0x1AA3C, symBinAddr: 0x10001CE9C, symSize: 0x38 }
  - { offset: 0x385CB, size: 0x8, addend: 0x0, symName: __ZNKSt3__116reverse_iteratorINS0_IPNS_12basic_stringIcNS_11char_traitsIcEENS_9allocatorIcEEEEEEEptB8ne180100Ev, symObjAddr: 0x1AA74, symBinAddr: 0x10001CED4, symSize: 0x24 }
  - { offset: 0x385F1, size: 0x8, addend: 0x0, symName: __ZNKSt3__116reverse_iteratorINS0_IPNS_12basic_stringIcNS_11char_traitsIcEENS_9allocatorIcEEEEEEEdeB8ne180100Ev, symObjAddr: 0x1AA98, symBinAddr: 0x10001CEF8, symSize: 0x34 }
  - { offset: 0x38625, size: 0x8, addend: 0x0, symName: __ZNSt3__116reverse_iteratorIPNS_12basic_stringIcNS_11char_traitsIcEENS_9allocatorIcEEEEEmmB8ne180100Ev, symObjAddr: 0x1AACC, symBinAddr: 0x10001CF2C, symSize: 0x20 }
  - { offset: 0x3864B, size: 0x8, addend: 0x0, symName: __ZNSt3__116reverse_iteratorINS0_IPNS_12basic_stringIcNS_11char_traitsIcEENS_9allocatorIcEEEEEEEC2B8ne180100ES8_, symObjAddr: 0x1AAEC, symBinAddr: 0x10001CF4C, symSize: 0x2C }
  - { offset: 0x38683, size: 0x8, addend: 0x0, symName: __ZNSt3__114__split_bufferINS_12basic_stringIcNS_11char_traitsIcEENS_9allocatorIcEEEERNS4_IS6_EEED2Ev, symObjAddr: 0x1AB18, symBinAddr: 0x10001CF78, symSize: 0x8C }
  - { offset: 0x386AF, size: 0x8, addend: 0x0, symName: __ZNSt3__114__split_bufferINS_12basic_stringIcNS_11char_traitsIcEENS_9allocatorIcEEEERNS4_IS6_EEE5clearB8ne180100Ev, symObjAddr: 0x1ABA4, symBinAddr: 0x10001D004, symSize: 0x28 }
  - { offset: 0x386D5, size: 0x8, addend: 0x0, symName: __ZNKSt3__114__split_bufferINS_12basic_stringIcNS_11char_traitsIcEENS_9allocatorIcEEEERNS4_IS6_EEE8capacityB8ne180100Ev, symObjAddr: 0x1ABCC, symBinAddr: 0x10001D02C, symSize: 0x40 }
  - { offset: 0x386FB, size: 0x8, addend: 0x0, symName: __ZNSt3__114__split_bufferINS_12basic_stringIcNS_11char_traitsIcEENS_9allocatorIcEEEERNS4_IS6_EEE17__destruct_at_endB8ne180100EPS6_, symObjAddr: 0x1AC0C, symBinAddr: 0x10001D06C, symSize: 0x2C }
  - { offset: 0x3872F, size: 0x8, addend: 0x0, symName: __ZNSt3__114__split_bufferINS_12basic_stringIcNS_11char_traitsIcEENS_9allocatorIcEEEERNS4_IS6_EEE17__destruct_at_endB8ne180100EPS6_NS_17integral_constantIbLb0EEE, symObjAddr: 0x1AC38, symBinAddr: 0x10001D098, symSize: 0x80 }
  - { offset: 0x3876F, size: 0x8, addend: 0x0, symName: __ZNKSt3__114__split_bufferINS_12basic_stringIcNS_11char_traitsIcEENS_9allocatorIcEEEERNS4_IS6_EEE9__end_capB8ne180100Ev, symObjAddr: 0x1ACB8, symBinAddr: 0x10001D118, symSize: 0x28 }
  - { offset: 0x38795, size: 0x8, addend: 0x0, symName: __ZNKSt3__117__compressed_pairIPNS_12basic_stringIcNS_11char_traitsIcEENS_9allocatorIcEEEERNS4_IS6_EEE5firstB8ne180100Ev, symObjAddr: 0x1ACE0, symBinAddr: 0x10001D140, symSize: 0x24 }
  - { offset: 0x387BB, size: 0x8, addend: 0x0, symName: __ZNSt3__16vectorI8CustomerNS_9allocatorIS1_EEED2B8ne180100Ev, symObjAddr: 0x1AD04, symBinAddr: 0x10001D164, symSize: 0x44 }
  - { offset: 0x387E5, size: 0x8, addend: 0x0, symName: __ZNSt3__16vectorI8CustomerNS_9allocatorIS1_EEE16__destroy_vectorC1B8ne180100ERS4_, symObjAddr: 0x1AD48, symBinAddr: 0x10001D1A8, symSize: 0x34 }
  - { offset: 0x3881E, size: 0x8, addend: 0x0, symName: __ZNSt3__16vectorI8CustomerNS_9allocatorIS1_EEE16__destroy_vectorclB8ne180100Ev, symObjAddr: 0x1AD7C, symBinAddr: 0x10001D1DC, symSize: 0x90 }
  - { offset: 0x38844, size: 0x8, addend: 0x0, symName: __ZNSt3__16vectorI8CustomerNS_9allocatorIS1_EEE16__destroy_vectorC2B8ne180100ERS4_, symObjAddr: 0x1AE0C, symBinAddr: 0x10001D26C, symSize: 0x20 }
  - { offset: 0x3887D, size: 0x8, addend: 0x0, symName: __ZNSt3__16vectorI8CustomerNS_9allocatorIS1_EEE7__clearB8ne180100Ev, symObjAddr: 0x1AE2C, symBinAddr: 0x10001D28C, symSize: 0x28 }
  - { offset: 0x388A3, size: 0x8, addend: 0x0, symName: __ZNSt3__16vectorI8CustomerNS_9allocatorIS1_EEE22__base_destruct_at_endB8ne180100EPS1_, symObjAddr: 0x1AE54, symBinAddr: 0x10001D2B4, symSize: 0x8C }
  - { offset: 0x388E7, size: 0x8, addend: 0x0, symName: __ZN4GameD2Ev, symObjAddr: 0x1AEE0, symBinAddr: 0x10001D340, symSize: 0x3C }
...
